ccopy_reg
_reconstructor
p0
(cknn
DISTANCE_KNN
p1
c__builtin__
object
p2
Ntp3
Rp4
(dp5
S'instances'
p6
(lp7
(ics475_types
Instance
p8
(dp9
S'_feature_vector'
p10
(ics475_types
FeatureVector
p11
(dp12
S'sparseVec'
p13
(dp14
I8
F1.0
sI1
F-0.112217
sI2
F0.077192
sI3
F-0.530494
sI4
F0.340633
ssbsS'_label'
p15
g0
(ccs475_types
ClassificationLabel
p16
g2
Ntp17
Rp18
(dp19
g15
I1
sbsba(ics475_types
Instance
p20
(dp21
g10
(ics475_types
FeatureVector
p22
(dp23
g13
(dp24
I1
F0.418255
sI2
F-1.791584
sI3
F0.884365
sI4
F-0.741727
sI9
F1.0
ssbsg15
g0
(g16
g2
Ntp25
Rp26
(dp27
g15
I1
sbsba(ics475_types
Instance
p28
(dp29
g10
(ics475_types
FeatureVector
p30
(dp31
g13
(dp32
I1
F-0.44277
sI2
F1.003074
sI3
F-1.28595
sI4
F-0.176745
sI10
F1.0
ssbsg15
g0
(g16
g2
Ntp33
Rp34
(dp35
g15
I1
sbsba(ics475_types
Instance
p36
(dp37
g10
(ics475_types
FeatureVector
p38
(dp39
g13
(dp40
I8
F1.0
sI1
F-0.368072
sI2
F0.945647
sI3
F-0.151802
sI4
F0.504634
ssbsg15
g0
(g16
g2
Ntp41
Rp42
(dp43
g15
I1
sbsba(ics475_types
Instance
p44
(dp45
g10
(ics475_types
FeatureVector
p46
(dp47
g13
(dp48
I1
F0.496442
sI2
F-0.290597
sI3
F-1.174111
sI4
F-0.169832
sI5
F1.0
ssbsg15
g0
(g16
g2
Ntp49
Rp50
(dp51
g15
I0
sbsba(ics475_types
Instance
p52
(dp53
g10
(ics475_types
FeatureVector
p54
(dp55
g13
(dp56
I8
F1.0
sI1
F-1.257386
sI2
F1.84973
sI3
F-1.654297
sI4
F-0.183782
ssbsg15
g0
(g16
g2
Ntp57
Rp58
(dp59
g15
I1
sbsba(ics475_types
Instance
p60
(dp61
g10
(ics475_types
FeatureVector
p62
(dp63
g13
(dp64
I1
F-1.205734
sI2
F-0.181532
sI3
F0.110738
sI4
F0.000582
sI10
F1.0
ssbsg15
g0
(g16
g2
Ntp65
Rp66
(dp67
g15
I1
sbsba(ics475_types
Instance
p68
(dp69
g10
(ics475_types
FeatureVector
p70
(dp71
g13
(dp72
I8
F1.0
sI1
F-0.183609
sI2
F-0.863808
sI3
F0.78835
sI4
F-0.736534
ssbsg15
g0
(g16
g2
Ntp73
Rp74
(dp75
g15
I1
sbsba(ics475_types
Instance
p76
(dp77
g10
(ics475_types
FeatureVector
p78
(dp79
g13
(dp80
I1
F0.291384
sI2
F1.53337
sI3
F0.186509
sI4
F-0.763965
sI9
F1.0
ssbsg15
g0
(g16
g2
Ntp81
Rp82
(dp83
g15
I1
sbsba(ics475_types
Instance
p84
(dp85
g10
(ics475_types
FeatureVector
p86
(dp87
g13
(dp88
I1
F0.937331
sI2
F0.301527
sI3
F-0.904494
sI4
F-0.109617
sI7
F1.0
ssbsg15
g0
(g16
g2
Ntp89
Rp90
(dp91
g15
I0
sbsba(ics475_types
Instance
p92
(dp93
g10
(ics475_types
FeatureVector
p94
(dp95
g13
(dp96
I1
F0.625607
sI2
F-1.807629
sI3
F0.391466
sI4
F-0.633739
sI5
F1.0
ssbsg15
g0
(g16
g2
Ntp97
Rp98
(dp99
g15
I0
sbsba(ics475_types
Instance
p100
(dp101
g10
(ics475_types
FeatureVector
p102
(dp103
g13
(dp104
I1
F-1.440043
sI2
F-1.586683
sI3
F0.514034
sI4
F-1.117215
sI7
F1.0
ssbsg15
g0
(g16
g2
Ntp105
Rp106
(dp107
g15
I0
sbsba(ics475_types
Instance
p108
(dp109
g10
(ics475_types
FeatureVector
p110
(dp111
g13
(dp112
I1
F-0.784996
sI2
F-1.138552
sI3
F-0.546957
sI4
F0.788098
sI6
F1.0
ssbsg15
g0
(g16
g2
Ntp113
Rp114
(dp115
g15
I0
sbsba(ics475_types
Instance
p116
(dp117
g10
(ics475_types
FeatureVector
p118
(dp119
g13
(dp120
I1
F0.607739
sI2
F-0.378471
sI3
F-0.263483
sI4
F-0.126682
sI6
F1.0
ssbsg15
g0
(g16
g2
Ntp121
Rp122
(dp123
g15
I0
sbsba(ics475_types
Instance
p124
(dp125
g10
(ics475_types
FeatureVector
p126
(dp127
g13
(dp128
I1
F-0.933925
sI2
F1.362723
sI3
F-0.555621
sI4
F-1.172347
sI5
F1.0
ssbsg15
g0
(g16
g2
Ntp129
Rp130
(dp131
g15
I0
sbsba(ics475_types
Instance
p132
(dp133
g10
(ics475_types
FeatureVector
p134
(dp135
g13
(dp136
I1
F-1.549427
sI2
F0.059314
sI3
F-0.112048
sI4
F-2.133836
sI6
F1.0
ssbsg15
g0
(g16
g2
Ntp137
Rp138
(dp139
g15
I0
sbsba(ics475_types
Instance
p140
(dp141
g10
(ics475_types
FeatureVector
p142
(dp143
g13
(dp144
I1
F0.196596
sI2
F-0.165536
sI3
F-0.650892
sI4
F-0.949519
sI6
F1.0
ssbsg15
g0
(g16
g2
Ntp145
Rp146
(dp147
g15
I0
sbsba(ics475_types
Instance
p148
(dp149
g10
(ics475_types
FeatureVector
p150
(dp151
g13
(dp152
I1
F1.109241
sI2
F0.807979
sI3
F-1.082674
sI4
F0.456524
sI9
F1.0
ssbsg15
g0
(g16
g2
Ntp153
Rp154
(dp155
g15
I1
sbsba(ics475_types
Instance
p156
(dp157
g10
(ics475_types
FeatureVector
p158
(dp159
g13
(dp160
I1
F0.38269
sI2
F0.55399
sI3
F-0.446385
sI4
F-0.612459
sI7
F1.0
ssbsg15
g0
(g16
g2
Ntp161
Rp162
(dp163
g15
I0
sbsba(ics475_types
Instance
p164
(dp165
g10
(ics475_types
FeatureVector
p166
(dp167
g13
(dp168
I8
F1.0
sI1
F0.284214
sI2
F0.623747
sI3
F-0.851695
sI4
F2.039592
ssbsg15
g0
(g16
g2
Ntp169
Rp170
(dp171
g15
I1
sbsba(ics475_types
Instance
p172
(dp173
g10
(ics475_types
FeatureVector
p174
(dp175
g13
(dp176
I1
F-0.07862
sI2
F-0.061729
sI3
F-2.078946
sI4
F-1.911503
sI5
F1.0
ssbsg15
g0
(g16
g2
Ntp177
Rp178
(dp179
g15
I0
sbsba(ics475_types
Instance
p180
(dp181
g10
(ics475_types
FeatureVector
p182
(dp183
g13
(dp184
I1
F0.232776
sI2
F0.830675
sI3
F0.584581
sI4
F0.529514
sI5
F1.0
ssbsg15
g0
(g16
g2
Ntp185
Rp186
(dp187
g15
I0
sbsba(ics475_types
Instance
p188
(dp189
g10
(ics475_types
FeatureVector
p190
(dp191
g13
(dp192
I1
F-0.346572
sI2
F0.288246
sI3
F1.473406
sI4
F-1.262912
sI5
F1.0
ssbsg15
g0
(g16
g2
Ntp193
Rp194
(dp195
g15
I0
sbsba(ics475_types
Instance
p196
(dp197
g10
(ics475_types
FeatureVector
p198
(dp199
g13
(dp200
I1
F-0.117195
sI2
F1.349679
sI3
F0.168564
sI4
F-1.632714
sI10
F1.0
ssbsg15
g0
(g16
g2
Ntp201
Rp202
(dp203
g15
I1
sbsba(ics475_types
Instance
p204
(dp205
g10
(ics475_types
FeatureVector
p206
(dp207
g13
(dp208
I1
F0.375512
sI2
F-0.671297
sI3
F1.546318
sI4
F1.533762
sI9
F1.0
ssbsg15
g0
(g16
g2
Ntp209
Rp210
(dp211
g15
I1
sbsba(ics475_types
Instance
p212
(dp213
g10
(ics475_types
FeatureVector
p214
(dp215
g13
(dp216
I1
F0.410482
sI2
F0.53536
sI3
F-0.893148
sI4
F3.667329
sI7
F1.0
ssbsg15
g0
(g16
g2
Ntp217
Rp218
(dp219
g15
I0
sbsba(ics475_types
Instance
p220
(dp221
g10
(ics475_types
FeatureVector
p222
(dp223
g13
(dp224
I1
F1.420279
sI2
F-0.728764
sI3
F1.169741
sI4
F0.826671
sI7
F1.0
ssbsg15
g0
(g16
g2
Ntp225
Rp226
(dp227
g15
I0
sbsba(ics475_types
Instance
p228
(dp229
g10
(ics475_types
FeatureVector
p230
(dp231
g13
(dp232
I1
F0.803621
sI2
F0.15873
sI3
F1.03316
sI4
F-0.28042
sI10
F1.0
ssbsg15
g0
(g16
g2
Ntp233
Rp234
(dp235
g15
I1
sbsba(ics475_types
Instance
p236
(dp237
g10
(ics475_types
FeatureVector
p238
(dp239
g13
(dp240
I1
F0.585178
sI2
F-0.779392
sI3
F1.00869
sI4
F-1.148955
sI5
F1.0
ssbsg15
g0
(g16
g2
Ntp241
Rp242
(dp243
g15
I0
sbsba(ics475_types
Instance
p244
(dp245
g10
(ics475_types
FeatureVector
p246
(dp247
g13
(dp248
I1
F-0.706122
sI2
F-0.154744
sI3
F0.295479
sI4
F0.313737
sI9
F1.0
ssbsg15
g0
(g16
g2
Ntp249
Rp250
(dp251
g15
I1
sbsba(ics475_types
Instance
p252
(dp253
g10
(ics475_types
FeatureVector
p254
(dp255
g13
(dp256
I1
F0.459037
sI2
F-0.135745
sI3
F0.443306
sI4
F0.204012
sI6
F1.0
ssbsg15
g0
(g16
g2
Ntp257
Rp258
(dp259
g15
I0
sbsba(ics475_types
Instance
p260
(dp261
g10
(ics475_types
FeatureVector
p262
(dp263
g13
(dp264
I1
F0.103573
sI2
F-0.633381
sI3
F-1.375783
sI4
F1.281847
sI10
F1.0
ssbsg15
g0
(g16
g2
Ntp265
Rp266
(dp267
g15
I1
sbsba(ics475_types
Instance
p268
(dp269
g10
(ics475_types
FeatureVector
p270
(dp271
g13
(dp272
I1
F0.741908
sI2
F-0.595073
sI3
F-0.053839
sI4
F0.052515
sI9
F1.0
ssbsg15
g0
(g16
g2
Ntp273
Rp274
(dp275
g15
I1
sbsba(ics475_types
Instance
p276
(dp277
g10
(ics475_types
FeatureVector
p278
(dp279
g13
(dp280
I1
F-0.074187
sI2
F0.623509
sI3
F1.398824
sI4
F-0.220245
sI5
F1.0
ssbsg15
g0
(g16
g2
Ntp281
Rp282
(dp283
g15
I0
sbsba(ics475_types
Instance
p284
(dp285
g10
(ics475_types
FeatureVector
p286
(dp287
g13
(dp288
I1
F0.589672
sI2
F-1.002789
sI3
F0.367023
sI4
F-0.679353
sI7
F1.0
ssbsg15
g0
(g16
g2
Ntp289
Rp290
(dp291
g15
I0
sbsba(ics475_types
Instance
p292
(dp293
g10
(ics475_types
FeatureVector
p294
(dp295
g13
(dp296
I1
F0.309676
sI2
F-0.590305
sI3
F-2.075713
sI4
F-0.060309
sI9
F1.0
ssbsg15
g0
(g16
g2
Ntp297
Rp298
(dp299
g15
I1
sbsba(ics475_types
Instance
p300
(dp301
g10
(ics475_types
FeatureVector
p302
(dp303
g13
(dp304
I1
F-1.780751
sI2
F1.502719
sI3
F1.328392
sI4
F-1.688231
sI5
F1.0
ssbsg15
g0
(g16
g2
Ntp305
Rp306
(dp307
g15
I0
sbsba(ics475_types
Instance
p308
(dp309
g10
(ics475_types
FeatureVector
p310
(dp311
g13
(dp312
I1
F0.072824
sI2
F0.206433
sI3
F-0.669066
sI4
F-1.435707
sI6
F1.0
ssbsg15
g0
(g16
g2
Ntp313
Rp314
(dp315
g15
I0
sbsba(ics475_types
Instance
p316
(dp317
g10
(ics475_types
FeatureVector
p318
(dp319
g13
(dp320
I1
F-0.52503
sI2
F-2.156808
sI3
F1.494006
sI4
F-0.107008
sI6
F1.0
ssbsg15
g0
(g16
g2
Ntp321
Rp322
(dp323
g15
I0
sbsba(ics475_types
Instance
p324
(dp325
g10
(ics475_types
FeatureVector
p326
(dp327
g13
(dp328
I1
F0.078029
sI2
F-1.038748
sI3
F0.335718
sI4
F0.286137
sI5
F1.0
ssbsg15
g0
(g16
g2
Ntp329
Rp330
(dp331
g15
I0
sbsba(ics475_types
Instance
p332
(dp333
g10
(ics475_types
FeatureVector
p334
(dp335
g13
(dp336
I1
F-0.975461
sI2
F-0.056539
sI3
F0.83174
sI4
F-0.137747
sI7
F1.0
ssbsg15
g0
(g16
g2
Ntp337
Rp338
(dp339
g15
I0
sbsba(ics475_types
Instance
p340
(dp341
g10
(ics475_types
FeatureVector
p342
(dp343
g13
(dp344
I1
F0.817581
sI2
F-0.138677
sI3
F2.004725
sI4
F0.465134
sI9
F1.0
ssbsg15
g0
(g16
g2
Ntp345
Rp346
(dp347
g15
I1
sbsba(ics475_types
Instance
p348
(dp349
g10
(ics475_types
FeatureVector
p350
(dp351
g13
(dp352
I1
F1.680202
sI2
F-0.433239
sI3
F2.996395
sI4
F1.183242
sI6
F1.0
ssbsg15
g0
(g16
g2
Ntp353
Rp354
(dp355
g15
I0
sbsba(ics475_types
Instance
p356
(dp357
g10
(ics475_types
FeatureVector
p358
(dp359
g13
(dp360
I1
F-1.336528
sI2
F0.73183
sI3
F-1.067752
sI4
F1.758691
sI9
F1.0
ssbsg15
g0
(g16
g2
Ntp361
Rp362
(dp363
g15
I1
sbsba(ics475_types
Instance
p364
(dp365
g10
(ics475_types
FeatureVector
p366
(dp367
g13
(dp368
I1
F-3.363115
sI2
F1.817824
sI3
F-0.115819
sI4
F-0.805638
sI9
F1.0
ssbsg15
g0
(g16
g2
Ntp369
Rp370
(dp371
g15
I1
sbsba(ics475_types
Instance
p372
(dp373
g10
(ics475_types
FeatureVector
p374
(dp375
g13
(dp376
I8
F1.0
sI1
F2.351289
sI2
F-1.618942
sI3
F0.290146
sI4
F0.110359
ssbsg15
g0
(g16
g2
Ntp377
Rp378
(dp379
g15
I1
sbsba(ics475_types
Instance
p380
(dp381
g10
(ics475_types
FeatureVector
p382
(dp383
g13
(dp384
I1
F1.049079
sI2
F1.373082
sI3
F0.2905
sI4
F0.003329
sI5
F1.0
ssbsg15
g0
(g16
g2
Ntp385
Rp386
(dp387
g15
I0
sbsba(ics475_types
Instance
p388
(dp389
g10
(ics475_types
FeatureVector
p390
(dp391
g13
(dp392
I1
F0.568289
sI2
F0.153605
sI3
F0.539274
sI4
F0.408123
sI9
F1.0
ssbsg15
g0
(g16
g2
Ntp393
Rp394
(dp395
g15
I1
sbsba(ics475_types
Instance
p396
(dp397
g10
(ics475_types
FeatureVector
p398
(dp399
g13
(dp400
I1
F-0.268128
sI2
F-1.482983
sI3
F1.268252
sI4
F-1.621063
sI7
F1.0
ssbsg15
g0
(g16
g2
Ntp401
Rp402
(dp403
g15
I0
sbsba(ics475_types
Instance
p404
(dp405
g10
(ics475_types
FeatureVector
p406
(dp407
g13
(dp408
I1
F-0.976978
sI2
F-0.283381
sI3
F-2.141868
sI4
F0.168157
sI7
F1.0
ssbsg15
g0
(g16
g2
Ntp409
Rp410
(dp411
g15
I0
sbsba(ics475_types
Instance
p412
(dp413
g10
(ics475_types
FeatureVector
p414
(dp415
g13
(dp416
I1
F-1.185133
sI2
F0.33563
sI3
F-0.274983
sI4
F-0.04481
sI10
F1.0
ssbsg15
g0
(g16
g2
Ntp417
Rp418
(dp419
g15
I1
sbsba(ics475_types
Instance
p420
(dp421
g10
(ics475_types
FeatureVector
p422
(dp423
g13
(dp424
I1
F0.35131
sI2
F0.086778
sI3
F0.318517
sI4
F1.501034
sI5
F1.0
ssbsg15
g0
(g16
g2
Ntp425
Rp426
(dp427
g15
I0
sbsba(ics475_types
Instance
p428
(dp429
g10
(ics475_types
FeatureVector
p430
(dp431
g13
(dp432
I1
F0.057861
sI2
F0.521509
sI3
F0.723278
sI4
F0.691145
sI7
F1.0
ssbsg15
g0
(g16
g2
Ntp433
Rp434
(dp435
g15
I0
sbsba(ics475_types
Instance
p436
(dp437
g10
(ics475_types
FeatureVector
p438
(dp439
g13
(dp440
I1
F-1.26242
sI2
F0.534296
sI3
F0.537923
sI4
F-0.860747
sI10
F1.0
ssbsg15
g0
(g16
g2
Ntp441
Rp442
(dp443
g15
I1
sbsba(ics475_types
Instance
p444
(dp445
g10
(ics475_types
FeatureVector
p446
(dp447
g13
(dp448
I1
F-0.623506
sI2
F-0.649787
sI3
F1.123667
sI4
F-0.221084
sI6
F1.0
ssbsg15
g0
(g16
g2
Ntp449
Rp450
(dp451
g15
I0
sbsba(ics475_types
Instance
p452
(dp453
g10
(ics475_types
FeatureVector
p454
(dp455
g13
(dp456
I1
F-0.941669
sI2
F0.948688
sI3
F-1.413686
sI4
F-0.947314
sI5
F1.0
ssbsg15
g0
(g16
g2
Ntp457
Rp458
(dp459
g15
I0
sbsba(ics475_types
Instance
p460
(dp461
g10
(ics475_types
FeatureVector
p462
(dp463
g13
(dp464
I1
F1.598403
sI2
F0.481829
sI3
F-0.576033
sI4
F-1.248097
sI10
F1.0
ssbsg15
g0
(g16
g2
Ntp465
Rp466
(dp467
g15
I1
sbsba(ics475_types
Instance
p468
(dp469
g10
(ics475_types
FeatureVector
p470
(dp471
g13
(dp472
I1
F0.097123
sI2
F-0.88049
sI3
F0.719162
sI4
F-0.113611
sI5
F1.0
ssbsg15
g0
(g16
g2
Ntp473
Rp474
(dp475
g15
I0
sbsba(ics475_types
Instance
p476
(dp477
g10
(ics475_types
FeatureVector
p478
(dp479
g13
(dp480
I1
F-0.078725
sI2
F-0.810875
sI3
F-1.42147
sI4
F1.950874
sI5
F1.0
ssbsg15
g0
(g16
g2
Ntp481
Rp482
(dp483
g15
I0
sbsba(ics475_types
Instance
p484
(dp485
g10
(ics475_types
FeatureVector
p486
(dp487
g13
(dp488
I1
F-0.211583
sI2
F-1.623859
sI3
F-0.268304
sI4
F0.40211
sI10
F1.0
ssbsg15
g0
(g16
g2
Ntp489
Rp490
(dp491
g15
I1
sbsba(ics475_types
Instance
p492
(dp493
g10
(ics475_types
FeatureVector
p494
(dp495
g13
(dp496
I1
F-1.559561
sI2
F1.09878
sI3
F-2.552163
sI4
F0.491225
sI7
F1.0
ssbsg15
g0
(g16
g2
Ntp497
Rp498
(dp499
g15
I0
sbsba(ics475_types
Instance
p500
(dp501
g10
(ics475_types
FeatureVector
p502
(dp503
g13
(dp504
I8
F1.0
sI1
F1.613214
sI2
F0.704274
sI3
F0.778099
sI4
F0.699679
ssbsg15
g0
(g16
g2
Ntp505
Rp506
(dp507
g15
I1
sbsba(ics475_types
Instance
p508
(dp509
g10
(ics475_types
FeatureVector
p510
(dp511
g13
(dp512
I1
F-1.060542
sI2
F-0.795151
sI3
F-0.681008
sI4
F-1.62428
sI10
F1.0
ssbsg15
g0
(g16
g2
Ntp513
Rp514
(dp515
g15
I1
sbsba(ics475_types
Instance
p516
(dp517
g10
(ics475_types
FeatureVector
p518
(dp519
g13
(dp520
I1
F0.81048
sI2
F0.113339
sI3
F-0.853442
sI4
F-0.539
sI5
F1.0
ssbsg15
g0
(g16
g2
Ntp521
Rp522
(dp523
g15
I0
sbsba(ics475_types
Instance
p524
(dp525
g10
(ics475_types
FeatureVector
p526
(dp527
g13
(dp528
I1
F-0.852198
sI2
F0.219675
sI3
F-0.190355
sI4
F0.451821
sI6
F1.0
ssbsg15
g0
(g16
g2
Ntp529
Rp530
(dp531
g15
I0
sbsba(ics475_types
Instance
p532
(dp533
g10
(ics475_types
FeatureVector
p534
(dp535
g13
(dp536
I1
F0.331523
sI2
F-1.697083
sI3
F-0.376745
sI4
F-1.833715
sI7
F1.0
ssbsg15
g0
(g16
g2
Ntp537
Rp538
(dp539
g15
I0
sbsba(ics475_types
Instance
p540
(dp541
g10
(ics475_types
FeatureVector
p542
(dp543
g13
(dp544
I1
F1.120002
sI2
F0.62942
sI3
F-0.193174
sI4
F-0.188917
sI9
F1.0
ssbsg15
g0
(g16
g2
Ntp545
Rp546
(dp547
g15
I1
sbsba(ics475_types
Instance
p548
(dp549
g10
(ics475_types
FeatureVector
p550
(dp551
g13
(dp552
I1
F-1.54364
sI2
F1.477053
sI3
F1.908639
sI4
F-0.57327
sI5
F1.0
ssbsg15
g0
(g16
g2
Ntp553
Rp554
(dp555
g15
I0
sbsba(ics475_types
Instance
p556
(dp557
g10
(ics475_types
FeatureVector
p558
(dp559
g13
(dp560
I8
F1.0
sI1
F-0.146328
sI2
F1.353722
sI3
F0.57248
sI4
F0.188783
ssbsg15
g0
(g16
g2
Ntp561
Rp562
(dp563
g15
I1
sbsba(ics475_types
Instance
p564
(dp565
g10
(ics475_types
FeatureVector
p566
(dp567
g13
(dp568
I1
F0.432557
sI2
F-1.44973
sI3
F-0.903731
sI4
F0.282481
sI10
F1.0
ssbsg15
g0
(g16
g2
Ntp569
Rp570
(dp571
g15
I1
sbsba(ics475_types
Instance
p572
(dp573
g10
(ics475_types
FeatureVector
p574
(dp575
g13
(dp576
I1
F-1.060178
sI2
F1.664459
sI3
F-1.062489
sI4
F1.446083
sI6
F1.0
ssbsg15
g0
(g16
g2
Ntp577
Rp578
(dp579
g15
I0
sbsba(ics475_types
Instance
p580
(dp581
g10
(ics475_types
FeatureVector
p582
(dp583
g13
(dp584
I1
F1.240576
sI2
F-0.004894
sI3
F-0.472246
sI4
F0.635929
sI10
F1.0
ssbsg15
g0
(g16
g2
Ntp585
Rp586
(dp587
g15
I1
sbsba(ics475_types
Instance
p588
(dp589
g10
(ics475_types
FeatureVector
p590
(dp591
g13
(dp592
I1
F-0.431142
sI2
F1.654882
sI3
F1.68326
sI4
F0.063681
sI6
F1.0
ssbsg15
g0
(g16
g2
Ntp593
Rp594
(dp595
g15
I0
sbsba(ics475_types
Instance
p596
(dp597
g10
(ics475_types
FeatureVector
p598
(dp599
g13
(dp600
I1
F0.051214
sI2
F0.101539
sI3
F0.281183
sI4
F-0.461916
sI6
F1.0
ssbsg15
g0
(g16
g2
Ntp601
Rp602
(dp603
g15
I0
sbsba(ics475_types
Instance
p604
(dp605
g10
(ics475_types
FeatureVector
p606
(dp607
g13
(dp608
I8
F1.0
sI1
F0.38741
sI2
F0.427654
sI3
F0.080716
sI4
F-1.467708
ssbsg15
g0
(g16
g2
Ntp609
Rp610
(dp611
g15
I1
sbsba(ics475_types
Instance
p612
(dp613
g10
(ics475_types
FeatureVector
p614
(dp615
g13
(dp616
I1
F0.151256
sI2
F0.059664
sI3
F0.52191
sI4
F0.469326
sI9
F1.0
ssbsg15
g0
(g16
g2
Ntp617
Rp618
(dp619
g15
I1
sbsba(ics475_types
Instance
p620
(dp621
g10
(ics475_types
FeatureVector
p622
(dp623
g13
(dp624
I1
F0.613548
sI2
F1.308995
sI3
F0.016043
sI4
F1.345496
sI6
F1.0
ssbsg15
g0
(g16
g2
Ntp625
Rp626
(dp627
g15
I0
sbsba(ics475_types
Instance
p628
(dp629
g10
(ics475_types
FeatureVector
p630
(dp631
g13
(dp632
I1
F-0.125612
sI2
F0.260799
sI3
F0.827507
sI4
F-0.16008
sI10
F1.0
ssbsg15
g0
(g16
g2
Ntp633
Rp634
(dp635
g15
I1
sbsba(ics475_types
Instance
p636
(dp637
g10
(ics475_types
FeatureVector
p638
(dp639
g13
(dp640
I1
F-1.015719
sI2
F-0.331333
sI3
F-2.021435
sI4
F-1.293579
sI9
F1.0
ssbsg15
g0
(g16
g2
Ntp641
Rp642
(dp643
g15
I1
sbsba(ics475_types
Instance
p644
(dp645
g10
(ics475_types
FeatureVector
p646
(dp647
g13
(dp648
I1
F-0.006862
sI2
F-0.237362
sI3
F-0.426615
sI4
F-0.73806
sI5
F1.0
ssbsg15
g0
(g16
g2
Ntp649
Rp650
(dp651
g15
I0
sbsba(ics475_types
Instance
p652
(dp653
g10
(ics475_types
FeatureVector
p654
(dp655
g13
(dp656
I1
F0.712833
sI2
F-1.02485
sI3
F-0.210737
sI4
F-0.292823
sI10
F1.0
ssbsg15
g0
(g16
g2
Ntp657
Rp658
(dp659
g15
I1
sbsba(ics475_types
Instance
p660
(dp661
g10
(ics475_types
FeatureVector
p662
(dp663
g13
(dp664
I1
F-1.239852
sI2
F0.592939
sI3
F0.152115
sI4
F0.265873
sI5
F1.0
ssbsg15
g0
(g16
g2
Ntp665
Rp666
(dp667
g15
I0
sbsba(ics475_types
Instance
p668
(dp669
g10
(ics475_types
FeatureVector
p670
(dp671
g13
(dp672
I1
F1.31932
sI2
F1.224366
sI3
F-0.081596
sI4
F1.322069
sI10
F1.0
ssbsg15
g0
(g16
g2
Ntp673
Rp674
(dp675
g15
I1
sbsba(ics475_types
Instance
p676
(dp677
g10
(ics475_types
FeatureVector
p678
(dp679
g13
(dp680
I1
F-0.728193
sI2
F-2.104222
sI3
F1.122884
sI4
F0.102936
sI9
F1.0
ssbsg15
g0
(g16
g2
Ntp681
Rp682
(dp683
g15
I1
sbsba(ics475_types
Instance
p684
(dp685
g10
(ics475_types
FeatureVector
p686
(dp687
g13
(dp688
I1
F-0.548582
sI2
F-0.911485
sI3
F1.26088
sI4
F2.379509
sI6
F1.0
ssbsg15
g0
(g16
g2
Ntp689
Rp690
(dp691
g15
I0
sbsba(ics475_types
Instance
p692
(dp693
g10
(ics475_types
FeatureVector
p694
(dp695
g13
(dp696
I1
F0.129379
sI2
F-0.154126
sI3
F0.301425
sI4
F-0.096164
sI5
F1.0
ssbsg15
g0
(g16
g2
Ntp697
Rp698
(dp699
g15
I0
sbsba(ics475_types
Instance
p700
(dp701
g10
(ics475_types
FeatureVector
p702
(dp703
g13
(dp704
I1
F-0.021011
sI2
F0.989553
sI3
F1.339753
sI4
F-1.873161
sI10
F1.0
ssbsg15
g0
(g16
g2
Ntp705
Rp706
(dp707
g15
I1
sbsba(ics475_types
Instance
p708
(dp709
g10
(ics475_types
FeatureVector
p710
(dp711
g13
(dp712
I1
F-0.730743
sI2
F0.320144
sI3
F0.819797
sI4
F-1.005415
sI5
F1.0
ssbsg15
g0
(g16
g2
Ntp713
Rp714
(dp715
g15
I0
sbsba(ics475_types
Instance
p716
(dp717
g10
(ics475_types
FeatureVector
p718
(dp719
g13
(dp720
I1
F-0.001976
sI2
F0.224087
sI3
F-0.054452
sI4
F-0.208751
sI10
F1.0
ssbsg15
g0
(g16
g2
Ntp721
Rp722
(dp723
g15
I1
sbsba(ics475_types
Instance
p724
(dp725
g10
(ics475_types
FeatureVector
p726
(dp727
g13
(dp728
I8
F1.0
sI1
F-0.544142
sI2
F0.869207
sI3
F-1.440925
sI4
F-1.714905
ssbsg15
g0
(g16
g2
Ntp729
Rp730
(dp731
g15
I1
sbsba(ics475_types
Instance
p732
(dp733
g10
(ics475_types
FeatureVector
p734
(dp735
g13
(dp736
I1
F0.163382
sI2
F-0.444848
sI3
F-0.02072
sI4
F-1.101898
sI6
F1.0
ssbsg15
g0
(g16
g2
Ntp737
Rp738
(dp739
g15
I0
sbsba(ics475_types
Instance
p740
(dp741
g10
(ics475_types
FeatureVector
p742
(dp743
g13
(dp744
I1
F1.002426
sI2
F0.450205
sI3
F1.366856
sI4
F-1.766558
sI6
F1.0
ssbsg15
g0
(g16
g2
Ntp745
Rp746
(dp747
g15
I0
sbsba(ics475_types
Instance
p748
(dp749
g10
(ics475_types
FeatureVector
p750
(dp751
g13
(dp752
I1
F-1.044637
sI2
F0.923493
sI3
F-1.491276
sI4
F0.365047
sI5
F1.0
ssbsg15
g0
(g16
g2
Ntp753
Rp754
(dp755
g15
I0
sbsba(ics475_types
Instance
p756
(dp757
g10
(ics475_types
FeatureVector
p758
(dp759
g13
(dp760
I1
F-1.501294
sI2
F-1.904507
sI3
F-0.661203
sI4
F-0.413673
sI6
F1.0
ssbsg15
g0
(g16
g2
Ntp761
Rp762
(dp763
g15
I0
sbsba(ics475_types
Instance
p764
(dp765
g10
(ics475_types
FeatureVector
p766
(dp767
g13
(dp768
I8
F1.0
sI1
F0.986336
sI2
F-1.176534
sI3
F-0.206863
sI4
F-0.28222
ssbsg15
g0
(g16
g2
Ntp769
Rp770
(dp771
g15
I1
sbsba(ics475_types
Instance
p772
(dp773
g10
(ics475_types
FeatureVector
p774
(dp775
g13
(dp776
I8
F1.0
sI1
F0.963708
sI2
F0.374626
sI3
F1.862778
sI4
F-1.355717
ssbsg15
g0
(g16
g2
Ntp777
Rp778
(dp779
g15
I1
sbsba(ics475_types
Instance
p780
(dp781
g10
(ics475_types
FeatureVector
p782
(dp783
g13
(dp784
I1
F-0.247342
sI2
F-0.88087
sI3
F-0.80107
sI4
F-0.114619
sI6
F1.0
ssbsg15
g0
(g16
g2
Ntp785
Rp786
(dp787
g15
I0
sbsba(ics475_types
Instance
p788
(dp789
g10
(ics475_types
FeatureVector
p790
(dp791
g13
(dp792
I1
F-2.947869
sI2
F0.62213
sI3
F-0.018182
sI4
F0.15699
sI9
F1.0
ssbsg15
g0
(g16
g2
Ntp793
Rp794
(dp795
g15
I1
sbsba(ics475_types
Instance
p796
(dp797
g10
(ics475_types
FeatureVector
p798
(dp799
g13
(dp800
I1
F-0.268756
sI2
F0.247382
sI3
F1.46126
sI4
F-0.11659
sI9
F1.0
ssbsg15
g0
(g16
g2
Ntp801
Rp802
(dp803
g15
I1
sbsba(ics475_types
Instance
p804
(dp805
g10
(ics475_types
FeatureVector
p806
(dp807
g13
(dp808
I1
F0.523265
sI2
F0.360893
sI3
F-1.354115
sI4
F0.030045
sI5
F1.0
ssbsg15
g0
(g16
g2
Ntp809
Rp810
(dp811
g15
I0
sbsba(ics475_types
Instance
p812
(dp813
g10
(ics475_types
FeatureVector
p814
(dp815
g13
(dp816
I1
F0.131376
sI2
F-1.389573
sI3
F0.600257
sI4
F0.239211
sI9
F1.0
ssbsg15
g0
(g16
g2
Ntp817
Rp818
(dp819
g15
I1
sbsba(ics475_types
Instance
p820
(dp821
g10
(ics475_types
FeatureVector
p822
(dp823
g13
(dp824
I1
F-0.217012
sI2
F0.471333
sI3
F0.692048
sI4
F-1.356017
sI5
F1.0
ssbsg15
g0
(g16
g2
Ntp825
Rp826
(dp827
g15
I0
sbsba(ics475_types
Instance
p828
(dp829
g10
(ics475_types
FeatureVector
p830
(dp831
g13
(dp832
I8
F1.0
sI1
F-0.618658
sI2
F0.210652
sI3
F0.707887
sI4
F0.015018
ssbsg15
g0
(g16
g2
Ntp833
Rp834
(dp835
g15
I1
sbsba(ics475_types
Instance
p836
(dp837
g10
(ics475_types
FeatureVector
p838
(dp839
g13
(dp840
I1
F-0.279044
sI2
F-1.445255
sI3
F-0.259265
sI4
F-0.187915
sI7
F1.0
ssbsg15
g0
(g16
g2
Ntp841
Rp842
(dp843
g15
I0
sbsba(ics475_types
Instance
p844
(dp845
g10
(ics475_types
FeatureVector
p846
(dp847
g13
(dp848
I1
F-0.383355
sI2
F-0.216309
sI3
F-0.608664
sI4
F-1.196166
sI9
F1.0
ssbsg15
g0
(g16
g2
Ntp849
Rp850
(dp851
g15
I1
sbsba(ics475_types
Instance
p852
(dp853
g10
(ics475_types
FeatureVector
p854
(dp855
g13
(dp856
I8
F1.0
sI1
F0.102767
sI2
F0.878055
sI3
F1.130852
sI4
F-0.086804
ssbsg15
g0
(g16
g2
Ntp857
Rp858
(dp859
g15
I1
sbsba(ics475_types
Instance
p860
(dp861
g10
(ics475_types
FeatureVector
p862
(dp863
g13
(dp864
I8
F1.0
sI1
F0.424491
sI2
F1.219673
sI3
F2.576273
sI4
F-0.97018
ssbsg15
g0
(g16
g2
Ntp865
Rp866
(dp867
g15
I1
sbsba(ics475_types
Instance
p868
(dp869
g10
(ics475_types
FeatureVector
p870
(dp871
g13
(dp872
I8
F1.0
sI1
F-1.347136
sI2
F-1.44951
sI3
F0.984814
sI4
F-1.22168
ssbsg15
g0
(g16
g2
Ntp873
Rp874
(dp875
g15
I1
sbsba(ics475_types
Instance
p876
(dp877
g10
(ics475_types
FeatureVector
p878
(dp879
g13
(dp880
I1
F-0.417772
sI2
F2.704279
sI3
F0.949185
sI4
F1.475007
sI5
F1.0
ssbsg15
g0
(g16
g2
Ntp881
Rp882
(dp883
g15
I0
sbsba(ics475_types
Instance
p884
(dp885
g10
(ics475_types
FeatureVector
p886
(dp887
g13
(dp888
I1
F0.135769
sI2
F-0.896008
sI3
F0.266146
sI4
F0.21197
sI7
F1.0
ssbsg15
g0
(g16
g2
Ntp889
Rp890
(dp891
g15
I0
sbsba(ics475_types
Instance
p892
(dp893
g10
(ics475_types
FeatureVector
p894
(dp895
g13
(dp896
I8
F1.0
sI1
F0.640144
sI2
F0.293722
sI3
F0.136836
sI4
F1.019796
ssbsg15
g0
(g16
g2
Ntp897
Rp898
(dp899
g15
I1
sbsba(ics475_types
Instance
p900
(dp901
g10
(ics475_types
FeatureVector
p902
(dp903
g13
(dp904
I1
F0.629758
sI2
F0.973522
sI3
F0.455217
sI4
F-1.44088
sI7
F1.0
ssbsg15
g0
(g16
g2
Ntp905
Rp906
(dp907
g15
I0
sbsba(ics475_types
Instance
p908
(dp909
g10
(ics475_types
FeatureVector
p910
(dp911
g13
(dp912
I1
F-0.872942
sI2
F-0.169854
sI3
F-0.055218
sI4
F-0.880287
sI9
F1.0
ssbsg15
g0
(g16
g2
Ntp913
Rp914
(dp915
g15
I1
sbsba(ics475_types
Instance
p916
(dp917
g10
(ics475_types
FeatureVector
p918
(dp919
g13
(dp920
I1
F0.803744
sI2
F-0.755457
sI3
F1.022864
sI4
F1.634436
sI5
F1.0
ssbsg15
g0
(g16
g2
Ntp921
Rp922
(dp923
g15
I0
sbsba(ics475_types
Instance
p924
(dp925
g10
(ics475_types
FeatureVector
p926
(dp927
g13
(dp928
I1
F1.464787
sI2
F-1.182417
sI3
F0.846262
sI4
F1.191927
sI5
F1.0
ssbsg15
g0
(g16
g2
Ntp929
Rp930
(dp931
g15
I0
sbsba(ics475_types
Instance
p932
(dp933
g10
(ics475_types
FeatureVector
p934
(dp935
g13
(dp936
I1
F-2.627473
sI2
F-0.390938
sI3
F-1.184653
sI4
F0.039143
sI10
F1.0
ssbsg15
g0
(g16
g2
Ntp937
Rp938
(dp939
g15
I1
sbsba(ics475_types
Instance
p940
(dp941
g10
(ics475_types
FeatureVector
p942
(dp943
g13
(dp944
I1
F-0.782667
sI2
F-0.202711
sI3
F-0.559344
sI4
F-1.769814
sI6
F1.0
ssbsg15
g0
(g16
g2
Ntp945
Rp946
(dp947
g15
I0
sbsba(ics475_types
Instance
p948
(dp949
g10
(ics475_types
FeatureVector
p950
(dp951
g13
(dp952
I1
F0.586184
sI2
F0.155918
sI3
F-1.446672
sI4
F-0.207444
sI6
F1.0
ssbsg15
g0
(g16
g2
Ntp953
Rp954
(dp955
g15
I0
sbsba(ics475_types
Instance
p956
(dp957
g10
(ics475_types
FeatureVector
p958
(dp959
g13
(dp960
I1
F0.50607
sI2
F-0.241858
sI3
F0.332634
sI4
F1.022449
sI5
F1.0
ssbsg15
g0
(g16
g2
Ntp961
Rp962
(dp963
g15
I0
sbsba(ics475_types
Instance
p964
(dp965
g10
(ics475_types
FeatureVector
p966
(dp967
g13
(dp968
I8
F1.0
sI1
F-1.111977
sI2
F-0.205735
sI3
F-0.389579
sI4
F-0.178368
ssbsg15
g0
(g16
g2
Ntp969
Rp970
(dp971
g15
I1
sbsba(ics475_types
Instance
p972
(dp973
g10
(ics475_types
FeatureVector
p974
(dp975
g13
(dp976
I8
F1.0
sI1
F0.904383
sI2
F0.8023
sI3
F-0.320863
sI4
F-2.89908
ssbsg15
g0
(g16
g2
Ntp977
Rp978
(dp979
g15
I1
sbsba(ics475_types
Instance
p980
(dp981
g10
(ics475_types
FeatureVector
p982
(dp983
g13
(dp984
I8
F1.0
sI1
F0.982154
sI2
F-0.224903
sI3
F0.102708
sI4
F-0.459321
ssbsg15
g0
(g16
g2
Ntp985
Rp986
(dp987
g15
I1
sbsba(ics475_types
Instance
p988
(dp989
g10
(ics475_types
FeatureVector
p990
(dp991
g13
(dp992
I1
F0.52571
sI2
F-0.285837
sI3
F-0.675749
sI4
F0.58638
sI6
F1.0
ssbsg15
g0
(g16
g2
Ntp993
Rp994
(dp995
g15
I0
sbsba(ics475_types
Instance
p996
(dp997
g10
(ics475_types
FeatureVector
p998
(dp999
g13
(dp1000
I8
F1.0
sI1
F-0.158284
sI2
F-1.328792
sI3
F-0.6054
sI4
F0.192222
ssbsg15
g0
(g16
g2
Ntp1001
Rp1002
(dp1003
g15
I1
sbsba(ics475_types
Instance
p1004
(dp1005
g10
(ics475_types
FeatureVector
p1006
(dp1007
g13
(dp1008
I1
F-0.208541
sI2
F1.528418
sI3
F-1.761946
sI4
F0.747671
sI5
F1.0
ssbsg15
g0
(g16
g2
Ntp1009
Rp1010
(dp1011
g15
I0
sbsba(ics475_types
Instance
p1012
(dp1013
g10
(ics475_types
FeatureVector
p1014
(dp1015
g13
(dp1016
I1
F-0.475609
sI2
F-0.830729
sI3
F0.352499
sI4
F-0.566768
sI6
F1.0
ssbsg15
g0
(g16
g2
Ntp1017
Rp1018
(dp1019
g15
I0
sbsba(ics475_types
Instance
p1020
(dp1021
g10
(ics475_types
FeatureVector
p1022
(dp1023
g13
(dp1024
I1
F-1.167294
sI2
F-0.551809
sI3
F-0.240799
sI4
F-0.938808
sI5
F1.0
ssbsg15
g0
(g16
g2
Ntp1025
Rp1026
(dp1027
g15
I0
sbsba(ics475_types
Instance
p1028
(dp1029
g10
(ics475_types
FeatureVector
p1030
(dp1031
g13
(dp1032
I1
F-0.291314
sI2
F-1.104918
sI3
F0.483791
sI4
F1.259638
sI6
F1.0
ssbsg15
g0
(g16
g2
Ntp1033
Rp1034
(dp1035
g15
I0
sbsba(ics475_types
Instance
p1036
(dp1037
g10
(ics475_types
FeatureVector
p1038
(dp1039
g13
(dp1040
I8
F1.0
sI1
F1.594954
sI2
F-1.596691
sI3
F0.186158
sI4
F0.815733
ssbsg15
g0
(g16
g2
Ntp1041
Rp1042
(dp1043
g15
I1
sbsba(ics475_types
Instance
p1044
(dp1045
g10
(ics475_types
FeatureVector
p1046
(dp1047
g13
(dp1048
I8
F1.0
sI1
F1.240662
sI2
F-1.287038
sI3
F0.240102
sI4
F-1.443629
ssbsg15
g0
(g16
g2
Ntp1049
Rp1050
(dp1051
g15
I1
sbsba(ics475_types
Instance
p1052
(dp1053
g10
(ics475_types
FeatureVector
p1054
(dp1055
g13
(dp1056
I1
F0.397917
sI2
F-0.304143
sI3
F-0.040102
sI4
F0.725402
sI7
F1.0
ssbsg15
g0
(g16
g2
Ntp1057
Rp1058
(dp1059
g15
I0
sbsba(ics475_types
Instance
p1060
(dp1061
g10
(ics475_types
FeatureVector
p1062
(dp1063
g13
(dp1064
I1
F0.974772
sI2
F-0.471917
sI3
F2.553344
sI4
F0.138533
sI10
F1.0
ssbsg15
g0
(g16
g2
Ntp1065
Rp1066
(dp1067
g15
I1
sbsba(ics475_types
Instance
p1068
(dp1069
g10
(ics475_types
FeatureVector
p1070
(dp1071
g13
(dp1072
I1
F-0.165731
sI2
F-0.396448
sI3
F-0.089814
sI4
F1.24028
sI5
F1.0
ssbsg15
g0
(g16
g2
Ntp1073
Rp1074
(dp1075
g15
I0
sbsba(ics475_types
Instance
p1076
(dp1077
g10
(ics475_types
FeatureVector
p1078
(dp1079
g13
(dp1080
I1
F0.576273
sI2
F-1.774051
sI3
F1.069164
sI4
F-1.361492
sI5
F1.0
ssbsg15
g0
(g16
g2
Ntp1081
Rp1082
(dp1083
g15
I0
sbsba(ics475_types
Instance
p1084
(dp1085
g10
(ics475_types
FeatureVector
p1086
(dp1087
g13
(dp1088
I1
F-0.340699
sI2
F1.115615
sI3
F0.702169
sI4
F-2.65304
sI5
F1.0
ssbsg15
g0
(g16
g2
Ntp1089
Rp1090
(dp1091
g15
I0
sbsba(ics475_types
Instance
p1092
(dp1093
g10
(ics475_types
FeatureVector
p1094
(dp1095
g13
(dp1096
I8
F1.0
sI1
F0.640457
sI2
F-0.178488
sI3
F-1.600808
sI4
F-2.5275
ssbsg15
g0
(g16
g2
Ntp1097
Rp1098
(dp1099
g15
I1
sbsba(ics475_types
Instance
p1100
(dp1101
g10
(ics475_types
FeatureVector
p1102
(dp1103
g13
(dp1104
I1
F2.332635
sI2
F0.626371
sI3
F1.708211
sI4
F1.067757
sI9
F1.0
ssbsg15
g0
(g16
g2
Ntp1105
Rp1106
(dp1107
g15
I1
sbsba(ics475_types
Instance
p1108
(dp1109
g10
(ics475_types
FeatureVector
p1110
(dp1111
g13
(dp1112
I1
F1.621286
sI2
F-1.700282
sI3
F-0.331407
sI4
F0.006724
sI9
F1.0
ssbsg15
g0
(g16
g2
Ntp1113
Rp1114
(dp1115
g15
I1
sbsba(ics475_types
Instance
p1116
(dp1117
g10
(ics475_types
FeatureVector
p1118
(dp1119
g13
(dp1120
I1
F-0.106299
sI2
F-0.912201
sI3
F-0.222997
sI4
F0.495154
sI5
F1.0
ssbsg15
g0
(g16
g2
Ntp1121
Rp1122
(dp1123
g15
I0
sbsba(ics475_types
Instance
p1124
(dp1125
g10
(ics475_types
FeatureVector
p1126
(dp1127
g13
(dp1128
I1
F-1.559113
sI2
F0.082962
sI3
F0.329576
sI4
F-0.841297
sI10
F1.0
ssbsg15
g0
(g16
g2
Ntp1129
Rp1130
(dp1131
g15
I1
sbsba(ics475_types
Instance
p1132
(dp1133
g10
(ics475_types
FeatureVector
p1134
(dp1135
g13
(dp1136
I1
F-0.330647
sI2
F-0.322335
sI3
F-0.121836
sI4
F-2.202797
sI5
F1.0
ssbsg15
g0
(g16
g2
Ntp1137
Rp1138
(dp1139
g15
I0
sbsba(ics475_types
Instance
p1140
(dp1141
g10
(ics475_types
FeatureVector
p1142
(dp1143
g13
(dp1144
I1
F0.651159
sI2
F1.386347
sI3
F0.917619
sI4
F0.805583
sI7
F1.0
ssbsg15
g0
(g16
g2
Ntp1145
Rp1146
(dp1147
g15
I0
sbsba(ics475_types
Instance
p1148
(dp1149
g10
(ics475_types
FeatureVector
p1150
(dp1151
g13
(dp1152
I1
F-1.276657
sI2
F1.160312
sI3
F-0.855412
sI4
F-0.276727
sI9
F1.0
ssbsg15
g0
(g16
g2
Ntp1153
Rp1154
(dp1155
g15
I1
sbsba(ics475_types
Instance
p1156
(dp1157
g10
(ics475_types
FeatureVector
p1158
(dp1159
g13
(dp1160
I1
F-0.404909
sI2
F-0.345605
sI3
F-0.660765
sI4
F-0.377884
sI5
F1.0
ssbsg15
g0
(g16
g2
Ntp1161
Rp1162
(dp1163
g15
I0
sbsba(ics475_types
Instance
p1164
(dp1165
g10
(ics475_types
FeatureVector
p1166
(dp1167
g13
(dp1168
I1
F0.723343
sI2
F-0.991233
sI3
F-0.631951
sI4
F-1.293252
sI9
F1.0
ssbsg15
g0
(g16
g2
Ntp1169
Rp1170
(dp1171
g15
I1
sbsba(ics475_types
Instance
p1172
(dp1173
g10
(ics475_types
FeatureVector
p1174
(dp1175
g13
(dp1176
I1
F0.695834
sI2
F-0.599129
sI3
F0.273819
sI4
F1.059211
sI9
F1.0
ssbsg15
g0
(g16
g2
Ntp1177
Rp1178
(dp1179
g15
I1
sbsba(ics475_types
Instance
p1180
(dp1181
g10
(ics475_types
FeatureVector
p1182
(dp1183
g13
(dp1184
I1
F1.187242
sI2
F0.544782
sI3
F0.15338
sI4
F0.621412
sI10
F1.0
ssbsg15
g0
(g16
g2
Ntp1185
Rp1186
(dp1187
g15
I1
sbsba(ics475_types
Instance
p1188
(dp1189
g10
(ics475_types
FeatureVector
p1190
(dp1191
g13
(dp1192
I1
F-0.590425
sI2
F0.022411
sI3
F1.325755
sI4
F0.147727
sI5
F1.0
ssbsg15
g0
(g16
g2
Ntp1193
Rp1194
(dp1195
g15
I0
sbsba(ics475_types
Instance
p1196
(dp1197
g10
(ics475_types
FeatureVector
p1198
(dp1199
g13
(dp1200
I1
F0.726874
sI2
F-0.204535
sI3
F0.559018
sI4
F-0.906986
sI10
F1.0
ssbsg15
g0
(g16
g2
Ntp1201
Rp1202
(dp1203
g15
I1
sbsba(ics475_types
Instance
p1204
(dp1205
g10
(ics475_types
FeatureVector
p1206
(dp1207
g13
(dp1208
I1
F0.733658
sI2
F0.221602
sI3
F1.231533
sI4
F0.003393
sI9
F1.0
ssbsg15
g0
(g16
g2
Ntp1209
Rp1210
(dp1211
g15
I1
sbsba(ics475_types
Instance
p1212
(dp1213
g10
(ics475_types
FeatureVector
p1214
(dp1215
g13
(dp1216
I1
F-1.644417
sI2
F0.180978
sI3
F0.209157
sI4
F-0.264099
sI5
F1.0
ssbsg15
g0
(g16
g2
Ntp1217
Rp1218
(dp1219
g15
I0
sbsba(ics475_types
Instance
p1220
(dp1221
g10
(ics475_types
FeatureVector
p1222
(dp1223
g13
(dp1224
I1
F1.30995
sI2
F-0.372274
sI3
F0.204259
sI4
F-0.963716
sI6
F1.0
ssbsg15
g0
(g16
g2
Ntp1225
Rp1226
(dp1227
g15
I0
sbsba(ics475_types
Instance
p1228
(dp1229
g10
(ics475_types
FeatureVector
p1230
(dp1231
g13
(dp1232
I1
F-0.191326
sI2
F-1.236839
sI3
F-1.988005
sI4
F-1.209113
sI7
F1.0
ssbsg15
g0
(g16
g2
Ntp1233
Rp1234
(dp1235
g15
I0
sbsba(ics475_types
Instance
p1236
(dp1237
g10
(ics475_types
FeatureVector
p1238
(dp1239
g13
(dp1240
I1
F0.017053
sI2
F-1.894227
sI3
F-0.15142
sI4
F-0.339721
sI10
F1.0
ssbsg15
g0
(g16
g2
Ntp1241
Rp1242
(dp1243
g15
I1
sbsba(ics475_types
Instance
p1244
(dp1245
g10
(ics475_types
FeatureVector
p1246
(dp1247
g13
(dp1248
I8
F1.0
sI1
F0.959783
sI2
F-0.793376
sI3
F0.8465
sI4
F0.107971
ssbsg15
g0
(g16
g2
Ntp1249
Rp1250
(dp1251
g15
I1
sbsba(ics475_types
Instance
p1252
(dp1253
g10
(ics475_types
FeatureVector
p1254
(dp1255
g13
(dp1256
I1
F2.12797
sI2
F-1.481124
sI3
F0.690947
sI4
F1.090855
sI5
F1.0
ssbsg15
g0
(g16
g2
Ntp1257
Rp1258
(dp1259
g15
I0
sbsba(ics475_types
Instance
p1260
(dp1261
g10
(ics475_types
FeatureVector
p1262
(dp1263
g13
(dp1264
I1
F-1.102221
sI2
F0.433403
sI3
F0.298028
sI4
F-0.764742
sI7
F1.0
ssbsg15
g0
(g16
g2
Ntp1265
Rp1266
(dp1267
g15
I0
sbsba(ics475_types
Instance
p1268
(dp1269
g10
(ics475_types
FeatureVector
p1270
(dp1271
g13
(dp1272
I1
F-0.560621
sI2
F-1.234693
sI3
F-0.649647
sI4
F0.026772
sI10
F1.0
ssbsg15
g0
(g16
g2
Ntp1273
Rp1274
(dp1275
g15
I1
sbsba(ics475_types
Instance
p1276
(dp1277
g10
(ics475_types
FeatureVector
p1278
(dp1279
g13
(dp1280
I1
F0.895505
sI2
F0.768354
sI3
F1.336372
sI4
F-0.765539
sI9
F1.0
ssbsg15
g0
(g16
g2
Ntp1281
Rp1282
(dp1283
g15
I1
sbsba(ics475_types
Instance
p1284
(dp1285
g10
(ics475_types
FeatureVector
p1286
(dp1287
g13
(dp1288
I1
F0.320723
sI2
F-0.635066
sI3
F1.351866
sI4
F0.496087
sI5
F1.0
ssbsg15
g0
(g16
g2
Ntp1289
Rp1290
(dp1291
g15
I0
sbsba(ics475_types
Instance
p1292
(dp1293
g10
(ics475_types
FeatureVector
p1294
(dp1295
g13
(dp1296
I1
F-0.797135
sI2
F-0.698759
sI3
F0.688113
sI4
F-0.627621
sI7
F1.0
ssbsg15
g0
(g16
g2
Ntp1297
Rp1298
(dp1299
g15
I0
sbsba(ics475_types
Instance
p1300
(dp1301
g10
(ics475_types
FeatureVector
p1302
(dp1303
g13
(dp1304
I1
F0.507953
sI2
F-0.227934
sI3
F1.123669
sI4
F-1.577578
sI7
F1.0
ssbsg15
g0
(g16
g2
Ntp1305
Rp1306
(dp1307
g15
I0
sbsba(ics475_types
Instance
p1308
(dp1309
g10
(ics475_types
FeatureVector
p1310
(dp1311
g13
(dp1312
I8
F1.0
sI1
F1.400342
sI2
F1.452149
sI3
F-0.087482
sI4
F-2.37872
ssbsg15
g0
(g16
g2
Ntp1313
Rp1314
(dp1315
g15
I1
sbsba(ics475_types
Instance
p1316
(dp1317
g10
(ics475_types
FeatureVector
p1318
(dp1319
g13
(dp1320
I1
F-0.80538
sI2
F-0.87066
sI3
F-0.874105
sI4
F0.162689
sI6
F1.0
ssbsg15
g0
(g16
g2
Ntp1321
Rp1322
(dp1323
g15
I0
sbsba(ics475_types
Instance
p1324
(dp1325
g10
(ics475_types
FeatureVector
p1326
(dp1327
g13
(dp1328
I1
F-0.831721
sI2
F-0.814811
sI3
F-0.081434
sI4
F-3.501696
sI10
F1.0
ssbsg15
g0
(g16
g2
Ntp1329
Rp1330
(dp1331
g15
I1
sbsba(ics475_types
Instance
p1332
(dp1333
g10
(ics475_types
FeatureVector
p1334
(dp1335
g13
(dp1336
I1
F-1.489798
sI2
F-0.88836
sI3
F0.032405
sI4
F0.09315
sI9
F1.0
ssbsg15
g0
(g16
g2
Ntp1337
Rp1338
(dp1339
g15
I1
sbsba(ics475_types
Instance
p1340
(dp1341
g10
(ics475_types
FeatureVector
p1342
(dp1343
g13
(dp1344
I1
F0.342348
sI2
F-1.121041
sI3
F0.816075
sI4
F-1.24377
sI10
F1.0
ssbsg15
g0
(g16
g2
Ntp1345
Rp1346
(dp1347
g15
I1
sbsba(ics475_types
Instance
p1348
(dp1349
g10
(ics475_types
FeatureVector
p1350
(dp1351
g13
(dp1352
I1
F-0.316651
sI2
F-0.764059
sI3
F-0.851549
sI4
F1.091748
sI10
F1.0
ssbsg15
g0
(g16
g2
Ntp1353
Rp1354
(dp1355
g15
I1
sbsba(ics475_types
Instance
p1356
(dp1357
g10
(ics475_types
FeatureVector
p1358
(dp1359
g13
(dp1360
I1
F-0.512984
sI2
F1.111058
sI3
F0.658498
sI4
F-1.660834
sI10
F1.0
ssbsg15
g0
(g16
g2
Ntp1361
Rp1362
(dp1363
g15
I1
sbsba(ics475_types
Instance
p1364
(dp1365
g10
(ics475_types
FeatureVector
p1366
(dp1367
g13
(dp1368
I1
F0.609858
sI2
F0.697341
sI3
F2.547094
sI4
F-0.482559
sI6
F1.0
ssbsg15
g0
(g16
g2
Ntp1369
Rp1370
(dp1371
g15
I0
sbsba(ics475_types
Instance
p1372
(dp1373
g10
(ics475_types
FeatureVector
p1374
(dp1375
g13
(dp1376
I1
F0.156073
sI2
F0.713409
sI3
F1.565094
sI4
F-0.526949
sI7
F1.0
ssbsg15
g0
(g16
g2
Ntp1377
Rp1378
(dp1379
g15
I0
sbsba(ics475_types
Instance
p1380
(dp1381
g10
(ics475_types
FeatureVector
p1382
(dp1383
g13
(dp1384
I1
F0.68434
sI2
F0.446802
sI3
F-1.178806
sI4
F-0.4257
sI5
F1.0
ssbsg15
g0
(g16
g2
Ntp1385
Rp1386
(dp1387
g15
I0
sbsba(ics475_types
Instance
p1388
(dp1389
g10
(ics475_types
FeatureVector
p1390
(dp1391
g13
(dp1392
I1
F0.801928
sI2
F-1.421621
sI3
F0.523145
sI4
F-0.354782
sI7
F1.0
ssbsg15
g0
(g16
g2
Ntp1393
Rp1394
(dp1395
g15
I0
sbsba(ics475_types
Instance
p1396
(dp1397
g10
(ics475_types
FeatureVector
p1398
(dp1399
g13
(dp1400
I1
F-0.913499
sI2
F-0.778756
sI3
F1.289167
sI4
F1.388172
sI9
F1.0
ssbsg15
g0
(g16
g2
Ntp1401
Rp1402
(dp1403
g15
I1
sbsba(ics475_types
Instance
p1404
(dp1405
g10
(ics475_types
FeatureVector
p1406
(dp1407
g13
(dp1408
I1
F0.514932
sI2
F-0.022757
sI3
F0.258215
sI4
F-0.07297
sI10
F1.0
ssbsg15
g0
(g16
g2
Ntp1409
Rp1410
(dp1411
g15
I1
sbsba(ics475_types
Instance
p1412
(dp1413
g10
(ics475_types
FeatureVector
p1414
(dp1415
g13
(dp1416
I1
F0.796769
sI2
F-2.006135
sI3
F0.547001
sI4
F0.23404
sI7
F1.0
ssbsg15
g0
(g16
g2
Ntp1417
Rp1418
(dp1419
g15
I0
sbsba(ics475_types
Instance
p1420
(dp1421
g10
(ics475_types
FeatureVector
p1422
(dp1423
g13
(dp1424
I1
F1.087324
sI2
F0.95416
sI3
F0.573513
sI4
F-0.315166
sI6
F1.0
ssbsg15
g0
(g16
g2
Ntp1425
Rp1426
(dp1427
g15
I0
sbsba(ics475_types
Instance
p1428
(dp1429
g10
(ics475_types
FeatureVector
p1430
(dp1431
g13
(dp1432
I8
F1.0
sI1
F-1.418195
sI2
F-0.778291
sI3
F-0.122967
sI4
F-0.766089
ssbsg15
g0
(g16
g2
Ntp1433
Rp1434
(dp1435
g15
I1
sbsba(ics475_types
Instance
p1436
(dp1437
g10
(ics475_types
FeatureVector
p1438
(dp1439
g13
(dp1440
I1
F0.257576
sI2
F1.007774
sI3
F-2.423144
sI4
F2.882562
sI9
F1.0
ssbsg15
g0
(g16
g2
Ntp1441
Rp1442
(dp1443
g15
I1
sbsba(ics475_types
Instance
p1444
(dp1445
g10
(ics475_types
FeatureVector
p1446
(dp1447
g13
(dp1448
I1
F1.314715
sI2
F-0.257642
sI3
F1.679164
sI4
F-1.185908
sI7
F1.0
ssbsg15
g0
(g16
g2
Ntp1449
Rp1450
(dp1451
g15
I0
sbsba(ics475_types
Instance
p1452
(dp1453
g10
(ics475_types
FeatureVector
p1454
(dp1455
g13
(dp1456
I1
F-0.43367
sI2
F-1.405086
sI3
F-1.122769
sI4
F0.040189
sI6
F1.0
ssbsg15
g0
(g16
g2
Ntp1457
Rp1458
(dp1459
g15
I0
sbsba(ics475_types
Instance
p1460
(dp1461
g10
(ics475_types
FeatureVector
p1462
(dp1463
g13
(dp1464
I1
F0.1146
sI2
F-2.896597
sI3
F-0.103678
sI4
F-2.333352
sI10
F1.0
ssbsg15
g0
(g16
g2
Ntp1465
Rp1466
(dp1467
g15
I1
sbsba(ics475_types
Instance
p1468
(dp1469
g10
(ics475_types
FeatureVector
p1470
(dp1471
g13
(dp1472
I1
F1.766397
sI2
F1.107904
sI3
F1.416664
sI4
F-0.454478
sI10
F1.0
ssbsg15
g0
(g16
g2
Ntp1473
Rp1474
(dp1475
g15
I1
sbsba(ics475_types
Instance
p1476
(dp1477
g10
(ics475_types
FeatureVector
p1478
(dp1479
g13
(dp1480
I8
F1.0
sI1
F1.235233
sI2
F-0.87008
sI3
F-0.918153
sI4
F-1.077804
ssbsg15
g0
(g16
g2
Ntp1481
Rp1482
(dp1483
g15
I1
sbsba(ics475_types
Instance
p1484
(dp1485
g10
(ics475_types
FeatureVector
p1486
(dp1487
g13
(dp1488
I1
F-1.621232
sI2
F-1.883563
sI3
F-1.821869
sI4
F-0.376404
sI5
F1.0
ssbsg15
g0
(g16
g2
Ntp1489
Rp1490
(dp1491
g15
I0
sbsba(ics475_types
Instance
p1492
(dp1493
g10
(ics475_types
FeatureVector
p1494
(dp1495
g13
(dp1496
I1
F-0.47762
sI2
F-1.204889
sI3
F0.025986
sI4
F-0.00198
sI6
F1.0
ssbsg15
g0
(g16
g2
Ntp1497
Rp1498
(dp1499
g15
I0
sbsba(ics475_types
Instance
p1500
(dp1501
g10
(ics475_types
FeatureVector
p1502
(dp1503
g13
(dp1504
I8
F1.0
sI1
F-1.316401
sI2
F-0.050796
sI3
F-1.33539
sI4
F-0.286538
ssbsg15
g0
(g16
g2
Ntp1505
Rp1506
(dp1507
g15
I1
sbsba(ics475_types
Instance
p1508
(dp1509
g10
(ics475_types
FeatureVector
p1510
(dp1511
g13
(dp1512
I1
F-0.079259
sI2
F1.075247
sI3
F1.201708
sI4
F1.17537
sI6
F1.0
ssbsg15
g0
(g16
g2
Ntp1513
Rp1514
(dp1515
g15
I0
sbsba(ics475_types
Instance
p1516
(dp1517
g10
(ics475_types
FeatureVector
p1518
(dp1519
g13
(dp1520
I1
F-0.782367
sI2
F2.289992
sI3
F-0.529328
sI4
F-0.754979
sI7
F1.0
ssbsg15
g0
(g16
g2
Ntp1521
Rp1522
(dp1523
g15
I0
sbsba(ics475_types
Instance
p1524
(dp1525
g10
(ics475_types
FeatureVector
p1526
(dp1527
g13
(dp1528
I8
F1.0
sI1
F0.609685
sI2
F1.097271
sI3
F0.34417
sI4
F0.212378
ssbsg15
g0
(g16
g2
Ntp1529
Rp1530
(dp1531
g15
I1
sbsba(ics475_types
Instance
p1532
(dp1533
g10
(ics475_types
FeatureVector
p1534
(dp1535
g13
(dp1536
I1
F-0.565021
sI2
F1.001786
sI3
F1.408456
sI4
F-0.412576
sI9
F1.0
ssbsg15
g0
(g16
g2
Ntp1537
Rp1538
(dp1539
g15
I1
sbsba(ics475_types
Instance
p1540
(dp1541
g10
(ics475_types
FeatureVector
p1542
(dp1543
g13
(dp1544
I1
F1.476503
sI2
F-0.881059
sI3
F-0.661218
sI4
F0.026039
sI6
F1.0
ssbsg15
g0
(g16
g2
Ntp1545
Rp1546
(dp1547
g15
I0
sbsba(ics475_types
Instance
p1548
(dp1549
g10
(ics475_types
FeatureVector
p1550
(dp1551
g13
(dp1552
I8
F1.0
sI1
F-0.444356
sI2
F-0.306404
sI3
F1.519153
sI4
F-1.954077
ssbsg15
g0
(g16
g2
Ntp1553
Rp1554
(dp1555
g15
I1
sbsba(ics475_types
Instance
p1556
(dp1557
g10
(ics475_types
FeatureVector
p1558
(dp1559
g13
(dp1560
I1
F-1.495855
sI2
F-0.436639
sI3
F-1.882818
sI4
F-0.722699
sI6
F1.0
ssbsg15
g0
(g16
g2
Ntp1561
Rp1562
(dp1563
g15
I0
sbsba(ics475_types
Instance
p1564
(dp1565
g10
(ics475_types
FeatureVector
p1566
(dp1567
g13
(dp1568
I8
F1.0
sI1
F-0.016377
sI2
F0.852804
sI3
F0.846253
sI4
F1.130285
ssbsg15
g0
(g16
g2
Ntp1569
Rp1570
(dp1571
g15
I1
sbsba(ics475_types
Instance
p1572
(dp1573
g10
(ics475_types
FeatureVector
p1574
(dp1575
g13
(dp1576
I1
F-0.950756
sI2
F1.237677
sI3
F-0.019058
sI4
F0.106324
sI9
F1.0
ssbsg15
g0
(g16
g2
Ntp1577
Rp1578
(dp1579
g15
I1
sbsba(ics475_types
Instance
p1580
(dp1581
g10
(ics475_types
FeatureVector
p1582
(dp1583
g13
(dp1584
I1
F-0.434735
sI2
F0.070619
sI3
F0.324157
sI4
F-0.86999
sI10
F1.0
ssbsg15
g0
(g16
g2
Ntp1585
Rp1586
(dp1587
g15
I1
sbsba(ics475_types
Instance
p1588
(dp1589
g10
(ics475_types
FeatureVector
p1590
(dp1591
g13
(dp1592
I8
F1.0
sI1
F1.20661
sI2
F-0.462466
sI3
F-0.159122
sI4
F0.447763
ssbsg15
g0
(g16
g2
Ntp1593
Rp1594
(dp1595
g15
I1
sbsba(ics475_types
Instance
p1596
(dp1597
g10
(ics475_types
FeatureVector
p1598
(dp1599
g13
(dp1600
I1
F-0.209954
sI2
F-0.73342
sI3
F-0.794551
sI4
F0.008351
sI5
F1.0
ssbsg15
g0
(g16
g2
Ntp1601
Rp1602
(dp1603
g15
I0
sbsba(ics475_types
Instance
p1604
(dp1605
g10
(ics475_types
FeatureVector
p1606
(dp1607
g13
(dp1608
I8
F1.0
sI1
F-0.733764
sI2
F0.600284
sI3
F-0.807463
sI4
F-0.050248
ssbsg15
g0
(g16
g2
Ntp1609
Rp1610
(dp1611
g15
I1
sbsba(ics475_types
Instance
p1612
(dp1613
g10
(ics475_types
FeatureVector
p1614
(dp1615
g13
(dp1616
I1
F-1.735254
sI2
F1.022202
sI3
F-0.014632
sI4
F0.202064
sI7
F1.0
ssbsg15
g0
(g16
g2
Ntp1617
Rp1618
(dp1619
g15
I0
sbsba(ics475_types
Instance
p1620
(dp1621
g10
(ics475_types
FeatureVector
p1622
(dp1623
g13
(dp1624
I1
F0.546598
sI2
F0.883519
sI3
F0.506709
sI4
F0.605686
sI10
F1.0
ssbsg15
g0
(g16
g2
Ntp1625
Rp1626
(dp1627
g15
I1
sbsba(ics475_types
Instance
p1628
(dp1629
g10
(ics475_types
FeatureVector
p1630
(dp1631
g13
(dp1632
I1
F0.562537
sI2
F-1.260238
sI3
F-0.512703
sI4
F-0.834192
sI10
F1.0
ssbsg15
g0
(g16
g2
Ntp1633
Rp1634
(dp1635
g15
I1
sbsba(ics475_types
Instance
p1636
(dp1637
g10
(ics475_types
FeatureVector
p1638
(dp1639
g13
(dp1640
I1
F0.117663
sI2
F-1.107386
sI3
F0.999763
sI4
F-0.460933
sI10
F1.0
ssbsg15
g0
(g16
g2
Ntp1641
Rp1642
(dp1643
g15
I1
sbsba(ics475_types
Instance
p1644
(dp1645
g10
(ics475_types
FeatureVector
p1646
(dp1647
g13
(dp1648
I1
F-1.412377
sI2
F-0.393376
sI3
F-0.856765
sI4
F-0.545746
sI9
F1.0
ssbsg15
g0
(g16
g2
Ntp1649
Rp1650
(dp1651
g15
I1
sbsba(ics475_types
Instance
p1652
(dp1653
g10
(ics475_types
FeatureVector
p1654
(dp1655
g13
(dp1656
I1
F-0.831074
sI2
F1.769307
sI3
F0.196756
sI4
F0.358776
sI5
F1.0
ssbsg15
g0
(g16
g2
Ntp1657
Rp1658
(dp1659
g15
I0
sbsba(ics475_types
Instance
p1660
(dp1661
g10
(ics475_types
FeatureVector
p1662
(dp1663
g13
(dp1664
I8
F1.0
sI1
F0.009975
sI2
F1.212179
sI3
F0.387539
sI4
F0.492292
ssbsg15
g0
(g16
g2
Ntp1665
Rp1666
(dp1667
g15
I1
sbsba(ics475_types
Instance
p1668
(dp1669
g10
(ics475_types
FeatureVector
p1670
(dp1671
g13
(dp1672
I1
F0.239211
sI2
F0.563245
sI3
F-0.650799
sI4
F-0.18933
sI7
F1.0
ssbsg15
g0
(g16
g2
Ntp1673
Rp1674
(dp1675
g15
I0
sbsba(ics475_types
Instance
p1676
(dp1677
g10
(ics475_types
FeatureVector
p1678
(dp1679
g13
(dp1680
I1
F1.465066
sI2
F-0.511211
sI3
F-1.031867
sI4
F-0.967066
sI6
F1.0
ssbsg15
g0
(g16
g2
Ntp1681
Rp1682
(dp1683
g15
I0
sbsba(ics475_types
Instance
p1684
(dp1685
g10
(ics475_types
FeatureVector
p1686
(dp1687
g13
(dp1688
I1
F0.261315
sI2
F1.305191
sI3
F0.76311
sI4
F-0.059457
sI7
F1.0
ssbsg15
g0
(g16
g2
Ntp1689
Rp1690
(dp1691
g15
I0
sbsba(ics475_types
Instance
p1692
(dp1693
g10
(ics475_types
FeatureVector
p1694
(dp1695
g13
(dp1696
I1
F0.155217
sI2
F0.661366
sI3
F-0.771923
sI4
F-1.672133
sI10
F1.0
ssbsg15
g0
(g16
g2
Ntp1697
Rp1698
(dp1699
g15
I1
sbsba(ics475_types
Instance
p1700
(dp1701
g10
(ics475_types
FeatureVector
p1702
(dp1703
g13
(dp1704
I1
F1.139378
sI2
F-1.39547
sI3
F2.14858
sI4
F-0.543076
sI6
F1.0
ssbsg15
g0
(g16
g2
Ntp1705
Rp1706
(dp1707
g15
I0
sbsba(ics475_types
Instance
p1708
(dp1709
g10
(ics475_types
FeatureVector
p1710
(dp1711
g13
(dp1712
I1
F-0.734545
sI2
F-0.341365
sI3
F0.576011
sI4
F0.548777
sI7
F1.0
ssbsg15
g0
(g16
g2
Ntp1713
Rp1714
(dp1715
g15
I0
sbsba(ics475_types
Instance
p1716
(dp1717
g10
(ics475_types
FeatureVector
p1718
(dp1719
g13
(dp1720
I1
F0.257541
sI2
F-0.809294
sI3
F-1.048714
sI4
F0.644371
sI10
F1.0
ssbsg15
g0
(g16
g2
Ntp1721
Rp1722
(dp1723
g15
I1
sbsba(ics475_types
Instance
p1724
(dp1725
g10
(ics475_types
FeatureVector
p1726
(dp1727
g13
(dp1728
I1
F0.591161
sI2
F-0.040239
sI3
F0.434235
sI4
F-0.257194
sI9
F1.0
ssbsg15
g0
(g16
g2
Ntp1729
Rp1730
(dp1731
g15
I1
sbsba(ics475_types
Instance
p1732
(dp1733
g10
(ics475_types
FeatureVector
p1734
(dp1735
g13
(dp1736
I8
F1.0
sI1
F-0.150731
sI2
F-0.608481
sI3
F-0.192414
sI4
F0.431339
ssbsg15
g0
(g16
g2
Ntp1737
Rp1738
(dp1739
g15
I1
sbsba(ics475_types
Instance
p1740
(dp1741
g10
(ics475_types
FeatureVector
p1742
(dp1743
g13
(dp1744
I1
F1.303735
sI2
F0.017788
sI3
F0.571434
sI4
F0.908662
sI9
F1.0
ssbsg15
g0
(g16
g2
Ntp1745
Rp1746
(dp1747
g15
I1
sbsba(ics475_types
Instance
p1748
(dp1749
g10
(ics475_types
FeatureVector
p1750
(dp1751
g13
(dp1752
I1
F-1.721939
sI2
F1.413522
sI3
F0.122281
sI4
F1.160229
sI6
F1.0
ssbsg15
g0
(g16
g2
Ntp1753
Rp1754
(dp1755
g15
I0
sbsba(ics475_types
Instance
p1756
(dp1757
g10
(ics475_types
FeatureVector
p1758
(dp1759
g13
(dp1760
I1
F0.298621
sI2
F-1.537645
sI3
F0.931671
sI4
F0.850216
sI6
F1.0
ssbsg15
g0
(g16
g2
Ntp1761
Rp1762
(dp1763
g15
I0
sbsba(ics475_types
Instance
p1764
(dp1765
g10
(ics475_types
FeatureVector
p1766
(dp1767
g13
(dp1768
I8
F1.0
sI1
F0.480018
sI2
F-1.029133
sI3
F-0.237653
sI4
F-1.174898
ssbsg15
g0
(g16
g2
Ntp1769
Rp1770
(dp1771
g15
I1
sbsba(ics475_types
Instance
p1772
(dp1773
g10
(ics475_types
FeatureVector
p1774
(dp1775
g13
(dp1776
I1
F1.738012
sI2
F-1.059087
sI3
F-1.194669
sI4
F0.480908
sI9
F1.0
ssbsg15
g0
(g16
g2
Ntp1777
Rp1778
(dp1779
g15
I1
sbsba(ics475_types
Instance
p1780
(dp1781
g10
(ics475_types
FeatureVector
p1782
(dp1783
g13
(dp1784
I1
F-2.605002
sI2
F0.344588
sI3
F-1.035871
sI4
F1.261809
sI6
F1.0
ssbsg15
g0
(g16
g2
Ntp1785
Rp1786
(dp1787
g15
I0
sbsba(ics475_types
Instance
p1788
(dp1789
g10
(ics475_types
FeatureVector
p1790
(dp1791
g13
(dp1792
I1
F0.321046
sI2
F-0.695034
sI3
F-0.061
sI4
F-0.746072
sI10
F1.0
ssbsg15
g0
(g16
g2
Ntp1793
Rp1794
(dp1795
g15
I1
sbsba(ics475_types
Instance
p1796
(dp1797
g10
(ics475_types
FeatureVector
p1798
(dp1799
g13
(dp1800
I1
F1.67688
sI2
F-1.807351
sI3
F3.564788
sI4
F1.805686
sI5
F1.0
ssbsg15
g0
(g16
g2
Ntp1801
Rp1802
(dp1803
g15
I0
sbsba(ics475_types
Instance
p1804
(dp1805
g10
(ics475_types
FeatureVector
p1806
(dp1807
g13
(dp1808
I1
F-0.416091
sI2
F-0.006512
sI3
F0.814302
sI4
F1.224519
sI6
F1.0
ssbsg15
g0
(g16
g2
Ntp1809
Rp1810
(dp1811
g15
I0
sbsba(ics475_types
Instance
p1812
(dp1813
g10
(ics475_types
FeatureVector
p1814
(dp1815
g13
(dp1816
I1
F-0.199222
sI2
F-1.562438
sI3
F-0.149824
sI4
F-0.206056
sI10
F1.0
ssbsg15
g0
(g16
g2
Ntp1817
Rp1818
(dp1819
g15
I1
sbsba(ics475_types
Instance
p1820
(dp1821
g10
(ics475_types
FeatureVector
p1822
(dp1823
g13
(dp1824
I1
F0.436799
sI2
F0.54177
sI3
F0.34716
sI4
F0.048225
sI5
F1.0
ssbsg15
g0
(g16
g2
Ntp1825
Rp1826
(dp1827
g15
I0
sbsba(ics475_types
Instance
p1828
(dp1829
g10
(ics475_types
FeatureVector
p1830
(dp1831
g13
(dp1832
I1
F-1.259624
sI2
F0.381939
sI3
F0.762593
sI4
F1.747672
sI6
F1.0
ssbsg15
g0
(g16
g2
Ntp1833
Rp1834
(dp1835
g15
I0
sbsba(ics475_types
Instance
p1836
(dp1837
g10
(ics475_types
FeatureVector
p1838
(dp1839
g13
(dp1840
I1
F0.050455
sI2
F-1.106285
sI3
F0.282139
sI4
F1.449949
sI9
F1.0
ssbsg15
g0
(g16
g2
Ntp1841
Rp1842
(dp1843
g15
I1
sbsba(ics475_types
Instance
p1844
(dp1845
g10
(ics475_types
FeatureVector
p1846
(dp1847
g13
(dp1848
I1
F-0.738838
sI2
F1.527891
sI3
F-0.149906
sI4
F-0.642305
sI9
F1.0
ssbsg15
g0
(g16
g2
Ntp1849
Rp1850
(dp1851
g15
I1
sbsba(ics475_types
Instance
p1852
(dp1853
g10
(ics475_types
FeatureVector
p1854
(dp1855
g13
(dp1856
I8
F1.0
sI1
F-0.816135
sI2
F0.825353
sI3
F-0.78141
sI4
F1.956092
ssbsg15
g0
(g16
g2
Ntp1857
Rp1858
(dp1859
g15
I1
sbsba(ics475_types
Instance
p1860
(dp1861
g10
(ics475_types
FeatureVector
p1862
(dp1863
g13
(dp1864
I8
F1.0
sI1
F0.941084
sI2
F-0.933211
sI3
F0.571593
sI4
F-1.201349
ssbsg15
g0
(g16
g2
Ntp1865
Rp1866
(dp1867
g15
I1
sbsba(ics475_types
Instance
p1868
(dp1869
g10
(ics475_types
FeatureVector
p1870
(dp1871
g13
(dp1872
I8
F1.0
sI1
F-0.15994
sI2
F0.697727
sI3
F0.937209
sI4
F-0.181785
ssbsg15
g0
(g16
g2
Ntp1873
Rp1874
(dp1875
g15
I1
sbsba(ics475_types
Instance
p1876
(dp1877
g10
(ics475_types
FeatureVector
p1878
(dp1879
g13
(dp1880
I1
F-0.373142
sI2
F0.152791
sI3
F0.79212
sI4
F0.767632
sI10
F1.0
ssbsg15
g0
(g16
g2
Ntp1881
Rp1882
(dp1883
g15
I1
sbsba(ics475_types
Instance
p1884
(dp1885
g10
(ics475_types
FeatureVector
p1886
(dp1887
g13
(dp1888
I1
F0.313113
sI2
F1.770403
sI3
F0.180798
sI4
F0.294891
sI10
F1.0
ssbsg15
g0
(g16
g2
Ntp1889
Rp1890
(dp1891
g15
I1
sbsba(ics475_types
Instance
p1892
(dp1893
g10
(ics475_types
FeatureVector
p1894
(dp1895
g13
(dp1896
I1
F-0.193357
sI2
F-0.967284
sI3
F-0.397014
sI4
F2.074701
sI6
F1.0
ssbsg15
g0
(g16
g2
Ntp1897
Rp1898
(dp1899
g15
I0
sbsba(ics475_types
Instance
p1900
(dp1901
g10
(ics475_types
FeatureVector
p1902
(dp1903
g13
(dp1904
I1
F-0.86598
sI2
F0.315723
sI3
F0.534094
sI4
F-1.119383
sI10
F1.0
ssbsg15
g0
(g16
g2
Ntp1905
Rp1906
(dp1907
g15
I1
sbsba(ics475_types
Instance
p1908
(dp1909
g10
(ics475_types
FeatureVector
p1910
(dp1911
g13
(dp1912
I1
F0.468631
sI2
F-0.952938
sI3
F1.376244
sI4
F0.121132
sI7
F1.0
ssbsg15
g0
(g16
g2
Ntp1913
Rp1914
(dp1915
g15
I0
sbsba(ics475_types
Instance
p1916
(dp1917
g10
(ics475_types
FeatureVector
p1918
(dp1919
g13
(dp1920
I1
F1.227682
sI2
F-1.203632
sI3
F0.015705
sI4
F-0.007156
sI10
F1.0
ssbsg15
g0
(g16
g2
Ntp1921
Rp1922
(dp1923
g15
I1
sbsba(ics475_types
Instance
p1924
(dp1925
g10
(ics475_types
FeatureVector
p1926
(dp1927
g13
(dp1928
I1
F0.889255
sI2
F0.168888
sI3
F0.230584
sI4
F0.040358
sI9
F1.0
ssbsg15
g0
(g16
g2
Ntp1929
Rp1930
(dp1931
g15
I1
sbsba(ics475_types
Instance
p1932
(dp1933
g10
(ics475_types
FeatureVector
p1934
(dp1935
g13
(dp1936
I1
F-0.013704
sI2
F-2.439998
sI3
F-0.184453
sI4
F0.41616
sI6
F1.0
ssbsg15
g0
(g16
g2
Ntp1937
Rp1938
(dp1939
g15
I0
sbsba(ics475_types
Instance
p1940
(dp1941
g10
(ics475_types
FeatureVector
p1942
(dp1943
g13
(dp1944
I1
F-0.801254
sI2
F-1.045036
sI3
F-0.011912
sI4
F-0.695059
sI6
F1.0
ssbsg15
g0
(g16
g2
Ntp1945
Rp1946
(dp1947
g15
I0
sbsba(ics475_types
Instance
p1948
(dp1949
g10
(ics475_types
FeatureVector
p1950
(dp1951
g13
(dp1952
I1
F0.241709
sI2
F-2.170754
sI3
F1.400509
sI4
F0.821814
sI10
F1.0
ssbsg15
g0
(g16
g2
Ntp1953
Rp1954
(dp1955
g15
I1
sbsba(ics475_types
Instance
p1956
(dp1957
g10
(ics475_types
FeatureVector
p1958
(dp1959
g13
(dp1960
I1
F-0.002459
sI2
F-0.934063
sI3
F0.151684
sI4
F0.062029
sI10
F1.0
ssbsg15
g0
(g16
g2
Ntp1961
Rp1962
(dp1963
g15
I1
sbsba(ics475_types
Instance
p1964
(dp1965
g10
(ics475_types
FeatureVector
p1966
(dp1967
g13
(dp1968
I1
F0.787
sI2
F-1.158924
sI3
F-0.437947
sI4
F0.584884
sI5
F1.0
ssbsg15
g0
(g16
g2
Ntp1969
Rp1970
(dp1971
g15
I0
sbsba(ics475_types
Instance
p1972
(dp1973
g10
(ics475_types
FeatureVector
p1974
(dp1975
g13
(dp1976
I1
F0.037775
sI2
F-0.965864
sI3
F0.460046
sI4
F-0.224562
sI5
F1.0
ssbsg15
g0
(g16
g2
Ntp1977
Rp1978
(dp1979
g15
I0
sbsba(ics475_types
Instance
p1980
(dp1981
g10
(ics475_types
FeatureVector
p1982
(dp1983
g13
(dp1984
I1
F0.075139
sI2
F1.174369
sI3
F0.489093
sI4
F0.666129
sI10
F1.0
ssbsg15
g0
(g16
g2
Ntp1985
Rp1986
(dp1987
g15
I1
sbsba(ics475_types
Instance
p1988
(dp1989
g10
(ics475_types
FeatureVector
p1990
(dp1991
g13
(dp1992
I1
F-0.252099
sI2
F1.770277
sI3
F-0.823532
sI4
F-0.24591
sI9
F1.0
ssbsg15
g0
(g16
g2
Ntp1993
Rp1994
(dp1995
g15
I1
sbsba(ics475_types
Instance
p1996
(dp1997
g10
(ics475_types
FeatureVector
p1998
(dp1999
g13
(dp2000
I1
F0.971755
sI2
F0.133352
sI3
F-0.849397
sI4
F-0.483111
sI5
F1.0
ssbsg15
g0
(g16
g2
Ntp2001
Rp2002
(dp2003
g15
I0
sbsba(ics475_types
Instance
p2004
(dp2005
g10
(ics475_types
FeatureVector
p2006
(dp2007
g13
(dp2008
I1
F-2.272031
sI2
F-1.564656
sI3
F-0.171669
sI4
F-0.001203
sI10
F1.0
ssbsg15
g0
(g16
g2
Ntp2009
Rp2010
(dp2011
g15
I1
sbsba(ics475_types
Instance
p2012
(dp2013
g10
(ics475_types
FeatureVector
p2014
(dp2015
g13
(dp2016
I1
F-0.567288
sI2
F0.067796
sI3
F2.259231
sI4
F0.760561
sI9
F1.0
ssbsg15
g0
(g16
g2
Ntp2017
Rp2018
(dp2019
g15
I1
sbsba(ics475_types
Instance
p2020
(dp2021
g10
(ics475_types
FeatureVector
p2022
(dp2023
g13
(dp2024
I1
F-0.605537
sI2
F-0.878715
sI3
F-1.24979
sI4
F0.026265
sI9
F1.0
ssbsg15
g0
(g16
g2
Ntp2025
Rp2026
(dp2027
g15
I1
sbsba(ics475_types
Instance
p2028
(dp2029
g10
(ics475_types
FeatureVector
p2030
(dp2031
g13
(dp2032
I1
F1.076806
sI2
F-0.903121
sI3
F0.256513
sI4
F-1.313223
sI10
F1.0
ssbsg15
g0
(g16
g2
Ntp2033
Rp2034
(dp2035
g15
I1
sbsba(ics475_types
Instance
p2036
(dp2037
g10
(ics475_types
FeatureVector
p2038
(dp2039
g13
(dp2040
I1
F0.551913
sI2
F-0.70127
sI3
F-0.470569
sI4
F0.275935
sI6
F1.0
ssbsg15
g0
(g16
g2
Ntp2041
Rp2042
(dp2043
g15
I0
sbsba(ics475_types
Instance
p2044
(dp2045
g10
(ics475_types
FeatureVector
p2046
(dp2047
g13
(dp2048
I1
F1.134859
sI2
F1.838448
sI3
F-0.061395
sI4
F0.713413
sI9
F1.0
ssbsg15
g0
(g16
g2
Ntp2049
Rp2050
(dp2051
g15
I1
sbsba(ics475_types
Instance
p2052
(dp2053
g10
(ics475_types
FeatureVector
p2054
(dp2055
g13
(dp2056
I1
F-1.063374
sI2
F-1.161404
sI3
F0.763883
sI4
F0.692013
sI10
F1.0
ssbsg15
g0
(g16
g2
Ntp2057
Rp2058
(dp2059
g15
I1
sbsba(ics475_types
Instance
p2060
(dp2061
g10
(ics475_types
FeatureVector
p2062
(dp2063
g13
(dp2064
I1
F0.142923
sI2
F-1.041241
sI3
F1.199545
sI4
F0.689174
sI6
F1.0
ssbsg15
g0
(g16
g2
Ntp2065
Rp2066
(dp2067
g15
I0
sbsba(ics475_types
Instance
p2068
(dp2069
g10
(ics475_types
FeatureVector
p2070
(dp2071
g13
(dp2072
I1
F-0.165506
sI2
F2.460573
sI3
F0.468738
sI4
F1.860994
sI10
F1.0
ssbsg15
g0
(g16
g2
Ntp2073
Rp2074
(dp2075
g15
I1
sbsba(ics475_types
Instance
p2076
(dp2077
g10
(ics475_types
FeatureVector
p2078
(dp2079
g13
(dp2080
I1
F-0.439052
sI2
F1.73286
sI3
F-1.450387
sI4
F0.247955
sI6
F1.0
ssbsg15
g0
(g16
g2
Ntp2081
Rp2082
(dp2083
g15
I0
sbsba(ics475_types
Instance
p2084
(dp2085
g10
(ics475_types
FeatureVector
p2086
(dp2087
g13
(dp2088
I8
F1.0
sI1
F-0.049773
sI2
F-0.558883
sI3
F-1.071535
sI4
F0.491574
ssbsg15
g0
(g16
g2
Ntp2089
Rp2090
(dp2091
g15
I1
sbsba(ics475_types
Instance
p2092
(dp2093
g10
(ics475_types
FeatureVector
p2094
(dp2095
g13
(dp2096
I1
F-0.851895
sI2
F-0.746953
sI3
F1.063656
sI4
F0.437454
sI5
F1.0
ssbsg15
g0
(g16
g2
Ntp2097
Rp2098
(dp2099
g15
I0
sbsba(ics475_types
Instance
p2100
(dp2101
g10
(ics475_types
FeatureVector
p2102
(dp2103
g13
(dp2104
I8
F1.0
sI1
F-0.608095
sI2
F-0.258116
sI3
F1.277637
sI4
F-0.964073
ssbsg15
g0
(g16
g2
Ntp2105
Rp2106
(dp2107
g15
I1
sbsba(ics475_types
Instance
p2108
(dp2109
g10
(ics475_types
FeatureVector
p2110
(dp2111
g13
(dp2112
I1
F0.397447
sI2
F-1.03516
sI3
F0.42756
sI4
F0.392117
sI9
F1.0
ssbsg15
g0
(g16
g2
Ntp2113
Rp2114
(dp2115
g15
I1
sbsba(ics475_types
Instance
p2116
(dp2117
g10
(ics475_types
FeatureVector
p2118
(dp2119
g13
(dp2120
I1
F0.005485
sI2
F1.657809
sI3
F0.592079
sI4
F0.099403
sI10
F1.0
ssbsg15
g0
(g16
g2
Ntp2121
Rp2122
(dp2123
g15
I1
sbsba(ics475_types
Instance
p2124
(dp2125
g10
(ics475_types
FeatureVector
p2126
(dp2127
g13
(dp2128
I1
F0.272435
sI2
F0.533788
sI3
F1.16308
sI4
F-1.074984
sI5
F1.0
ssbsg15
g0
(g16
g2
Ntp2129
Rp2130
(dp2131
g15
I0
sbsba(ics475_types
Instance
p2132
(dp2133
g10
(ics475_types
FeatureVector
p2134
(dp2135
g13
(dp2136
I1
F-0.115388
sI2
F0.517151
sI3
F-0.493393
sI4
F0.430376
sI9
F1.0
ssbsg15
g0
(g16
g2
Ntp2137
Rp2138
(dp2139
g15
I1
sbsba(ics475_types
Instance
p2140
(dp2141
g10
(ics475_types
FeatureVector
p2142
(dp2143
g13
(dp2144
I1
F0.132347
sI2
F0.127733
sI3
F-0.513228
sI4
F0.12144
sI9
F1.0
ssbsg15
g0
(g16
g2
Ntp2145
Rp2146
(dp2147
g15
I1
sbsba(ics475_types
Instance
p2148
(dp2149
g10
(ics475_types
FeatureVector
p2150
(dp2151
g13
(dp2152
I1
F1.522354
sI2
F0.848887
sI3
F1.845034
sI4
F0.491255
sI5
F1.0
ssbsg15
g0
(g16
g2
Ntp2153
Rp2154
(dp2155
g15
I0
sbsba(ics475_types
Instance
p2156
(dp2157
g10
(ics475_types
FeatureVector
p2158
(dp2159
g13
(dp2160
I1
F-0.23553
sI2
F-1.468159
sI3
F0.987179
sI4
F1.176918
sI7
F1.0
ssbsg15
g0
(g16
g2
Ntp2161
Rp2162
(dp2163
g15
I0
sbsba(ics475_types
Instance
p2164
(dp2165
g10
(ics475_types
FeatureVector
p2166
(dp2167
g13
(dp2168
I1
F0.355511
sI2
F-0.266732
sI3
F1.365135
sI4
F0.179055
sI5
F1.0
ssbsg15
g0
(g16
g2
Ntp2169
Rp2170
(dp2171
g15
I0
sbsba(ics475_types
Instance
p2172
(dp2173
g10
(ics475_types
FeatureVector
p2174
(dp2175
g13
(dp2176
I1
F1.041864
sI2
F1.30648
sI3
F-1.47876
sI4
F0.003306
sI10
F1.0
ssbsg15
g0
(g16
g2
Ntp2177
Rp2178
(dp2179
g15
I1
sbsba(ics475_types
Instance
p2180
(dp2181
g10
(ics475_types
FeatureVector
p2182
(dp2183
g13
(dp2184
I1
F0.478686
sI2
F-0.651852
sI3
F-3.235265
sI4
F-0.903072
sI9
F1.0
ssbsg15
g0
(g16
g2
Ntp2185
Rp2186
(dp2187
g15
I1
sbsba(ics475_types
Instance
p2188
(dp2189
g10
(ics475_types
FeatureVector
p2190
(dp2191
g13
(dp2192
I1
F-0.639511
sI2
F0.227493
sI3
F-0.385673
sI4
F0.675419
sI9
F1.0
ssbsg15
g0
(g16
g2
Ntp2193
Rp2194
(dp2195
g15
I1
sbsba(ics475_types
Instance
p2196
(dp2197
g10
(ics475_types
FeatureVector
p2198
(dp2199
g13
(dp2200
I1
F0.594227
sI2
F-0.294402
sI3
F-0.559632
sI4
F0.45443
sI5
F1.0
ssbsg15
g0
(g16
g2
Ntp2201
Rp2202
(dp2203
g15
I0
sbsba(ics475_types
Instance
p2204
(dp2205
g10
(ics475_types
FeatureVector
p2206
(dp2207
g13
(dp2208
I8
F1.0
sI1
F-0.35299
sI2
F-0.092174
sI3
F1.484149
sI4
F-1.005846
ssbsg15
g0
(g16
g2
Ntp2209
Rp2210
(dp2211
g15
I1
sbsba(ics475_types
Instance
p2212
(dp2213
g10
(ics475_types
FeatureVector
p2214
(dp2215
g13
(dp2216
I1
F0.602307
sI2
F0.225091
sI3
F-1.393515
sI4
F0.905043
sI6
F1.0
ssbsg15
g0
(g16
g2
Ntp2217
Rp2218
(dp2219
g15
I0
sbsba(ics475_types
Instance
p2220
(dp2221
g10
(ics475_types
FeatureVector
p2222
(dp2223
g13
(dp2224
I1
F1.186277
sI2
F-1.58419
sI3
F-0.315976
sI4
F1.286959
sI10
F1.0
ssbsg15
g0
(g16
g2
Ntp2225
Rp2226
(dp2227
g15
I1
sbsba(ics475_types
Instance
p2228
(dp2229
g10
(ics475_types
FeatureVector
p2230
(dp2231
g13
(dp2232
I1
F-0.05945
sI2
F0.660823
sI3
F-1.270226
sI4
F1.571067
sI9
F1.0
ssbsg15
g0
(g16
g2
Ntp2233
Rp2234
(dp2235
g15
I1
sbsba(ics475_types
Instance
p2236
(dp2237
g10
(ics475_types
FeatureVector
p2238
(dp2239
g13
(dp2240
I8
F1.0
sI1
F-1.689989
sI2
F-1.345693
sI3
F1.2895
sI4
F-0.236485
ssbsg15
g0
(g16
g2
Ntp2241
Rp2242
(dp2243
g15
I1
sbsba(ics475_types
Instance
p2244
(dp2245
g10
(ics475_types
FeatureVector
p2246
(dp2247
g13
(dp2248
I1
F-0.870295
sI2
F0.250179
sI3
F0.762017
sI4
F-0.64035
sI7
F1.0
ssbsg15
g0
(g16
g2
Ntp2249
Rp2250
(dp2251
g15
I0
sbsba(ics475_types
Instance
p2252
(dp2253
g10
(ics475_types
FeatureVector
p2254
(dp2255
g13
(dp2256
I1
F0.724732
sI2
F-0.24643
sI3
F-0.603805
sI4
F-0.6765
sI7
F1.0
ssbsg15
g0
(g16
g2
Ntp2257
Rp2258
(dp2259
g15
I0
sbsba(ics475_types
Instance
p2260
(dp2261
g10
(ics475_types
FeatureVector
p2262
(dp2263
g13
(dp2264
I8
F1.0
sI1
F1.583587
sI2
F-1.20273
sI3
F0.996426
sI4
F-0.710608
ssbsg15
g0
(g16
g2
Ntp2265
Rp2266
(dp2267
g15
I1
sbsba(ics475_types
Instance
p2268
(dp2269
g10
(ics475_types
FeatureVector
p2270
(dp2271
g13
(dp2272
I8
F1.0
sI1
F0.780402
sI2
F-0.745075
sI3
F-1.005384
sI4
F0.580729
ssbsg15
g0
(g16
g2
Ntp2273
Rp2274
(dp2275
g15
I1
sbsba(ics475_types
Instance
p2276
(dp2277
g10
(ics475_types
FeatureVector
p2278
(dp2279
g13
(dp2280
I1
F1.036603
sI2
F1.101213
sI3
F-0.754694
sI4
F-0.542389
sI7
F1.0
ssbsg15
g0
(g16
g2
Ntp2281
Rp2282
(dp2283
g15
I0
sbsba(ics475_types
Instance
p2284
(dp2285
g10
(ics475_types
FeatureVector
p2286
(dp2287
g13
(dp2288
I1
F0.093472
sI2
F-0.253905
sI3
F-0.632911
sI4
F-0.817432
sI5
F1.0
ssbsg15
g0
(g16
g2
Ntp2289
Rp2290
(dp2291
g15
I0
sbsba(ics475_types
Instance
p2292
(dp2293
g10
(ics475_types
FeatureVector
p2294
(dp2295
g13
(dp2296
I1
F0.705301
sI2
F0.425461
sI3
F-0.027274
sI4
F-0.860077
sI6
F1.0
ssbsg15
g0
(g16
g2
Ntp2297
Rp2298
(dp2299
g15
I0
sbsba(ics475_types
Instance
p2300
(dp2301
g10
(ics475_types
FeatureVector
p2302
(dp2303
g13
(dp2304
I1
F-0.182064
sI2
F-1.372836
sI3
F-1.646071
sI4
F0.693511
sI6
F1.0
ssbsg15
g0
(g16
g2
Ntp2305
Rp2306
(dp2307
g15
I0
sbsba(ics475_types
Instance
p2308
(dp2309
g10
(ics475_types
FeatureVector
p2310
(dp2311
g13
(dp2312
I1
F0.761606
sI2
F1.089547
sI3
F0.468147
sI4
F0.574838
sI6
F1.0
ssbsg15
g0
(g16
g2
Ntp2313
Rp2314
(dp2315
g15
I0
sbsba(ics475_types
Instance
p2316
(dp2317
g10
(ics475_types
FeatureVector
p2318
(dp2319
g13
(dp2320
I1
F0.876248
sI2
F0.088477
sI3
F-0.59312
sI4
F0.306008
sI6
F1.0
ssbsg15
g0
(g16
g2
Ntp2321
Rp2322
(dp2323
g15
I0
sbsba(ics475_types
Instance
p2324
(dp2325
g10
(ics475_types
FeatureVector
p2326
(dp2327
g13
(dp2328
I1
F0.250449
sI2
F1.111362
sI3
F1.022035
sI4
F0.829017
sI6
F1.0
ssbsg15
g0
(g16
g2
Ntp2329
Rp2330
(dp2331
g15
I0
sbsba(ics475_types
Instance
p2332
(dp2333
g10
(ics475_types
FeatureVector
p2334
(dp2335
g13
(dp2336
I8
F1.0
sI1
F0.701476
sI2
F0.076265
sI3
F-1.481038
sI4
F-1.40953
ssbsg15
g0
(g16
g2
Ntp2337
Rp2338
(dp2339
g15
I1
sbsba(ics475_types
Instance
p2340
(dp2341
g10
(ics475_types
FeatureVector
p2342
(dp2343
g13
(dp2344
I1
F0.319904
sI2
F-0.247365
sI3
F-0.784431
sI4
F-0.484309
sI10
F1.0
ssbsg15
g0
(g16
g2
Ntp2345
Rp2346
(dp2347
g15
I1
sbsba(ics475_types
Instance
p2348
(dp2349
g10
(ics475_types
FeatureVector
p2350
(dp2351
g13
(dp2352
I1
F1.059723
sI2
F0.349323
sI3
F-1.090888
sI4
F1.152838
sI6
F1.0
ssbsg15
g0
(g16
g2
Ntp2353
Rp2354
(dp2355
g15
I0
sbsba(ics475_types
Instance
p2356
(dp2357
g10
(ics475_types
FeatureVector
p2358
(dp2359
g13
(dp2360
I1
F0.832334
sI2
F-1.18475
sI3
F-0.413485
sI4
F0.077489
sI7
F1.0
ssbsg15
g0
(g16
g2
Ntp2361
Rp2362
(dp2363
g15
I0
sbsba(ics475_types
Instance
p2364
(dp2365
g10
(ics475_types
FeatureVector
p2366
(dp2367
g13
(dp2368
I1
F0.323868
sI2
F-0.388501
sI3
F1.948317
sI4
F0.472584
sI5
F1.0
ssbsg15
g0
(g16
g2
Ntp2369
Rp2370
(dp2371
g15
I0
sbsba(ics475_types
Instance
p2372
(dp2373
g10
(ics475_types
FeatureVector
p2374
(dp2375
g13
(dp2376
I8
F1.0
sI1
F-0.427646
sI2
F0.481898
sI3
F-1.243549
sI4
F-0.724643
ssbsg15
g0
(g16
g2
Ntp2377
Rp2378
(dp2379
g15
I1
sbsba(ics475_types
Instance
p2380
(dp2381
g10
(ics475_types
FeatureVector
p2382
(dp2383
g13
(dp2384
I1
F2.072815
sI2
F0.137757
sI3
F-0.152448
sI4
F1.632562
sI5
F1.0
ssbsg15
g0
(g16
g2
Ntp2385
Rp2386
(dp2387
g15
I0
sbsba(ics475_types
Instance
p2388
(dp2389
g10
(ics475_types
FeatureVector
p2390
(dp2391
g13
(dp2392
I8
F1.0
sI1
F-0.241153
sI2
F-1.54089
sI3
F1.490387
sI4
F0.126917
ssbsg15
g0
(g16
g2
Ntp2393
Rp2394
(dp2395
g15
I1
sbsba(ics475_types
Instance
p2396
(dp2397
g10
(ics475_types
FeatureVector
p2398
(dp2399
g13
(dp2400
I1
F0.522014
sI2
F-1.240984
sI3
F0.219507
sI4
F-0.4608
sI5
F1.0
ssbsg15
g0
(g16
g2
Ntp2401
Rp2402
(dp2403
g15
I0
sbsba(ics475_types
Instance
p2404
(dp2405
g10
(ics475_types
FeatureVector
p2406
(dp2407
g13
(dp2408
I1
F0.280949
sI2
F-0.102485
sI3
F0.709484
sI4
F0.39479
sI9
F1.0
ssbsg15
g0
(g16
g2
Ntp2409
Rp2410
(dp2411
g15
I1
sbsba(ics475_types
Instance
p2412
(dp2413
g10
(ics475_types
FeatureVector
p2414
(dp2415
g13
(dp2416
I1
F-0.042176
sI2
F0.327987
sI3
F0.157687
sI4
F1.265452
sI5
F1.0
ssbsg15
g0
(g16
g2
Ntp2417
Rp2418
(dp2419
g15
I0
sbsba(ics475_types
Instance
p2420
(dp2421
g10
(ics475_types
FeatureVector
p2422
(dp2423
g13
(dp2424
I1
F-0.857348
sI2
F0.977103
sI3
F-0.986977
sI4
F-0.373177
sI6
F1.0
ssbsg15
g0
(g16
g2
Ntp2425
Rp2426
(dp2427
g15
I0
sbsba(ics475_types
Instance
p2428
(dp2429
g10
(ics475_types
FeatureVector
p2430
(dp2431
g13
(dp2432
I8
F1.0
sI1
F-0.568988
sI2
F-0.191334
sI3
F-0.318846
sI4
F-2.263231
ssbsg15
g0
(g16
g2
Ntp2433
Rp2434
(dp2435
g15
I1
sbsba(ics475_types
Instance
p2436
(dp2437
g10
(ics475_types
FeatureVector
p2438
(dp2439
g13
(dp2440
I1
F0.304579
sI2
F-1.131157
sI3
F0.952997
sI4
F-0.13684
sI7
F1.0
ssbsg15
g0
(g16
g2
Ntp2441
Rp2442
(dp2443
g15
I0
sbsba(ics475_types
Instance
p2444
(dp2445
g10
(ics475_types
FeatureVector
p2446
(dp2447
g13
(dp2448
I8
F1.0
sI1
F0.749981
sI2
F0.314471
sI3
F1.440943
sI4
F0.280631
ssbsg15
g0
(g16
g2
Ntp2449
Rp2450
(dp2451
g15
I1
sbsba(ics475_types
Instance
p2452
(dp2453
g10
(ics475_types
FeatureVector
p2454
(dp2455
g13
(dp2456
I8
F1.0
sI1
F-0.878749
sI2
F0.032882
sI3
F0.470274
sI4
F0.756112
ssbsg15
g0
(g16
g2
Ntp2457
Rp2458
(dp2459
g15
I1
sbsba(ics475_types
Instance
p2460
(dp2461
g10
(ics475_types
FeatureVector
p2462
(dp2463
g13
(dp2464
I1
F0.979078
sI2
F-1.530055
sI3
F1.399198
sI4
F-0.16596
sI10
F1.0
ssbsg15
g0
(g16
g2
Ntp2465
Rp2466
(dp2467
g15
I1
sbsba(ics475_types
Instance
p2468
(dp2469
g10
(ics475_types
FeatureVector
p2470
(dp2471
g13
(dp2472
I1
F0.903728
sI2
F-1.994257
sI3
F0.216027
sI4
F0.581586
sI9
F1.0
ssbsg15
g0
(g16
g2
Ntp2473
Rp2474
(dp2475
g15
I1
sbsba(ics475_types
Instance
p2476
(dp2477
g10
(ics475_types
FeatureVector
p2478
(dp2479
g13
(dp2480
I1
F-2.079184
sI2
F0.306072
sI3
F-0.082558
sI4
F-0.332752
sI6
F1.0
ssbsg15
g0
(g16
g2
Ntp2481
Rp2482
(dp2483
g15
I0
sbsba(ics475_types
Instance
p2484
(dp2485
g10
(ics475_types
FeatureVector
p2486
(dp2487
g13
(dp2488
I1
F-3.209351
sI2
F0.480567
sI3
F-0.432953
sI4
F-0.28424
sI10
F1.0
ssbsg15
g0
(g16
g2
Ntp2489
Rp2490
(dp2491
g15
I1
sbsba(ics475_types
Instance
p2492
(dp2493
g10
(ics475_types
FeatureVector
p2494
(dp2495
g13
(dp2496
I1
F1.058844
sI2
F-1.183669
sI3
F0.04498
sI4
F-0.010333
sI9
F1.0
ssbsg15
g0
(g16
g2
Ntp2497
Rp2498
(dp2499
g15
I1
sbsba(ics475_types
Instance
p2500
(dp2501
g10
(ics475_types
FeatureVector
p2502
(dp2503
g13
(dp2504
I1
F-0.890818
sI2
F0.679565
sI3
F-0.473409
sI4
F1.574469
sI7
F1.0
ssbsg15
g0
(g16
g2
Ntp2505
Rp2506
(dp2507
g15
I0
sbsba(ics475_types
Instance
p2508
(dp2509
g10
(ics475_types
FeatureVector
p2510
(dp2511
g13
(dp2512
I1
F0.117846
sI2
F0.263323
sI3
F-0.310418
sI4
F0.000129
sI9
F1.0
ssbsg15
g0
(g16
g2
Ntp2513
Rp2514
(dp2515
g15
I1
sbsba(ics475_types
Instance
p2516
(dp2517
g10
(ics475_types
FeatureVector
p2518
(dp2519
g13
(dp2520
I1
F0.895433
sI2
F1.547775
sI3
F-1.101263
sI4
F0.484058
sI6
F1.0
ssbsg15
g0
(g16
g2
Ntp2521
Rp2522
(dp2523
g15
I0
sbsba(ics475_types
Instance
p2524
(dp2525
g10
(ics475_types
FeatureVector
p2526
(dp2527
g13
(dp2528
I1
F-0.746785
sI2
F0.206352
sI3
F1.109863
sI4
F0.160796
sI10
F1.0
ssbsg15
g0
(g16
g2
Ntp2529
Rp2530
(dp2531
g15
I1
sbsba(ics475_types
Instance
p2532
(dp2533
g10
(ics475_types
FeatureVector
p2534
(dp2535
g13
(dp2536
I1
F-0.74287
sI2
F0.838841
sI3
F0.592932
sI4
F0.702968
sI6
F1.0
ssbsg15
g0
(g16
g2
Ntp2537
Rp2538
(dp2539
g15
I0
sbsba(ics475_types
Instance
p2540
(dp2541
g10
(ics475_types
FeatureVector
p2542
(dp2543
g13
(dp2544
I1
F-0.264778
sI2
F1.37231
sI3
F-0.685615
sI4
F0.829966
sI7
F1.0
ssbsg15
g0
(g16
g2
Ntp2545
Rp2546
(dp2547
g15
I0
sbsba(ics475_types
Instance
p2548
(dp2549
g10
(ics475_types
FeatureVector
p2550
(dp2551
g13
(dp2552
I1
F1.562393
sI2
F0.171791
sI3
F0.919347
sI4
F-0.681161
sI9
F1.0
ssbsg15
g0
(g16
g2
Ntp2553
Rp2554
(dp2555
g15
I1
sbsba(ics475_types
Instance
p2556
(dp2557
g10
(ics475_types
FeatureVector
p2558
(dp2559
g13
(dp2560
I1
F-0.641533
sI2
F-0.277205
sI3
F-0.081859
sI4
F0.005382
sI5
F1.0
ssbsg15
g0
(g16
g2
Ntp2561
Rp2562
(dp2563
g15
I0
sbsba(ics475_types
Instance
p2564
(dp2565
g10
(ics475_types
FeatureVector
p2566
(dp2567
g13
(dp2568
I1
F0.176175
sI2
F0.734827
sI3
F0.812696
sI4
F0.334269
sI9
F1.0
ssbsg15
g0
(g16
g2
Ntp2569
Rp2570
(dp2571
g15
I1
sbsba(ics475_types
Instance
p2572
(dp2573
g10
(ics475_types
FeatureVector
p2574
(dp2575
g13
(dp2576
I1
F-0.082418
sI2
F0.659045
sI3
F-0.369139
sI4
F-2.005828
sI6
F1.0
ssbsg15
g0
(g16
g2
Ntp2577
Rp2578
(dp2579
g15
I0
sbsba(ics475_types
Instance
p2580
(dp2581
g10
(ics475_types
FeatureVector
p2582
(dp2583
g13
(dp2584
I8
F1.0
sI1
F-1.000126
sI2
F-0.679708
sI3
F-1.460852
sI4
F-2.365079
ssbsg15
g0
(g16
g2
Ntp2585
Rp2586
(dp2587
g15
I1
sbsba(ics475_types
Instance
p2588
(dp2589
g10
(ics475_types
FeatureVector
p2590
(dp2591
g13
(dp2592
I1
F0.451403
sI2
F-1.375792
sI3
F-0.846517
sI4
F-0.443495
sI7
F1.0
ssbsg15
g0
(g16
g2
Ntp2593
Rp2594
(dp2595
g15
I0
sbsba(ics475_types
Instance
p2596
(dp2597
g10
(ics475_types
FeatureVector
p2598
(dp2599
g13
(dp2600
I1
F-0.874271
sI2
F-0.673061
sI3
F0.120164
sI4
F-0.758182
sI5
F1.0
ssbsg15
g0
(g16
g2
Ntp2601
Rp2602
(dp2603
g15
I0
sbsba(ics475_types
Instance
p2604
(dp2605
g10
(ics475_types
FeatureVector
p2606
(dp2607
g13
(dp2608
I8
F1.0
sI1
F2.100465
sI2
F0.490913
sI3
F-0.952057
sI4
F1.872483
ssbsg15
g0
(g16
g2
Ntp2609
Rp2610
(dp2611
g15
I1
sbsba(ics475_types
Instance
p2612
(dp2613
g10
(ics475_types
FeatureVector
p2614
(dp2615
g13
(dp2616
I8
F1.0
sI1
F0.823115
sI2
F-0.961618
sI3
F0.983689
sI4
F-1.128319
ssbsg15
g0
(g16
g2
Ntp2617
Rp2618
(dp2619
g15
I1
sbsba(ics475_types
Instance
p2620
(dp2621
g10
(ics475_types
FeatureVector
p2622
(dp2623
g13
(dp2624
I1
F-1.322975
sI2
F-1.582324
sI3
F-1.007832
sI4
F-2.079368
sI10
F1.0
ssbsg15
g0
(g16
g2
Ntp2625
Rp2626
(dp2627
g15
I1
sbsba(ics475_types
Instance
p2628
(dp2629
g10
(ics475_types
FeatureVector
p2630
(dp2631
g13
(dp2632
I1
F0.079224
sI2
F-1.242448
sI3
F0.325439
sI4
F-1.811266
sI7
F1.0
ssbsg15
g0
(g16
g2
Ntp2633
Rp2634
(dp2635
g15
I0
sbsba(ics475_types
Instance
p2636
(dp2637
g10
(ics475_types
FeatureVector
p2638
(dp2639
g13
(dp2640
I8
F1.0
sI1
F0.982184
sI2
F-0.949386
sI3
F-1.590344
sI4
F-0.09489
ssbsg15
g0
(g16
g2
Ntp2641
Rp2642
(dp2643
g15
I1
sbsba(ics475_types
Instance
p2644
(dp2645
g10
(ics475_types
FeatureVector
p2646
(dp2647
g13
(dp2648
I1
F-2.258181
sI2
F0.414987
sI3
F-0.940406
sI4
F2.842428
sI10
F1.0
ssbsg15
g0
(g16
g2
Ntp2649
Rp2650
(dp2651
g15
I1
sbsba(ics475_types
Instance
p2652
(dp2653
g10
(ics475_types
FeatureVector
p2654
(dp2655
g13
(dp2656
I1
F1.748334
sI2
F-1.332317
sI3
F0.022143
sI4
F0.317163
sI10
F1.0
ssbsg15
g0
(g16
g2
Ntp2657
Rp2658
(dp2659
g15
I1
sbsba(ics475_types
Instance
p2660
(dp2661
g10
(ics475_types
FeatureVector
p2662
(dp2663
g13
(dp2664
I1
F-0.402096
sI2
F-0.443921
sI3
F1.614326
sI4
F-1.106325
sI9
F1.0
ssbsg15
g0
(g16
g2
Ntp2665
Rp2666
(dp2667
g15
I1
sbsba(ics475_types
Instance
p2668
(dp2669
g10
(ics475_types
FeatureVector
p2670
(dp2671
g13
(dp2672
I1
F-1.251329
sI2
F1.164679
sI3
F-0.793972
sI4
F0.934462
sI7
F1.0
ssbsg15
g0
(g16
g2
Ntp2673
Rp2674
(dp2675
g15
I0
sbsba(ics475_types
Instance
p2676
(dp2677
g10
(ics475_types
FeatureVector
p2678
(dp2679
g13
(dp2680
I1
F-0.749468
sI2
F0.072352
sI3
F1.586524
sI4
F0.569767
sI10
F1.0
ssbsg15
g0
(g16
g2
Ntp2681
Rp2682
(dp2683
g15
I1
sbsba(ics475_types
Instance
p2684
(dp2685
g10
(ics475_types
FeatureVector
p2686
(dp2687
g13
(dp2688
I1
F-0.300761
sI2
F0.308035
sI3
F0.622663
sI4
F-0.253163
sI5
F1.0
ssbsg15
g0
(g16
g2
Ntp2689
Rp2690
(dp2691
g15
I0
sbsba(ics475_types
Instance
p2692
(dp2693
g10
(ics475_types
FeatureVector
p2694
(dp2695
g13
(dp2696
I1
F0.00186
sI2
F0.279032
sI3
F0.032033
sI4
F1.268619
sI5
F1.0
ssbsg15
g0
(g16
g2
Ntp2697
Rp2698
(dp2699
g15
I0
sbsba(ics475_types
Instance
p2700
(dp2701
g10
(ics475_types
FeatureVector
p2702
(dp2703
g13
(dp2704
I1
F0.9588
sI2
F-0.550424
sI3
F-0.06622
sI4
F-1.040691
sI10
F1.0
ssbsg15
g0
(g16
g2
Ntp2705
Rp2706
(dp2707
g15
I1
sbsba(ics475_types
Instance
p2708
(dp2709
g10
(ics475_types
FeatureVector
p2710
(dp2711
g13
(dp2712
I1
F0.665646
sI2
F0.31089
sI3
F-2.511695
sI4
F0.222128
sI7
F1.0
ssbsg15
g0
(g16
g2
Ntp2713
Rp2714
(dp2715
g15
I0
sbsba(ics475_types
Instance
p2716
(dp2717
g10
(ics475_types
FeatureVector
p2718
(dp2719
g13
(dp2720
I8
F1.0
sI1
F-0.920376
sI2
F-0.134868
sI3
F0.32041
sI4
F0.533187
ssbsg15
g0
(g16
g2
Ntp2721
Rp2722
(dp2723
g15
I1
sbsba(ics475_types
Instance
p2724
(dp2725
g10
(ics475_types
FeatureVector
p2726
(dp2727
g13
(dp2728
I1
F-1.35911
sI2
F-0.602243
sI3
F1.054324
sI4
F0.167223
sI6
F1.0
ssbsg15
g0
(g16
g2
Ntp2729
Rp2730
(dp2731
g15
I0
sbsba(ics475_types
Instance
p2732
(dp2733
g10
(ics475_types
FeatureVector
p2734
(dp2735
g13
(dp2736
I1
F-0.330857
sI2
F-0.237122
sI3
F-1.258466
sI4
F0.880326
sI10
F1.0
ssbsg15
g0
(g16
g2
Ntp2737
Rp2738
(dp2739
g15
I1
sbsba(ics475_types
Instance
p2740
(dp2741
g10
(ics475_types
FeatureVector
p2742
(dp2743
g13
(dp2744
I1
F0.383179
sI2
F0.564485
sI3
F-1.717951
sI4
F0.059363
sI5
F1.0
ssbsg15
g0
(g16
g2
Ntp2745
Rp2746
(dp2747
g15
I0
sbsba(ics475_types
Instance
p2748
(dp2749
g10
(ics475_types
FeatureVector
p2750
(dp2751
g13
(dp2752
I1
F-0.796468
sI2
F-0.261942
sI3
F0.291606
sI4
F0.801653
sI10
F1.0
ssbsg15
g0
(g16
g2
Ntp2753
Rp2754
(dp2755
g15
I1
sbsba(ics475_types
Instance
p2756
(dp2757
g10
(ics475_types
FeatureVector
p2758
(dp2759
g13
(dp2760
I1
F0.070427
sI2
F0.774529
sI3
F1.882868
sI4
F1.107197
sI5
F1.0
ssbsg15
g0
(g16
g2
Ntp2761
Rp2762
(dp2763
g15
I0
sbsba(ics475_types
Instance
p2764
(dp2765
g10
(ics475_types
FeatureVector
p2766
(dp2767
g13
(dp2768
I1
F1.36508
sI2
F0.438403
sI3
F-1.345707
sI4
F1.264676
sI10
F1.0
ssbsg15
g0
(g16
g2
Ntp2769
Rp2770
(dp2771
g15
I1
sbsba(ics475_types
Instance
p2772
(dp2773
g10
(ics475_types
FeatureVector
p2774
(dp2775
g13
(dp2776
I8
F1.0
sI1
F0.553307
sI2
F-0.048257
sI3
F0.577588
sI4
F0.12484
ssbsg15
g0
(g16
g2
Ntp2777
Rp2778
(dp2779
g15
I1
sbsba(ics475_types
Instance
p2780
(dp2781
g10
(ics475_types
FeatureVector
p2782
(dp2783
g13
(dp2784
I1
F-0.949143
sI2
F0.511494
sI3
F-1.552189
sI4
F-0.877876
sI6
F1.0
ssbsg15
g0
(g16
g2
Ntp2785
Rp2786
(dp2787
g15
I0
sbsba(ics475_types
Instance
p2788
(dp2789
g10
(ics475_types
FeatureVector
p2790
(dp2791
g13
(dp2792
I1
F1.801988
sI2
F0.138257
sI3
F-0.700897
sI4
F-0.803181
sI10
F1.0
ssbsg15
g0
(g16
g2
Ntp2793
Rp2794
(dp2795
g15
I1
sbsba(ics475_types
Instance
p2796
(dp2797
g10
(ics475_types
FeatureVector
p2798
(dp2799
g13
(dp2800
I1
F-0.704636
sI2
F-0.089124
sI3
F-0.113019
sI4
F-0.73294
sI10
F1.0
ssbsg15
g0
(g16
g2
Ntp2801
Rp2802
(dp2803
g15
I1
sbsba(ics475_types
Instance
p2804
(dp2805
g10
(ics475_types
FeatureVector
p2806
(dp2807
g13
(dp2808
I1
F-0.492767
sI2
F0.023793
sI3
F1.41312
sI4
F-0.352774
sI6
F1.0
ssbsg15
g0
(g16
g2
Ntp2809
Rp2810
(dp2811
g15
I0
sbsba(ics475_types
Instance
p2812
(dp2813
g10
(ics475_types
FeatureVector
p2814
(dp2815
g13
(dp2816
I1
F1.30909
sI2
F1.596204
sI3
F1.383334
sI4
F2.519946
sI7
F1.0
ssbsg15
g0
(g16
g2
Ntp2817
Rp2818
(dp2819
g15
I0
sbsba(ics475_types
Instance
p2820
(dp2821
g10
(ics475_types
FeatureVector
p2822
(dp2823
g13
(dp2824
I1
F0.705964
sI2
F1.103758
sI3
F-1.890517
sI4
F0.574035
sI6
F1.0
ssbsg15
g0
(g16
g2
Ntp2825
Rp2826
(dp2827
g15
I0
sbsba(ics475_types
Instance
p2828
(dp2829
g10
(ics475_types
FeatureVector
p2830
(dp2831
g13
(dp2832
I8
F1.0
sI1
F-0.191683
sI2
F-0.733134
sI3
F-0.123512
sI4
F-0.077283
ssbsg15
g0
(g16
g2
Ntp2833
Rp2834
(dp2835
g15
I1
sbsba(ics475_types
Instance
p2836
(dp2837
g10
(ics475_types
FeatureVector
p2838
(dp2839
g13
(dp2840
I8
F1.0
sI1
F0.878676
sI2
F1.483203
sI3
F-0.578603
sI4
F-1.256167
ssbsg15
g0
(g16
g2
Ntp2841
Rp2842
(dp2843
g15
I1
sbsba(ics475_types
Instance
p2844
(dp2845
g10
(ics475_types
FeatureVector
p2846
(dp2847
g13
(dp2848
I1
F-0.627706
sI2
F0.1294
sI3
F-0.93929
sI4
F-1.182431
sI10
F1.0
ssbsg15
g0
(g16
g2
Ntp2849
Rp2850
(dp2851
g15
I1
sbsba(ics475_types
Instance
p2852
(dp2853
g10
(ics475_types
FeatureVector
p2854
(dp2855
g13
(dp2856
I8
F1.0
sI1
F-0.960446
sI2
F0.329317
sI3
F-0.637049
sI4
F0.371692
ssbsg15
g0
(g16
g2
Ntp2857
Rp2858
(dp2859
g15
I1
sbsba(ics475_types
Instance
p2860
(dp2861
g10
(ics475_types
FeatureVector
p2862
(dp2863
g13
(dp2864
I1
F0.017264
sI2
F-0.342541
sI3
F-0.857547
sI4
F0.910382
sI7
F1.0
ssbsg15
g0
(g16
g2
Ntp2865
Rp2866
(dp2867
g15
I0
sbsba(ics475_types
Instance
p2868
(dp2869
g10
(ics475_types
FeatureVector
p2870
(dp2871
g13
(dp2872
I1
F0.820886
sI2
F1.145406
sI3
F-0.871838
sI4
F-0.576557
sI5
F1.0
ssbsg15
g0
(g16
g2
Ntp2873
Rp2874
(dp2875
g15
I0
sbsba(ics475_types
Instance
p2876
(dp2877
g10
(ics475_types
FeatureVector
p2878
(dp2879
g13
(dp2880
I1
F-1.558356
sI2
F0.084547
sI3
F-0.110497
sI4
F-0.878545
sI9
F1.0
ssbsg15
g0
(g16
g2
Ntp2881
Rp2882
(dp2883
g15
I1
sbsba(ics475_types
Instance
p2884
(dp2885
g10
(ics475_types
FeatureVector
p2886
(dp2887
g13
(dp2888
I1
F0.065744
sI2
F-0.981365
sI3
F-0.255419
sI4
F1.640893
sI6
F1.0
ssbsg15
g0
(g16
g2
Ntp2889
Rp2890
(dp2891
g15
I0
sbsba(ics475_types
Instance
p2892
(dp2893
g10
(ics475_types
FeatureVector
p2894
(dp2895
g13
(dp2896
I8
F1.0
sI1
F0.522306
sI2
F0.190773
sI3
F1.47254
sI4
F-0.895284
ssbsg15
g0
(g16
g2
Ntp2897
Rp2898
(dp2899
g15
I1
sbsba(ics475_types
Instance
p2900
(dp2901
g10
(ics475_types
FeatureVector
p2902
(dp2903
g13
(dp2904
I8
F1.0
sI1
F0.906289
sI2
F0.816145
sI3
F-1.139232
sI4
F0.204852
ssbsg15
g0
(g16
g2
Ntp2905
Rp2906
(dp2907
g15
I1
sbsba(ics475_types
Instance
p2908
(dp2909
g10
(ics475_types
FeatureVector
p2910
(dp2911
g13
(dp2912
I1
F0.880259
sI2
F-1.773352
sI3
F1.47196
sI4
F0.789505
sI7
F1.0
ssbsg15
g0
(g16
g2
Ntp2913
Rp2914
(dp2915
g15
I0
sbsba(ics475_types
Instance
p2916
(dp2917
g10
(ics475_types
FeatureVector
p2918
(dp2919
g13
(dp2920
I1
F-0.484752
sI2
F-0.388623
sI3
F-0.549143
sI4
F-0.055156
sI6
F1.0
ssbsg15
g0
(g16
g2
Ntp2921
Rp2922
(dp2923
g15
I0
sbsba(ics475_types
Instance
p2924
(dp2925
g10
(ics475_types
FeatureVector
p2926
(dp2927
g13
(dp2928
I1
F1.504166
sI2
F2.278627
sI3
F-1.695054
sI4
F-0.012742
sI9
F1.0
ssbsg15
g0
(g16
g2
Ntp2929
Rp2930
(dp2931
g15
I1
sbsba(ics475_types
Instance
p2932
(dp2933
g10
(ics475_types
FeatureVector
p2934
(dp2935
g13
(dp2936
I1
F-0.034842
sI2
F-0.448173
sI3
F0.287238
sI4
F-0.218813
sI7
F1.0
ssbsg15
g0
(g16
g2
Ntp2937
Rp2938
(dp2939
g15
I0
sbsba(ics475_types
Instance
p2940
(dp2941
g10
(ics475_types
FeatureVector
p2942
(dp2943
g13
(dp2944
I1
F-0.219567
sI2
F0.815077
sI3
F0.213572
sI4
F2.024534
sI7
F1.0
ssbsg15
g0
(g16
g2
Ntp2945
Rp2946
(dp2947
g15
I0
sbsba(ics475_types
Instance
p2948
(dp2949
g10
(ics475_types
FeatureVector
p2950
(dp2951
g13
(dp2952
I1
F-0.878425
sI2
F0.377534
sI3
F-0.749959
sI4
F-1.652938
sI10
F1.0
ssbsg15
g0
(g16
g2
Ntp2953
Rp2954
(dp2955
g15
I1
sbsba(ics475_types
Instance
p2956
(dp2957
g10
(ics475_types
FeatureVector
p2958
(dp2959
g13
(dp2960
I1
F2.132142
sI2
F-0.610105
sI3
F-1.001128
sI4
F0.290647
sI6
F1.0
ssbsg15
g0
(g16
g2
Ntp2961
Rp2962
(dp2963
g15
I0
sbsba(ics475_types
Instance
p2964
(dp2965
g10
(ics475_types
FeatureVector
p2966
(dp2967
g13
(dp2968
I1
F0.680692
sI2
F-0.987865
sI3
F0.199628
sI4
F0.739245
sI6
F1.0
ssbsg15
g0
(g16
g2
Ntp2969
Rp2970
(dp2971
g15
I0
sbsba(ics475_types
Instance
p2972
(dp2973
g10
(ics475_types
FeatureVector
p2974
(dp2975
g13
(dp2976
I1
F1.079079
sI2
F-0.579179
sI3
F-0.38997
sI4
F0.3939
sI9
F1.0
ssbsg15
g0
(g16
g2
Ntp2977
Rp2978
(dp2979
g15
I1
sbsba(ics475_types
Instance
p2980
(dp2981
g10
(ics475_types
FeatureVector
p2982
(dp2983
g13
(dp2984
I1
F0.192512
sI2
F1.266174
sI3
F-1.225466
sI4
F-0.607721
sI5
F1.0
ssbsg15
g0
(g16
g2
Ntp2985
Rp2986
(dp2987
g15
I0
sbsba(ics475_types
Instance
p2988
(dp2989
g10
(ics475_types
FeatureVector
p2990
(dp2991
g13
(dp2992
I1
F0.533509
sI2
F0.077109
sI3
F0.024158
sI4
F-0.44771
sI9
F1.0
ssbsg15
g0
(g16
g2
Ntp2993
Rp2994
(dp2995
g15
I1
sbsba(ics475_types
Instance
p2996
(dp2997
g10
(ics475_types
FeatureVector
p2998
(dp2999
g13
(dp3000
I1
F2.070909
sI2
F-0.106487
sI3
F0.770719
sI4
F-0.098267
sI10
F1.0
ssbsg15
g0
(g16
g2
Ntp3001
Rp3002
(dp3003
g15
I1
sbsba(ics475_types
Instance
p3004
(dp3005
g10
(ics475_types
FeatureVector
p3006
(dp3007
g13
(dp3008
I1
F-0.986013
sI2
F0.119127
sI3
F-1.826202
sI4
F-0.174119
sI10
F1.0
ssbsg15
g0
(g16
g2
Ntp3009
Rp3010
(dp3011
g15
I1
sbsba(ics475_types
Instance
p3012
(dp3013
g10
(ics475_types
FeatureVector
p3014
(dp3015
g13
(dp3016
I1
F-1.02138
sI2
F-1.450017
sI3
F0.903423
sI4
F0.249985
sI5
F1.0
ssbsg15
g0
(g16
g2
Ntp3017
Rp3018
(dp3019
g15
I0
sbsba(ics475_types
Instance
p3020
(dp3021
g10
(ics475_types
FeatureVector
p3022
(dp3023
g13
(dp3024
I8
F1.0
sI1
F0.733709
sI2
F0.246484
sI3
F1.423937
sI4
F-1.49531
ssbsg15
g0
(g16
g2
Ntp3025
Rp3026
(dp3027
g15
I1
sbsba(ics475_types
Instance
p3028
(dp3029
g10
(ics475_types
FeatureVector
p3030
(dp3031
g13
(dp3032
I1
F0.194123
sI2
F-0.617043
sI3
F0.424678
sI4
F-0.899727
sI9
F1.0
ssbsg15
g0
(g16
g2
Ntp3033
Rp3034
(dp3035
g15
I1
sbsba(ics475_types
Instance
p3036
(dp3037
g10
(ics475_types
FeatureVector
p3038
(dp3039
g13
(dp3040
I1
F0.765295
sI2
F0.999273
sI3
F-0.884322
sI4
F1.897572
sI6
F1.0
ssbsg15
g0
(g16
g2
Ntp3041
Rp3042
(dp3043
g15
I0
sbsba(ics475_types
Instance
p3044
(dp3045
g10
(ics475_types
FeatureVector
p3046
(dp3047
g13
(dp3048
I1
F-1.753938
sI2
F-0.48761
sI3
F-1.338865
sI4
F0.009903
sI6
F1.0
ssbsg15
g0
(g16
g2
Ntp3049
Rp3050
(dp3051
g15
I0
sbsba(ics475_types
Instance
p3052
(dp3053
g10
(ics475_types
FeatureVector
p3054
(dp3055
g13
(dp3056
I1
F-0.927027
sI2
F-0.429571
sI3
F-1.030512
sI4
F-0.465842
sI5
F1.0
ssbsg15
g0
(g16
g2
Ntp3057
Rp3058
(dp3059
g15
I0
sbsba(ics475_types
Instance
p3060
(dp3061
g10
(ics475_types
FeatureVector
p3062
(dp3063
g13
(dp3064
I1
F0.264794
sI2
F0.410953
sI3
F0.755787
sI4
F1.484471
sI10
F1.0
ssbsg15
g0
(g16
g2
Ntp3065
Rp3066
(dp3067
g15
I1
sbsba(ics475_types
Instance
p3068
(dp3069
g10
(ics475_types
FeatureVector
p3070
(dp3071
g13
(dp3072
I8
F1.0
sI1
F1.087082
sI2
F0.528559
sI3
F0.746091
sI4
F-0.119861
ssbsg15
g0
(g16
g2
Ntp3073
Rp3074
(dp3075
g15
I1
sbsba(ics475_types
Instance
p3076
(dp3077
g10
(ics475_types
FeatureVector
p3078
(dp3079
g13
(dp3080
I1
F-0.693869
sI2
F-1.968398
sI3
F-1.002865
sI4
F0.367948
sI9
F1.0
ssbsg15
g0
(g16
g2
Ntp3081
Rp3082
(dp3083
g15
I1
sbsba(ics475_types
Instance
p3084
(dp3085
g10
(ics475_types
FeatureVector
p3086
(dp3087
g13
(dp3088
I1
F0.765421
sI2
F-0.367365
sI3
F-0.921931
sI4
F-0.154017
sI6
F1.0
ssbsg15
g0
(g16
g2
Ntp3089
Rp3090
(dp3091
g15
I0
sbsba(ics475_types
Instance
p3092
(dp3093
g10
(ics475_types
FeatureVector
p3094
(dp3095
g13
(dp3096
I8
F1.0
sI1
F-0.332249
sI2
F0.037055
sI3
F1.516901
sI4
F1.338493
ssbsg15
g0
(g16
g2
Ntp3097
Rp3098
(dp3099
g15
I1
sbsba(ics475_types
Instance
p3100
(dp3101
g10
(ics475_types
FeatureVector
p3102
(dp3103
g13
(dp3104
I1
F0.003362
sI2
F0.055151
sI3
F-1.483505
sI4
F-2.013951
sI5
F1.0
ssbsg15
g0
(g16
g2
Ntp3105
Rp3106
(dp3107
g15
I0
sbsba(ics475_types
Instance
p3108
(dp3109
g10
(ics475_types
FeatureVector
p3110
(dp3111
g13
(dp3112
I1
F0.155075
sI2
F-0.305898
sI3
F1.248155
sI4
F-2.342506
sI9
F1.0
ssbsg15
g0
(g16
g2
Ntp3113
Rp3114
(dp3115
g15
I1
sbsba(ics475_types
Instance
p3116
(dp3117
g10
(ics475_types
FeatureVector
p3118
(dp3119
g13
(dp3120
I1
F0.318344
sI2
F-2.20691
sI3
F0.257506
sI4
F-0.531458
sI10
F1.0
ssbsg15
g0
(g16
g2
Ntp3121
Rp3122
(dp3123
g15
I1
sbsba(ics475_types
Instance
p3124
(dp3125
g10
(ics475_types
FeatureVector
p3126
(dp3127
g13
(dp3128
I1
F1.213851
sI2
F1.138057
sI3
F0.056414
sI4
F-0.593393
sI6
F1.0
ssbsg15
g0
(g16
g2
Ntp3129
Rp3130
(dp3131
g15
I0
sbsba(ics475_types
Instance
p3132
(dp3133
g10
(ics475_types
FeatureVector
p3134
(dp3135
g13
(dp3136
I1
F-0.537429
sI2
F0.428537
sI3
F-0.088647
sI4
F1.114949
sI7
F1.0
ssbsg15
g0
(g16
g2
Ntp3137
Rp3138
(dp3139
g15
I0
sbsba(ics475_types
Instance
p3140
(dp3141
g10
(ics475_types
FeatureVector
p3142
(dp3143
g13
(dp3144
I1
F-0.196579
sI2
F0.29326
sI3
F1.455918
sI4
F0.210255
sI10
F1.0
ssbsg15
g0
(g16
g2
Ntp3145
Rp3146
(dp3147
g15
I1
sbsba(ics475_types
Instance
p3148
(dp3149
g10
(ics475_types
FeatureVector
p3150
(dp3151
g13
(dp3152
I1
F-1.724623
sI2
F0.989438
sI3
F-0.446314
sI4
F0.343044
sI10
F1.0
ssbsg15
g0
(g16
g2
Ntp3153
Rp3154
(dp3155
g15
I1
sbsba(ics475_types
Instance
p3156
(dp3157
g10
(ics475_types
FeatureVector
p3158
(dp3159
g13
(dp3160
I1
F-1.440239
sI2
F1.142725
sI3
F0.402216
sI4
F-0.346371
sI5
F1.0
ssbsg15
g0
(g16
g2
Ntp3161
Rp3162
(dp3163
g15
I0
sbsba(ics475_types
Instance
p3164
(dp3165
g10
(ics475_types
FeatureVector
p3166
(dp3167
g13
(dp3168
I1
F-1.382074
sI2
F0.731066
sI3
F-0.07305
sI4
F1.548785
sI6
F1.0
ssbsg15
g0
(g16
g2
Ntp3169
Rp3170
(dp3171
g15
I0
sbsba(ics475_types
Instance
p3172
(dp3173
g10
(ics475_types
FeatureVector
p3174
(dp3175
g13
(dp3176
I1
F-0.995527
sI2
F-2.275663
sI3
F0.347641
sI4
F0.238044
sI9
F1.0
ssbsg15
g0
(g16
g2
Ntp3177
Rp3178
(dp3179
g15
I1
sbsba(ics475_types
Instance
p3180
(dp3181
g10
(ics475_types
FeatureVector
p3182
(dp3183
g13
(dp3184
I8
F1.0
sI1
F-0.724795
sI2
F-1.760557
sI3
F0.051293
sI4
F-0.622957
ssbsg15
g0
(g16
g2
Ntp3185
Rp3186
(dp3187
g15
I1
sbsba(ics475_types
Instance
p3188
(dp3189
g10
(ics475_types
FeatureVector
p3190
(dp3191
g13
(dp3192
I1
F-0.546392
sI2
F1.649735
sI3
F-1.033517
sI4
F1.766917
sI7
F1.0
ssbsg15
g0
(g16
g2
Ntp3193
Rp3194
(dp3195
g15
I0
sbsba(ics475_types
Instance
p3196
(dp3197
g10
(ics475_types
FeatureVector
p3198
(dp3199
g13
(dp3200
I8
F1.0
sI1
F0.95144
sI2
F-0.866346
sI3
F-0.040257
sI4
F-0.536017
ssbsg15
g0
(g16
g2
Ntp3201
Rp3202
(dp3203
g15
I1
sbsba(ics475_types
Instance
p3204
(dp3205
g10
(ics475_types
FeatureVector
p3206
(dp3207
g13
(dp3208
I1
F0.321788
sI2
F-0.171011
sI3
F1.216774
sI4
F-1.223671
sI6
F1.0
ssbsg15
g0
(g16
g2
Ntp3209
Rp3210
(dp3211
g15
I0
sbsba(ics475_types
Instance
p3212
(dp3213
g10
(ics475_types
FeatureVector
p3214
(dp3215
g13
(dp3216
I1
F0.453121
sI2
F-0.362653
sI3
F-0.156279
sI4
F0.370852
sI6
F1.0
ssbsg15
g0
(g16
g2
Ntp3217
Rp3218
(dp3219
g15
I0
sbsba(ics475_types
Instance
p3220
(dp3221
g10
(ics475_types
FeatureVector
p3222
(dp3223
g13
(dp3224
I1
F1.477376
sI2
F-0.119676
sI3
F-1.872202
sI4
F0.366426
sI9
F1.0
ssbsg15
g0
(g16
g2
Ntp3225
Rp3226
(dp3227
g15
I1
sbsba(ics475_types
Instance
p3228
(dp3229
g10
(ics475_types
FeatureVector
p3230
(dp3231
g13
(dp3232
I1
F-0.187145
sI2
F0.495863
sI3
F-0.588607
sI4
F-1.138931
sI7
F1.0
ssbsg15
g0
(g16
g2
Ntp3233
Rp3234
(dp3235
g15
I0
sbsba(ics475_types
Instance
p3236
(dp3237
g10
(ics475_types
FeatureVector
p3238
(dp3239
g13
(dp3240
I1
F0.529927
sI2
F-0.526105
sI3
F0.972741
sI4
F1.513463
sI6
F1.0
ssbsg15
g0
(g16
g2
Ntp3241
Rp3242
(dp3243
g15
I0
sbsba(ics475_types
Instance
p3244
(dp3245
g10
(ics475_types
FeatureVector
p3246
(dp3247
g13
(dp3248
I8
F1.0
sI1
F1.533049
sI2
F-0.634775
sI3
F-0.170336
sI4
F2.323356
ssbsg15
g0
(g16
g2
Ntp3249
Rp3250
(dp3251
g15
I1
sbsba(ics475_types
Instance
p3252
(dp3253
g10
(ics475_types
FeatureVector
p3254
(dp3255
g13
(dp3256
I1
F-0.430846
sI2
F-0.352104
sI3
F-1.91618
sI4
F0.337142
sI9
F1.0
ssbsg15
g0
(g16
g2
Ntp3257
Rp3258
(dp3259
g15
I1
sbsba(ics475_types
Instance
p3260
(dp3261
g10
(ics475_types
FeatureVector
p3262
(dp3263
g13
(dp3264
I1
F-0.352455
sI2
F-1.629952
sI3
F1.432547
sI4
F-2.826927
sI6
F1.0
ssbsg15
g0
(g16
g2
Ntp3265
Rp3266
(dp3267
g15
I0
sbsba(ics475_types
Instance
p3268
(dp3269
g10
(ics475_types
FeatureVector
p3270
(dp3271
g13
(dp3272
I1
F0.824784
sI2
F1.845084
sI3
F-0.90256
sI4
F-1.02195
sI10
F1.0
ssbsg15
g0
(g16
g2
Ntp3273
Rp3274
(dp3275
g15
I1
sbsba(ics475_types
Instance
p3276
(dp3277
g10
(ics475_types
FeatureVector
p3278
(dp3279
g13
(dp3280
I1
F0.598505
sI2
F-0.723867
sI3
F-0.941769
sI4
F-0.076255
sI6
F1.0
ssbsg15
g0
(g16
g2
Ntp3281
Rp3282
(dp3283
g15
I0
sbsba(ics475_types
Instance
p3284
(dp3285
g10
(ics475_types
FeatureVector
p3286
(dp3287
g13
(dp3288
I8
F1.0
sI1
F-0.335172
sI2
F-0.601992
sI3
F-0.492603
sI4
F-0.182176
ssbsg15
g0
(g16
g2
Ntp3289
Rp3290
(dp3291
g15
I1
sbsba(ics475_types
Instance
p3292
(dp3293
g10
(ics475_types
FeatureVector
p3294
(dp3295
g13
(dp3296
I1
F1.316413
sI2
F0.587136
sI3
F0.518473
sI4
F-0.729863
sI10
F1.0
ssbsg15
g0
(g16
g2
Ntp3297
Rp3298
(dp3299
g15
I1
sbsba(ics475_types
Instance
p3300
(dp3301
g10
(ics475_types
FeatureVector
p3302
(dp3303
g13
(dp3304
I1
F1.291167
sI2
F-1.468019
sI3
F-0.187487
sI4
F0.317021
sI7
F1.0
ssbsg15
g0
(g16
g2
Ntp3305
Rp3306
(dp3307
g15
I0
sbsba(ics475_types
Instance
p3308
(dp3309
g10
(ics475_types
FeatureVector
p3310
(dp3311
g13
(dp3312
I8
F1.0
sI1
F-2.030807
sI2
F-2.808889
sI3
F0.455295
sI4
F-0.584949
ssbsg15
g0
(g16
g2
Ntp3313
Rp3314
(dp3315
g15
I1
sbsba(ics475_types
Instance
p3316
(dp3317
g10
(ics475_types
FeatureVector
p3318
(dp3319
g13
(dp3320
I1
F0.030237
sI2
F0.810654
sI3
F-0.34965
sI4
F1.180998
sI10
F1.0
ssbsg15
g0
(g16
g2
Ntp3321
Rp3322
(dp3323
g15
I1
sbsba(ics475_types
Instance
p3324
(dp3325
g10
(ics475_types
FeatureVector
p3326
(dp3327
g13
(dp3328
I1
F-0.476325
sI2
F-0.231766
sI3
F-1.740916
sI4
F0.271752
sI5
F1.0
ssbsg15
g0
(g16
g2
Ntp3329
Rp3330
(dp3331
g15
I0
sbsba(ics475_types
Instance
p3332
(dp3333
g10
(ics475_types
FeatureVector
p3334
(dp3335
g13
(dp3336
I1
F-0.260643
sI2
F-0.249054
sI3
F-1.260991
sI4
F0.141719
sI10
F1.0
ssbsg15
g0
(g16
g2
Ntp3337
Rp3338
(dp3339
g15
I1
sbsba(ics475_types
Instance
p3340
(dp3341
g10
(ics475_types
FeatureVector
p3342
(dp3343
g13
(dp3344
I1
F-0.798517
sI2
F2.629505
sI3
F-0.832811
sI4
F0.24359
sI7
F1.0
ssbsg15
g0
(g16
g2
Ntp3345
Rp3346
(dp3347
g15
I0
sbsba(ics475_types
Instance
p3348
(dp3349
g10
(ics475_types
FeatureVector
p3350
(dp3351
g13
(dp3352
I1
F0.721898
sI2
F-0.354557
sI3
F-0.474115
sI4
F-1.041505
sI6
F1.0
ssbsg15
g0
(g16
g2
Ntp3353
Rp3354
(dp3355
g15
I0
sbsba(ics475_types
Instance
p3356
(dp3357
g10
(ics475_types
FeatureVector
p3358
(dp3359
g13
(dp3360
I1
F-1.277524
sI2
F0.169642
sI3
F0.86955
sI4
F-0.215683
sI7
F1.0
ssbsg15
g0
(g16
g2
Ntp3361
Rp3362
(dp3363
g15
I0
sbsba(ics475_types
Instance
p3364
(dp3365
g10
(ics475_types
FeatureVector
p3366
(dp3367
g13
(dp3368
I1
F-0.820191
sI2
F-0.227136
sI3
F-0.006726
sI4
F0.617567
sI5
F1.0
ssbsg15
g0
(g16
g2
Ntp3369
Rp3370
(dp3371
g15
I0
sbsba(ics475_types
Instance
p3372
(dp3373
g10
(ics475_types
FeatureVector
p3374
(dp3375
g13
(dp3376
I1
F-2.495091
sI2
F-0.328495
sI3
F0.104784
sI4
F0.879861
sI9
F1.0
ssbsg15
g0
(g16
g2
Ntp3377
Rp3378
(dp3379
g15
I1
sbsba(ics475_types
Instance
p3380
(dp3381
g10
(ics475_types
FeatureVector
p3382
(dp3383
g13
(dp3384
I1
F1.261743
sI2
F1.123683
sI3
F-0.358081
sI4
F1.582058
sI7
F1.0
ssbsg15
g0
(g16
g2
Ntp3385
Rp3386
(dp3387
g15
I0
sbsba(ics475_types
Instance
p3388
(dp3389
g10
(ics475_types
FeatureVector
p3390
(dp3391
g13
(dp3392
I1
F0.157134
sI2
F-0.930341
sI3
F-0.312596
sI4
F-1.436427
sI9
F1.0
ssbsg15
g0
(g16
g2
Ntp3393
Rp3394
(dp3395
g15
I1
sbsba(ics475_types
Instance
p3396
(dp3397
g10
(ics475_types
FeatureVector
p3398
(dp3399
g13
(dp3400
I8
F1.0
sI1
F-0.401443
sI2
F-0.363241
sI3
F-1.476647
sI4
F0.529453
ssbsg15
g0
(g16
g2
Ntp3401
Rp3402
(dp3403
g15
I1
sbsba(ics475_types
Instance
p3404
(dp3405
g10
(ics475_types
FeatureVector
p3406
(dp3407
g13
(dp3408
I1
F0.689219
sI2
F-0.502188
sI3
F-0.218667
sI4
F0.701662
sI5
F1.0
ssbsg15
g0
(g16
g2
Ntp3409
Rp3410
(dp3411
g15
I0
sbsba(ics475_types
Instance
p3412
(dp3413
g10
(ics475_types
FeatureVector
p3414
(dp3415
g13
(dp3416
I8
F1.0
sI1
F0.570656
sI2
F0.608574
sI3
F0.917136
sI4
F-1.179777
ssbsg15
g0
(g16
g2
Ntp3417
Rp3418
(dp3419
g15
I1
sbsba(ics475_types
Instance
p3420
(dp3421
g10
(ics475_types
FeatureVector
p3422
(dp3423
g13
(dp3424
I1
F-0.932103
sI2
F0.670939
sI3
F-1.633615
sI4
F0.465885
sI5
F1.0
ssbsg15
g0
(g16
g2
Ntp3425
Rp3426
(dp3427
g15
I0
sbsba(ics475_types
Instance
p3428
(dp3429
g10
(ics475_types
FeatureVector
p3430
(dp3431
g13
(dp3432
I1
F-1.032011
sI2
F1.813432
sI3
F-0.194808
sI4
F0.576105
sI10
F1.0
ssbsg15
g0
(g16
g2
Ntp3433
Rp3434
(dp3435
g15
I1
sbsba(ics475_types
Instance
p3436
(dp3437
g10
(ics475_types
FeatureVector
p3438
(dp3439
g13
(dp3440
I8
F1.0
sI1
F0.037075
sI2
F0.473455
sI3
F-2.537648
sI4
F-0.470961
ssbsg15
g0
(g16
g2
Ntp3441
Rp3442
(dp3443
g15
I1
sbsba(ics475_types
Instance
p3444
(dp3445
g10
(ics475_types
FeatureVector
p3446
(dp3447
g13
(dp3448
I1
F0.077296
sI2
F-0.625646
sI3
F0.542333
sI4
F1.040812
sI7
F1.0
ssbsg15
g0
(g16
g2
Ntp3449
Rp3450
(dp3451
g15
I0
sbsba(ics475_types
Instance
p3452
(dp3453
g10
(ics475_types
FeatureVector
p3454
(dp3455
g13
(dp3456
I1
F-0.90519
sI2
F0.719016
sI3
F1.546407
sI4
F-1.474013
sI10
F1.0
ssbsg15
g0
(g16
g2
Ntp3457
Rp3458
(dp3459
g15
I1
sbsba(ics475_types
Instance
p3460
(dp3461
g10
(ics475_types
FeatureVector
p3462
(dp3463
g13
(dp3464
I1
F-0.624599
sI2
F1.416602
sI3
F-0.451699
sI4
F-0.838848
sI10
F1.0
ssbsg15
g0
(g16
g2
Ntp3465
Rp3466
(dp3467
g15
I1
sbsba(ics475_types
Instance
p3468
(dp3469
g10
(ics475_types
FeatureVector
p3470
(dp3471
g13
(dp3472
I1
F-0.416253
sI2
F-0.711401
sI3
F0.485303
sI4
F1.327792
sI10
F1.0
ssbsg15
g0
(g16
g2
Ntp3473
Rp3474
(dp3475
g15
I1
sbsba(ics475_types
Instance
p3476
(dp3477
g10
(ics475_types
FeatureVector
p3478
(dp3479
g13
(dp3480
I1
F-0.697479
sI2
F0.228873
sI3
F-0.4384
sI4
F0.207789
sI10
F1.0
ssbsg15
g0
(g16
g2
Ntp3481
Rp3482
(dp3483
g15
I1
sbsba(ics475_types
Instance
p3484
(dp3485
g10
(ics475_types
FeatureVector
p3486
(dp3487
g13
(dp3488
I1
F0.674312
sI2
F0.033632
sI3
F0.47351
sI4
F0.509602
sI5
F1.0
ssbsg15
g0
(g16
g2
Ntp3489
Rp3490
(dp3491
g15
I0
sbsba(ics475_types
Instance
p3492
(dp3493
g10
(ics475_types
FeatureVector
p3494
(dp3495
g13
(dp3496
I1
F-1.470227
sI2
F-0.986302
sI3
F-0.772089
sI4
F-0.982857
sI10
F1.0
ssbsg15
g0
(g16
g2
Ntp3497
Rp3498
(dp3499
g15
I1
sbsba(ics475_types
Instance
p3500
(dp3501
g10
(ics475_types
FeatureVector
p3502
(dp3503
g13
(dp3504
I8
F1.0
sI1
F3.044276
sI2
F0.511767
sI3
F1.183559
sI4
F-2.260491
ssbsg15
g0
(g16
g2
Ntp3505
Rp3506
(dp3507
g15
I1
sbsba(ics475_types
Instance
p3508
(dp3509
g10
(ics475_types
FeatureVector
p3510
(dp3511
g13
(dp3512
I8
F1.0
sI1
F0.83112
sI2
F1.441728
sI3
F1.802167
sI4
F-1.355957
ssbsg15
g0
(g16
g2
Ntp3513
Rp3514
(dp3515
g15
I1
sbsba(ics475_types
Instance
p3516
(dp3517
g10
(ics475_types
FeatureVector
p3518
(dp3519
g13
(dp3520
I8
F1.0
sI1
F1.759669
sI2
F-0.184991
sI3
F0.887895
sI4
F0.831912
ssbsg15
g0
(g16
g2
Ntp3521
Rp3522
(dp3523
g15
I1
sbsba(ics475_types
Instance
p3524
(dp3525
g10
(ics475_types
FeatureVector
p3526
(dp3527
g13
(dp3528
I1
F1.469409
sI2
F0.447
sI3
F-0.444311
sI4
F-0.293777
sI5
F1.0
ssbsg15
g0
(g16
g2
Ntp3529
Rp3530
(dp3531
g15
I0
sbsba(ics475_types
Instance
p3532
(dp3533
g10
(ics475_types
FeatureVector
p3534
(dp3535
g13
(dp3536
I8
F1.0
sI1
F-1.196535
sI2
F1.054668
sI3
F-0.607109
sI4
F-0.206931
ssbsg15
g0
(g16
g2
Ntp3537
Rp3538
(dp3539
g15
I1
sbsba(ics475_types
Instance
p3540
(dp3541
g10
(ics475_types
FeatureVector
p3542
(dp3543
g13
(dp3544
I8
F1.0
sI1
F-0.645793
sI2
F1.05234
sI3
F1.19526
sI4
F0.6885
ssbsg15
g0
(g16
g2
Ntp3545
Rp3546
(dp3547
g15
I1
sbsba(ics475_types
Instance
p3548
(dp3549
g10
(ics475_types
FeatureVector
p3550
(dp3551
g13
(dp3552
I1
F-0.146638
sI2
F0.807735
sI3
F0.505567
sI4
F1.166802
sI10
F1.0
ssbsg15
g0
(g16
g2
Ntp3553
Rp3554
(dp3555
g15
I1
sbsba(ics475_types
Instance
p3556
(dp3557
g10
(ics475_types
FeatureVector
p3558
(dp3559
g13
(dp3560
I1
F-2.18478
sI2
F0.122358
sI3
F0.674791
sI4
F-0.947838
sI10
F1.0
ssbsg15
g0
(g16
g2
Ntp3561
Rp3562
(dp3563
g15
I1
sbsba(ics475_types
Instance
p3564
(dp3565
g10
(ics475_types
FeatureVector
p3566
(dp3567
g13
(dp3568
I8
F1.0
sI1
F0.506291
sI2
F-1.367939
sI3
F-0.341934
sI4
F0.254422
ssbsg15
g0
(g16
g2
Ntp3569
Rp3570
(dp3571
g15
I1
sbsba(ics475_types
Instance
p3572
(dp3573
g10
(ics475_types
FeatureVector
p3574
(dp3575
g13
(dp3576
I1
F1.160474
sI2
F-0.157613
sI3
F-0.624172
sI4
F-1.207797
sI7
F1.0
ssbsg15
g0
(g16
g2
Ntp3577
Rp3578
(dp3579
g15
I0
sbsba(ics475_types
Instance
p3580
(dp3581
g10
(ics475_types
FeatureVector
p3582
(dp3583
g13
(dp3584
I1
F-0.561216
sI2
F0.322245
sI3
F-0.041176
sI4
F0.705862
sI9
F1.0
ssbsg15
g0
(g16
g2
Ntp3585
Rp3586
(dp3587
g15
I1
sbsba(ics475_types
Instance
p3588
(dp3589
g10
(ics475_types
FeatureVector
p3590
(dp3591
g13
(dp3592
I8
F1.0
sI1
F-0.204097
sI2
F1.968778
sI3
F0.54667
sI4
F0.491016
ssbsg15
g0
(g16
g2
Ntp3593
Rp3594
(dp3595
g15
I1
sbsba(ics475_types
Instance
p3596
(dp3597
g10
(ics475_types
FeatureVector
p3598
(dp3599
g13
(dp3600
I1
F-0.750471
sI2
F-0.05006
sI3
F-1.114144
sI4
F0.363812
sI6
F1.0
ssbsg15
g0
(g16
g2
Ntp3601
Rp3602
(dp3603
g15
I0
sbsba(ics475_types
Instance
p3604
(dp3605
g10
(ics475_types
FeatureVector
p3606
(dp3607
g13
(dp3608
I1
F0.48453
sI2
F0.172684
sI3
F-1.925055
sI4
F-0.346116
sI9
F1.0
ssbsg15
g0
(g16
g2
Ntp3609
Rp3610
(dp3611
g15
I1
sbsba(ics475_types
Instance
p3612
(dp3613
g10
(ics475_types
FeatureVector
p3614
(dp3615
g13
(dp3616
I1
F-0.136659
sI2
F1.448316
sI3
F0.096888
sI4
F-0.499967
sI10
F1.0
ssbsg15
g0
(g16
g2
Ntp3617
Rp3618
(dp3619
g15
I1
sbsba(ics475_types
Instance
p3620
(dp3621
g10
(ics475_types
FeatureVector
p3622
(dp3623
g13
(dp3624
I1
F-0.133603
sI2
F-0.315971
sI3
F-1.39178
sI4
F0.599441
sI7
F1.0
ssbsg15
g0
(g16
g2
Ntp3625
Rp3626
(dp3627
g15
I0
sbsba(ics475_types
Instance
p3628
(dp3629
g10
(ics475_types
FeatureVector
p3630
(dp3631
g13
(dp3632
I1
F0.280382
sI2
F0.014229
sI3
F1.35431
sI4
F-0.333709
sI10
F1.0
ssbsg15
g0
(g16
g2
Ntp3633
Rp3634
(dp3635
g15
I1
sbsba(ics475_types
Instance
p3636
(dp3637
g10
(ics475_types
FeatureVector
p3638
(dp3639
g13
(dp3640
I1
F1.872674
sI2
F0.551521
sI3
F0.109945
sI4
F-1.012133
sI5
F1.0
ssbsg15
g0
(g16
g2
Ntp3641
Rp3642
(dp3643
g15
I0
sbsba(ics475_types
Instance
p3644
(dp3645
g10
(ics475_types
FeatureVector
p3646
(dp3647
g13
(dp3648
I1
F0.175132
sI2
F-1.621432
sI3
F0.523199
sI4
F0.302614
sI7
F1.0
ssbsg15
g0
(g16
g2
Ntp3649
Rp3650
(dp3651
g15
I0
sbsba(ics475_types
Instance
p3652
(dp3653
g10
(ics475_types
FeatureVector
p3654
(dp3655
g13
(dp3656
I1
F1.422815
sI2
F1.223
sI3
F-0.1207
sI4
F-0.572082
sI6
F1.0
ssbsg15
g0
(g16
g2
Ntp3657
Rp3658
(dp3659
g15
I0
sbsba(ics475_types
Instance
p3660
(dp3661
g10
(ics475_types
FeatureVector
p3662
(dp3663
g13
(dp3664
I1
F0.745629
sI2
F0.175064
sI3
F-0.348293
sI4
F-1.131462
sI9
F1.0
ssbsg15
g0
(g16
g2
Ntp3665
Rp3666
(dp3667
g15
I1
sbsba(ics475_types
Instance
p3668
(dp3669
g10
(ics475_types
FeatureVector
p3670
(dp3671
g13
(dp3672
I8
F1.0
sI1
F1.292185
sI2
F0.014703
sI3
F-1.62473
sI4
F-0.372772
ssbsg15
g0
(g16
g2
Ntp3673
Rp3674
(dp3675
g15
I1
sbsba(ics475_types
Instance
p3676
(dp3677
g10
(ics475_types
FeatureVector
p3678
(dp3679
g13
(dp3680
I1
F1.156793
sI2
F0.924601
sI3
F-1.276529
sI4
F-1.453715
sI7
F1.0
ssbsg15
g0
(g16
g2
Ntp3681
Rp3682
(dp3683
g15
I0
sbsba(ics475_types
Instance
p3684
(dp3685
g10
(ics475_types
FeatureVector
p3686
(dp3687
g13
(dp3688
I8
F1.0
sI1
F-1.826843
sI2
F1.180916
sI3
F-0.414915
sI4
F-0.758625
ssbsg15
g0
(g16
g2
Ntp3689
Rp3690
(dp3691
g15
I1
sbsba(ics475_types
Instance
p3692
(dp3693
g10
(ics475_types
FeatureVector
p3694
(dp3695
g13
(dp3696
I1
F0.515878
sI2
F1.141695
sI3
F1.564983
sI4
F-0.219065
sI6
F1.0
ssbsg15
g0
(g16
g2
Ntp3697
Rp3698
(dp3699
g15
I0
sbsba(ics475_types
Instance
p3700
(dp3701
g10
(ics475_types
FeatureVector
p3702
(dp3703
g13
(dp3704
I1
F-1.345174
sI2
F0.189359
sI3
F-1.652243
sI4
F0.601843
sI7
F1.0
ssbsg15
g0
(g16
g2
Ntp3705
Rp3706
(dp3707
g15
I0
sbsba(ics475_types
Instance
p3708
(dp3709
g10
(ics475_types
FeatureVector
p3710
(dp3711
g13
(dp3712
I1
F-0.016619
sI2
F-0.002324
sI3
F0.445531
sI4
F0.727621
sI5
F1.0
ssbsg15
g0
(g16
g2
Ntp3713
Rp3714
(dp3715
g15
I0
sbsba(ics475_types
Instance
p3716
(dp3717
g10
(ics475_types
FeatureVector
p3718
(dp3719
g13
(dp3720
I1
F0.182647
sI2
F0.335037
sI3
F-0.495667
sI4
F-2.116732
sI7
F1.0
ssbsg15
g0
(g16
g2
Ntp3721
Rp3722
(dp3723
g15
I0
sbsba(ics475_types
Instance
p3724
(dp3725
g10
(ics475_types
FeatureVector
p3726
(dp3727
g13
(dp3728
I8
F1.0
sI1
F0.6784
sI2
F-0.310142
sI3
F0.492494
sI4
F-2.258073
ssbsg15
g0
(g16
g2
Ntp3729
Rp3730
(dp3731
g15
I1
sbsba(ics475_types
Instance
p3732
(dp3733
g10
(ics475_types
FeatureVector
p3734
(dp3735
g13
(dp3736
I1
F0.559876
sI2
F0.712129
sI3
F-0.356453
sI4
F0.378554
sI10
F1.0
ssbsg15
g0
(g16
g2
Ntp3737
Rp3738
(dp3739
g15
I1
sbsba(ics475_types
Instance
p3740
(dp3741
g10
(ics475_types
FeatureVector
p3742
(dp3743
g13
(dp3744
I1
F-0.247836
sI2
F1.493687
sI3
F1.099266
sI4
F-0.341062
sI10
F1.0
ssbsg15
g0
(g16
g2
Ntp3745
Rp3746
(dp3747
g15
I1
sbsba(ics475_types
Instance
p3748
(dp3749
g10
(ics475_types
FeatureVector
p3750
(dp3751
g13
(dp3752
I8
F1.0
sI1
F1.144877
sI2
F-0.530725
sI3
F-0.030801
sI4
F0.964441
ssbsg15
g0
(g16
g2
Ntp3753
Rp3754
(dp3755
g15
I1
sbsba(ics475_types
Instance
p3756
(dp3757
g10
(ics475_types
FeatureVector
p3758
(dp3759
g13
(dp3760
I1
F-0.667256
sI2
F0.895261
sI3
F-0.429049
sI4
F-1.163618
sI5
F1.0
ssbsg15
g0
(g16
g2
Ntp3761
Rp3762
(dp3763
g15
I0
sbsba(ics475_types
Instance
p3764
(dp3765
g10
(ics475_types
FeatureVector
p3766
(dp3767
g13
(dp3768
I1
F-0.211317
sI2
F0.580816
sI3
F-0.6155
sI4
F0.637799
sI7
F1.0
ssbsg15
g0
(g16
g2
Ntp3769
Rp3770
(dp3771
g15
I0
sbsba(ics475_types
Instance
p3772
(dp3773
g10
(ics475_types
FeatureVector
p3774
(dp3775
g13
(dp3776
I1
F0.93046
sI2
F-0.84691
sI3
F0.102851
sI4
F-0.416832
sI10
F1.0
ssbsg15
g0
(g16
g2
Ntp3777
Rp3778
(dp3779
g15
I1
sbsba(ics475_types
Instance
p3780
(dp3781
g10
(ics475_types
FeatureVector
p3782
(dp3783
g13
(dp3784
I1
F-0.773786
sI2
F-0.202766
sI3
F0.511035
sI4
F-0.129915
sI9
F1.0
ssbsg15
g0
(g16
g2
Ntp3785
Rp3786
(dp3787
g15
I1
sbsba(ics475_types
Instance
p3788
(dp3789
g10
(ics475_types
FeatureVector
p3790
(dp3791
g13
(dp3792
I1
F0.866625
sI2
F-1.235202
sI3
F1.299064
sI4
F-0.122247
sI10
F1.0
ssbsg15
g0
(g16
g2
Ntp3793
Rp3794
(dp3795
g15
I1
sbsba(ics475_types
Instance
p3796
(dp3797
g10
(ics475_types
FeatureVector
p3798
(dp3799
g13
(dp3800
I1
F0.965056
sI2
F-1.029296
sI3
F-0.439718
sI4
F-1.845368
sI6
F1.0
ssbsg15
g0
(g16
g2
Ntp3801
Rp3802
(dp3803
g15
I0
sbsba(ics475_types
Instance
p3804
(dp3805
g10
(ics475_types
FeatureVector
p3806
(dp3807
g13
(dp3808
I8
F1.0
sI1
F0.59298
sI2
F-0.332236
sI3
F0.963608
sI4
F1.356157
ssbsg15
g0
(g16
g2
Ntp3809
Rp3810
(dp3811
g15
I1
sbsba(ics475_types
Instance
p3812
(dp3813
g10
(ics475_types
FeatureVector
p3814
(dp3815
g13
(dp3816
I1
F0.630396
sI2
F-0.958321
sI3
F-1.72761
sI4
F-1.074438
sI5
F1.0
ssbsg15
g0
(g16
g2
Ntp3817
Rp3818
(dp3819
g15
I0
sbsba(ics475_types
Instance
p3820
(dp3821
g10
(ics475_types
FeatureVector
p3822
(dp3823
g13
(dp3824
I1
F-1.297432
sI2
F-0.915654
sI3
F-0.329903
sI4
F-0.019259
sI7
F1.0
ssbsg15
g0
(g16
g2
Ntp3825
Rp3826
(dp3827
g15
I0
sbsba(ics475_types
Instance
p3828
(dp3829
g10
(ics475_types
FeatureVector
p3830
(dp3831
g13
(dp3832
I1
F0.880145
sI2
F-0.559379
sI3
F-0.256002
sI4
F-0.018627
sI7
F1.0
ssbsg15
g0
(g16
g2
Ntp3833
Rp3834
(dp3835
g15
I0
sbsba(ics475_types
Instance
p3836
(dp3837
g10
(ics475_types
FeatureVector
p3838
(dp3839
g13
(dp3840
I1
F1.183749
sI2
F-0.001675
sI3
F-0.352259
sI4
F0.883999
sI6
F1.0
ssbsg15
g0
(g16
g2
Ntp3841
Rp3842
(dp3843
g15
I0
sbsba(ics475_types
Instance
p3844
(dp3845
g10
(ics475_types
FeatureVector
p3846
(dp3847
g13
(dp3848
I1
F-0.812838
sI2
F0.300547
sI3
F-0.153373
sI4
F0.090468
sI6
F1.0
ssbsg15
g0
(g16
g2
Ntp3849
Rp3850
(dp3851
g15
I0
sbsba(ics475_types
Instance
p3852
(dp3853
g10
(ics475_types
FeatureVector
p3854
(dp3855
g13
(dp3856
I8
F1.0
sI1
F-1.523979
sI2
F0.316969
sI3
F-0.161789
sI4
F2.418849
ssbsg15
g0
(g16
g2
Ntp3857
Rp3858
(dp3859
g15
I1
sbsba(ics475_types
Instance
p3860
(dp3861
g10
(ics475_types
FeatureVector
p3862
(dp3863
g13
(dp3864
I1
F-0.758641
sI2
F2.598594
sI3
F0.000962
sI4
F-1.778896
sI5
F1.0
ssbsg15
g0
(g16
g2
Ntp3865
Rp3866
(dp3867
g15
I0
sbsba(ics475_types
Instance
p3868
(dp3869
g10
(ics475_types
FeatureVector
p3870
(dp3871
g13
(dp3872
I1
F-3.379218
sI2
F0.345024
sI3
F0.873421
sI4
F0.901132
sI7
F1.0
ssbsg15
g0
(g16
g2
Ntp3873
Rp3874
(dp3875
g15
I0
sbsba(ics475_types
Instance
p3876
(dp3877
g10
(ics475_types
FeatureVector
p3878
(dp3879
g13
(dp3880
I1
F0.851915
sI2
F0.217317
sI3
F1.175169
sI4
F0.250476
sI6
F1.0
ssbsg15
g0
(g16
g2
Ntp3881
Rp3882
(dp3883
g15
I0
sbsba(ics475_types
Instance
p3884
(dp3885
g10
(ics475_types
FeatureVector
p3886
(dp3887
g13
(dp3888
I8
F1.0
sI1
F-0.696318
sI2
F1.339959
sI3
F-1.640998
sI4
F0.798252
ssbsg15
g0
(g16
g2
Ntp3889
Rp3890
(dp3891
g15
I1
sbsba(ics475_types
Instance
p3892
(dp3893
g10
(ics475_types
FeatureVector
p3894
(dp3895
g13
(dp3896
I1
F0.630398
sI2
F0.972071
sI3
F-1.511
sI4
F0.649562
sI7
F1.0
ssbsg15
g0
(g16
g2
Ntp3897
Rp3898
(dp3899
g15
I0
sbsba(ics475_types
Instance
p3900
(dp3901
g10
(ics475_types
FeatureVector
p3902
(dp3903
g13
(dp3904
I1
F0.436031
sI2
F-1.162134
sI3
F0.304421
sI4
F-0.465172
sI7
F1.0
ssbsg15
g0
(g16
g2
Ntp3905
Rp3906
(dp3907
g15
I0
sbsba(ics475_types
Instance
p3908
(dp3909
g10
(ics475_types
FeatureVector
p3910
(dp3911
g13
(dp3912
I1
F0.006885
sI2
F0.204384
sI3
F0.654226
sI4
F-1.542994
sI6
F1.0
ssbsg15
g0
(g16
g2
Ntp3913
Rp3914
(dp3915
g15
I0
sbsba(ics475_types
Instance
p3916
(dp3917
g10
(ics475_types
FeatureVector
p3918
(dp3919
g13
(dp3920
I1
F-0.07197
sI2
F0.660373
sI3
F-0.11762
sI4
F-0.795847
sI7
F1.0
ssbsg15
g0
(g16
g2
Ntp3921
Rp3922
(dp3923
g15
I0
sbsba(ics475_types
Instance
p3924
(dp3925
g10
(ics475_types
FeatureVector
p3926
(dp3927
g13
(dp3928
I1
F1.018973
sI2
F-0.631777
sI3
F-1.47167
sI4
F-1.248452
sI5
F1.0
ssbsg15
g0
(g16
g2
Ntp3929
Rp3930
(dp3931
g15
I0
sbsba(ics475_types
Instance
p3932
(dp3933
g10
(ics475_types
FeatureVector
p3934
(dp3935
g13
(dp3936
I1
F-1.38746
sI2
F0.992306
sI3
F0.582832
sI4
F-0.535513
sI6
F1.0
ssbsg15
g0
(g16
g2
Ntp3937
Rp3938
(dp3939
g15
I0
sbsba(ics475_types
Instance
p3940
(dp3941
g10
(ics475_types
FeatureVector
p3942
(dp3943
g13
(dp3944
I1
F-0.122415
sI2
F0.470133
sI3
F0.351043
sI4
F0.634133
sI10
F1.0
ssbsg15
g0
(g16
g2
Ntp3945
Rp3946
(dp3947
g15
I1
sbsba(ics475_types
Instance
p3948
(dp3949
g10
(ics475_types
FeatureVector
p3950
(dp3951
g13
(dp3952
I1
F-0.597443
sI2
F-0.547016
sI3
F-0.756252
sI4
F-1.292805
sI7
F1.0
ssbsg15
g0
(g16
g2
Ntp3953
Rp3954
(dp3955
g15
I0
sbsba(ics475_types
Instance
p3956
(dp3957
g10
(ics475_types
FeatureVector
p3958
(dp3959
g13
(dp3960
I1
F1.671414
sI2
F0.139448
sI3
F-1.102669
sI4
F0.721713
sI7
F1.0
ssbsg15
g0
(g16
g2
Ntp3961
Rp3962
(dp3963
g15
I0
sbsba(ics475_types
Instance
p3964
(dp3965
g10
(ics475_types
FeatureVector
p3966
(dp3967
g13
(dp3968
I1
F-0.459809
sI2
F0.062875
sI3
F-0.20915
sI4
F-0.405693
sI6
F1.0
ssbsg15
g0
(g16
g2
Ntp3969
Rp3970
(dp3971
g15
I0
sbsba(ics475_types
Instance
p3972
(dp3973
g10
(ics475_types
FeatureVector
p3974
(dp3975
g13
(dp3976
I1
F1.700093
sI2
F1.958818
sI3
F-0.760586
sI4
F-0.489741
sI10
F1.0
ssbsg15
g0
(g16
g2
Ntp3977
Rp3978
(dp3979
g15
I1
sbsba(ics475_types
Instance
p3980
(dp3981
g10
(ics475_types
FeatureVector
p3982
(dp3983
g13
(dp3984
I8
F1.0
sI1
F-0.190437
sI2
F-0.088062
sI3
F1.751323
sI4
F0.052951
ssbsg15
g0
(g16
g2
Ntp3985
Rp3986
(dp3987
g15
I1
sbsba(ics475_types
Instance
p3988
(dp3989
g10
(ics475_types
FeatureVector
p3990
(dp3991
g13
(dp3992
I1
F-1.688863
sI2
F-0.982664
sI3
F1.003639
sI4
F-0.911681
sI9
F1.0
ssbsg15
g0
(g16
g2
Ntp3993
Rp3994
(dp3995
g15
I1
sbsba(ics475_types
Instance
p3996
(dp3997
g10
(ics475_types
FeatureVector
p3998
(dp3999
g13
(dp4000
I1
F-0.878318
sI2
F1.190916
sI3
F-1.004307
sI4
F-0.200669
sI6
F1.0
ssbsg15
g0
(g16
g2
Ntp4001
Rp4002
(dp4003
g15
I0
sbsba(ics475_types
Instance
p4004
(dp4005
g10
(ics475_types
FeatureVector
p4006
(dp4007
g13
(dp4008
I1
F-0.53336
sI2
F-0.498118
sI3
F-0.267103
sI4
F0.606281
sI5
F1.0
ssbsg15
g0
(g16
g2
Ntp4009
Rp4010
(dp4011
g15
I0
sbsba(ics475_types
Instance
p4012
(dp4013
g10
(ics475_types
FeatureVector
p4014
(dp4015
g13
(dp4016
I1
F-0.153555
sI2
F-0.6149
sI3
F-0.905528
sI4
F0.498006
sI6
F1.0
ssbsg15
g0
(g16
g2
Ntp4017
Rp4018
(dp4019
g15
I0
sbsba(ics475_types
Instance
p4020
(dp4021
g10
(ics475_types
FeatureVector
p4022
(dp4023
g13
(dp4024
I1
F0.212065
sI2
F-0.040602
sI3
F-1.472689
sI4
F-0.744878
sI9
F1.0
ssbsg15
g0
(g16
g2
Ntp4025
Rp4026
(dp4027
g15
I1
sbsba(ics475_types
Instance
p4028
(dp4029
g10
(ics475_types
FeatureVector
p4030
(dp4031
g13
(dp4032
I1
F-0.890869
sI2
F-0.326471
sI3
F-0.152998
sI4
F0.26225
sI5
F1.0
ssbsg15
g0
(g16
g2
Ntp4033
Rp4034
(dp4035
g15
I0
sbsba(ics475_types
Instance
p4036
(dp4037
g10
(ics475_types
FeatureVector
p4038
(dp4039
g13
(dp4040
I1
F-0.88898
sI2
F0.171554
sI3
F-1.235257
sI4
F-1.163226
sI10
F1.0
ssbsg15
g0
(g16
g2
Ntp4041
Rp4042
(dp4043
g15
I1
sbsba(ics475_types
Instance
p4044
(dp4045
g10
(ics475_types
FeatureVector
p4046
(dp4047
g13
(dp4048
I1
F0.374839
sI2
F0.865331
sI3
F-0.427238
sI4
F0.343676
sI5
F1.0
ssbsg15
g0
(g16
g2
Ntp4049
Rp4050
(dp4051
g15
I0
sbsba(ics475_types
Instance
p4052
(dp4053
g10
(ics475_types
FeatureVector
p4054
(dp4055
g13
(dp4056
I1
F0.377215
sI2
F-0.760226
sI3
F-2.012957
sI4
F-1.010698
sI9
F1.0
ssbsg15
g0
(g16
g2
Ntp4057
Rp4058
(dp4059
g15
I1
sbsba(ics475_types
Instance
p4060
(dp4061
g10
(ics475_types
FeatureVector
p4062
(dp4063
g13
(dp4064
I1
F0.050666
sI2
F-0.362186
sI3
F0.077893
sI4
F-0.279781
sI6
F1.0
ssbsg15
g0
(g16
g2
Ntp4065
Rp4066
(dp4067
g15
I0
sbsba(ics475_types
Instance
p4068
(dp4069
g10
(ics475_types
FeatureVector
p4070
(dp4071
g13
(dp4072
I1
F-0.229519
sI2
F-1.502337
sI3
F0.866543
sI4
F-1.356505
sI6
F1.0
ssbsg15
g0
(g16
g2
Ntp4073
Rp4074
(dp4075
g15
I0
sbsba(ics475_types
Instance
p4076
(dp4077
g10
(ics475_types
FeatureVector
p4078
(dp4079
g13
(dp4080
I1
F-0.468071
sI2
F0.012536
sI3
F0.433072
sI4
F0.939769
sI7
F1.0
ssbsg15
g0
(g16
g2
Ntp4081
Rp4082
(dp4083
g15
I0
sbsba(ics475_types
Instance
p4084
(dp4085
g10
(ics475_types
FeatureVector
p4086
(dp4087
g13
(dp4088
I8
F1.0
sI1
F-0.222215
sI2
F-1.348257
sI3
F1.721444
sI4
F-0.707277
ssbsg15
g0
(g16
g2
Ntp4089
Rp4090
(dp4091
g15
I1
sbsba(ics475_types
Instance
p4092
(dp4093
g10
(ics475_types
FeatureVector
p4094
(dp4095
g13
(dp4096
I1
F0.509986
sI2
F-0.711377
sI3
F0.347573
sI4
F-1.174212
sI10
F1.0
ssbsg15
g0
(g16
g2
Ntp4097
Rp4098
(dp4099
g15
I1
sbsba(ics475_types
Instance
p4100
(dp4101
g10
(ics475_types
FeatureVector
p4102
(dp4103
g13
(dp4104
I1
F0.206299
sI2
F-0.085566
sI3
F2.134679
sI4
F0.784947
sI5
F1.0
ssbsg15
g0
(g16
g2
Ntp4105
Rp4106
(dp4107
g15
I0
sbsba(ics475_types
Instance
p4108
(dp4109
g10
(ics475_types
FeatureVector
p4110
(dp4111
g13
(dp4112
I8
F1.0
sI1
F-1.242048
sI2
F1.346572
sI3
F-0.846466
sI4
F0.337734
ssbsg15
g0
(g16
g2
Ntp4113
Rp4114
(dp4115
g15
I1
sbsba(ics475_types
Instance
p4116
(dp4117
g10
(ics475_types
FeatureVector
p4118
(dp4119
g13
(dp4120
I1
F-0.408047
sI2
F-0.74443
sI3
F0.093354
sI4
F-1.588522
sI5
F1.0
ssbsg15
g0
(g16
g2
Ntp4121
Rp4122
(dp4123
g15
I0
sbsba(ics475_types
Instance
p4124
(dp4125
g10
(ics475_types
FeatureVector
p4126
(dp4127
g13
(dp4128
I1
F0.782405
sI2
F-0.208402
sI3
F0.333455
sI4
F-0.544315
sI9
F1.0
ssbsg15
g0
(g16
g2
Ntp4129
Rp4130
(dp4131
g15
I1
sbsba(ics475_types
Instance
p4132
(dp4133
g10
(ics475_types
FeatureVector
p4134
(dp4135
g13
(dp4136
I8
F1.0
sI1
F0.476318
sI2
F0.608671
sI3
F2.351912
sI4
F1.263811
ssbsg15
g0
(g16
g2
Ntp4137
Rp4138
(dp4139
g15
I1
sbsba(ics475_types
Instance
p4140
(dp4141
g10
(ics475_types
FeatureVector
p4142
(dp4143
g13
(dp4144
I1
F-0.080831
sI2
F0.47201
sI3
F1.050036
sI4
F-0.190715
sI6
F1.0
ssbsg15
g0
(g16
g2
Ntp4145
Rp4146
(dp4147
g15
I0
sbsba(ics475_types
Instance
p4148
(dp4149
g10
(ics475_types
FeatureVector
p4150
(dp4151
g13
(dp4152
I1
F0.298888
sI2
F-0.068688
sI3
F-0.519339
sI4
F-0.092443
sI9
F1.0
ssbsg15
g0
(g16
g2
Ntp4153
Rp4154
(dp4155
g15
I1
sbsba(ics475_types
Instance
p4156
(dp4157
g10
(ics475_types
FeatureVector
p4158
(dp4159
g13
(dp4160
I8
F1.0
sI1
F-1.551089
sI2
F1.406332
sI3
F-0.140686
sI4
F-0.155843
ssbsg15
g0
(g16
g2
Ntp4161
Rp4162
(dp4163
g15
I1
sbsba(ics475_types
Instance
p4164
(dp4165
g10
(ics475_types
FeatureVector
p4166
(dp4167
g13
(dp4168
I1
F0.736749
sI2
F-1.386148
sI3
F-2.106629
sI4
F-0.251177
sI9
F1.0
ssbsg15
g0
(g16
g2
Ntp4169
Rp4170
(dp4171
g15
I1
sbsba(ics475_types
Instance
p4172
(dp4173
g10
(ics475_types
FeatureVector
p4174
(dp4175
g13
(dp4176
I8
F1.0
sI1
F1.740204
sI2
F-0.684913
sI3
F0.663213
sI4
F1.253191
ssbsg15
g0
(g16
g2
Ntp4177
Rp4178
(dp4179
g15
I1
sbsba(ics475_types
Instance
p4180
(dp4181
g10
(ics475_types
FeatureVector
p4182
(dp4183
g13
(dp4184
I1
F0.434477
sI2
F1.309134
sI3
F-0.56391
sI4
F-0.397544
sI10
F1.0
ssbsg15
g0
(g16
g2
Ntp4185
Rp4186
(dp4187
g15
I1
sbsba(ics475_types
Instance
p4188
(dp4189
g10
(ics475_types
FeatureVector
p4190
(dp4191
g13
(dp4192
I1
F0.329735
sI2
F1.247561
sI3
F0.162987
sI4
F0.177631
sI6
F1.0
ssbsg15
g0
(g16
g2
Ntp4193
Rp4194
(dp4195
g15
I0
sbsba(ics475_types
Instance
p4196
(dp4197
g10
(ics475_types
FeatureVector
p4198
(dp4199
g13
(dp4200
I1
F-0.281249
sI2
F0.746685
sI3
F2.332504
sI4
F1.379397
sI6
F1.0
ssbsg15
g0
(g16
g2
Ntp4201
Rp4202
(dp4203
g15
I0
sbsba(ics475_types
Instance
p4204
(dp4205
g10
(ics475_types
FeatureVector
p4206
(dp4207
g13
(dp4208
I1
F0.848648
sI2
F0.417482
sI3
F0.63506
sI4
F-0.202729
sI7
F1.0
ssbsg15
g0
(g16
g2
Ntp4209
Rp4210
(dp4211
g15
I0
sbsba(ics475_types
Instance
p4212
(dp4213
g10
(ics475_types
FeatureVector
p4214
(dp4215
g13
(dp4216
I1
F0.80404
sI2
F-0.017509
sI3
F0.63012
sI4
F-0.697544
sI5
F1.0
ssbsg15
g0
(g16
g2
Ntp4217
Rp4218
(dp4219
g15
I0
sbsba(ics475_types
Instance
p4220
(dp4221
g10
(ics475_types
FeatureVector
p4222
(dp4223
g13
(dp4224
I1
F1.603454
sI2
F-0.785056
sI3
F1.668068
sI4
F0.294406
sI5
F1.0
ssbsg15
g0
(g16
g2
Ntp4225
Rp4226
(dp4227
g15
I0
sbsba(ics475_types
Instance
p4228
(dp4229
g10
(ics475_types
FeatureVector
p4230
(dp4231
g13
(dp4232
I1
F0.162321
sI2
F1.954417
sI3
F0.4225
sI4
F0.378734
sI10
F1.0
ssbsg15
g0
(g16
g2
Ntp4233
Rp4234
(dp4235
g15
I1
sbsba(ics475_types
Instance
p4236
(dp4237
g10
(ics475_types
FeatureVector
p4238
(dp4239
g13
(dp4240
I1
F-1.05874
sI2
F-0.937694
sI3
F-0.22184
sI4
F-1.522659
sI6
F1.0
ssbsg15
g0
(g16
g2
Ntp4241
Rp4242
(dp4243
g15
I0
sbsba(ics475_types
Instance
p4244
(dp4245
g10
(ics475_types
FeatureVector
p4246
(dp4247
g13
(dp4248
I1
F-1.655668
sI2
F-1.679093
sI3
F-0.09614
sI4
F-0.428469
sI5
F1.0
ssbsg15
g0
(g16
g2
Ntp4249
Rp4250
(dp4251
g15
I0
sbsba(ics475_types
Instance
p4252
(dp4253
g10
(ics475_types
FeatureVector
p4254
(dp4255
g13
(dp4256
I1
F2.159906
sI2
F1.210449
sI3
F-1.169926
sI4
F-1.547807
sI9
F1.0
ssbsg15
g0
(g16
g2
Ntp4257
Rp4258
(dp4259
g15
I1
sbsba(ics475_types
Instance
p4260
(dp4261
g10
(ics475_types
FeatureVector
p4262
(dp4263
g13
(dp4264
I1
F1.747928
sI2
F-0.426509
sI3
F-0.579363
sI4
F1.166432
sI9
F1.0
ssbsg15
g0
(g16
g2
Ntp4265
Rp4266
(dp4267
g15
I1
sbsba(ics475_types
Instance
p4268
(dp4269
g10
(ics475_types
FeatureVector
p4270
(dp4271
g13
(dp4272
I1
F-0.121043
sI2
F0.878905
sI3
F0.263467
sI4
F1.351242
sI5
F1.0
ssbsg15
g0
(g16
g2
Ntp4273
Rp4274
(dp4275
g15
I0
sbsba(ics475_types
Instance
p4276
(dp4277
g10
(ics475_types
FeatureVector
p4278
(dp4279
g13
(dp4280
I1
F-0.307841
sI2
F-2.289822
sI3
F0.106471
sI4
F-0.558246
sI10
F1.0
ssbsg15
g0
(g16
g2
Ntp4281
Rp4282
(dp4283
g15
I1
sbsba(ics475_types
Instance
p4284
(dp4285
g10
(ics475_types
FeatureVector
p4286
(dp4287
g13
(dp4288
I1
F1.111011
sI2
F0.273537
sI3
F-0.428819
sI4
F-1.581912
sI5
F1.0
ssbsg15
g0
(g16
g2
Ntp4289
Rp4290
(dp4291
g15
I0
sbsba(ics475_types
Instance
p4292
(dp4293
g10
(ics475_types
FeatureVector
p4294
(dp4295
g13
(dp4296
I1
F-0.626412
sI2
F0.439996
sI3
F0.678995
sI4
F-1.281956
sI6
F1.0
ssbsg15
g0
(g16
g2
Ntp4297
Rp4298
(dp4299
g15
I0
sbsba(ics475_types
Instance
p4300
(dp4301
g10
(ics475_types
FeatureVector
p4302
(dp4303
g13
(dp4304
I1
F-1.306764
sI2
F-0.986409
sI3
F1.414822
sI4
F-0.700197
sI7
F1.0
ssbsg15
g0
(g16
g2
Ntp4305
Rp4306
(dp4307
g15
I0
sbsba(ics475_types
Instance
p4308
(dp4309
g10
(ics475_types
FeatureVector
p4310
(dp4311
g13
(dp4312
I1
F0.926254
sI2
F1.358849
sI3
F-1.076723
sI4
F0.326938
sI9
F1.0
ssbsg15
g0
(g16
g2
Ntp4313
Rp4314
(dp4315
g15
I1
sbsba(ics475_types
Instance
p4316
(dp4317
g10
(ics475_types
FeatureVector
p4318
(dp4319
g13
(dp4320
I1
F-0.448534
sI2
F-0.279824
sI3
F-0.816544
sI4
F1.502769
sI5
F1.0
ssbsg15
g0
(g16
g2
Ntp4321
Rp4322
(dp4323
g15
I0
sbsba(ics475_types
Instance
p4324
(dp4325
g10
(ics475_types
FeatureVector
p4326
(dp4327
g13
(dp4328
I1
F0.527096
sI2
F-1.976318
sI3
F-0.01004
sI4
F0.675826
sI9
F1.0
ssbsg15
g0
(g16
g2
Ntp4329
Rp4330
(dp4331
g15
I1
sbsba(ics475_types
Instance
p4332
(dp4333
g10
(ics475_types
FeatureVector
p4334
(dp4335
g13
(dp4336
I1
F-1.062949
sI2
F-0.893137
sI3
F-0.644843
sI4
F2.370965
sI6
F1.0
ssbsg15
g0
(g16
g2
Ntp4337
Rp4338
(dp4339
g15
I0
sbsba(ics475_types
Instance
p4340
(dp4341
g10
(ics475_types
FeatureVector
p4342
(dp4343
g13
(dp4344
I1
F-0.311724
sI2
F-0.212053
sI3
F0.221282
sI4
F0.899768
sI7
F1.0
ssbsg15
g0
(g16
g2
Ntp4345
Rp4346
(dp4347
g15
I0
sbsba(ics475_types
Instance
p4348
(dp4349
g10
(ics475_types
FeatureVector
p4350
(dp4351
g13
(dp4352
I8
F1.0
sI1
F-1.203709
sI2
F-0.700889
sI3
F0.112056
sI4
F-1.474671
ssbsg15
g0
(g16
g2
Ntp4353
Rp4354
(dp4355
g15
I1
sbsba(ics475_types
Instance
p4356
(dp4357
g10
(ics475_types
FeatureVector
p4358
(dp4359
g13
(dp4360
I1
F-0.098004
sI2
F-0.933218
sI3
F-0.195743
sI4
F0.948926
sI10
F1.0
ssbsg15
g0
(g16
g2
Ntp4361
Rp4362
(dp4363
g15
I1
sbsba(ics475_types
Instance
p4364
(dp4365
g10
(ics475_types
FeatureVector
p4366
(dp4367
g13
(dp4368
I8
F1.0
sI1
F1.37938
sI2
F0.229842
sI3
F0.770311
sI4
F-0.108511
ssbsg15
g0
(g16
g2
Ntp4369
Rp4370
(dp4371
g15
I1
sbsba(ics475_types
Instance
p4372
(dp4373
g10
(ics475_types
FeatureVector
p4374
(dp4375
g13
(dp4376
I1
F1.198446
sI2
F-0.527605
sI3
F-1.377273
sI4
F0.71795
sI9
F1.0
ssbsg15
g0
(g16
g2
Ntp4377
Rp4378
(dp4379
g15
I1
sbsba(ics475_types
Instance
p4380
(dp4381
g10
(ics475_types
FeatureVector
p4382
(dp4383
g13
(dp4384
I1
F0.01601
sI2
F-1.031832
sI3
F-0.06441
sI4
F0.406685
sI7
F1.0
ssbsg15
g0
(g16
g2
Ntp4385
Rp4386
(dp4387
g15
I0
sbsba(ics475_types
Instance
p4388
(dp4389
g10
(ics475_types
FeatureVector
p4390
(dp4391
g13
(dp4392
I8
F1.0
sI1
F0.560795
sI2
F0.678263
sI3
F-1.019638
sI4
F0.603297
ssbsg15
g0
(g16
g2
Ntp4393
Rp4394
(dp4395
g15
I1
sbsba(ics475_types
Instance
p4396
(dp4397
g10
(ics475_types
FeatureVector
p4398
(dp4399
g13
(dp4400
I1
F-1.839344
sI2
F0.369566
sI3
F-1.316574
sI4
F0.629617
sI10
F1.0
ssbsg15
g0
(g16
g2
Ntp4401
Rp4402
(dp4403
g15
I1
sbsba(ics475_types
Instance
p4404
(dp4405
g10
(ics475_types
FeatureVector
p4406
(dp4407
g13
(dp4408
I1
F-0.583283
sI2
F1.177118
sI3
F-0.975141
sI4
F1.111523
sI9
F1.0
ssbsg15
g0
(g16
g2
Ntp4409
Rp4410
(dp4411
g15
I1
sbsba(ics475_types
Instance
p4412
(dp4413
g10
(ics475_types
FeatureVector
p4414
(dp4415
g13
(dp4416
I8
F1.0
sI1
F0.647706
sI2
F0.771826
sI3
F-1.013149
sI4
F0.349313
ssbsg15
g0
(g16
g2
Ntp4417
Rp4418
(dp4419
g15
I1
sbsba(ics475_types
Instance
p4420
(dp4421
g10
(ics475_types
FeatureVector
p4422
(dp4423
g13
(dp4424
I1
F0.515197
sI2
F-1.685336
sI3
F-0.721024
sI4
F0.353178
sI5
F1.0
ssbsg15
g0
(g16
g2
Ntp4425
Rp4426
(dp4427
g15
I0
sbsba(ics475_types
Instance
p4428
(dp4429
g10
(ics475_types
FeatureVector
p4430
(dp4431
g13
(dp4432
I8
F1.0
sI1
F-0.540639
sI2
F-0.182822
sI3
F0.905446
sI4
F-0.833442
ssbsg15
g0
(g16
g2
Ntp4433
Rp4434
(dp4435
g15
I1
sbsba(ics475_types
Instance
p4436
(dp4437
g10
(ics475_types
FeatureVector
p4438
(dp4439
g13
(dp4440
I1
F1.504796
sI2
F0.348552
sI3
F-0.607533
sI4
F-0.13297
sI5
F1.0
ssbsg15
g0
(g16
g2
Ntp4441
Rp4442
(dp4443
g15
I0
sbsba(ics475_types
Instance
p4444
(dp4445
g10
(ics475_types
FeatureVector
p4446
(dp4447
g13
(dp4448
I1
F0.029967
sI2
F0.245562
sI3
F1.029308
sI4
F-0.623772
sI10
F1.0
ssbsg15
g0
(g16
g2
Ntp4449
Rp4450
(dp4451
g15
I1
sbsba(ics475_types
Instance
p4452
(dp4453
g10
(ics475_types
FeatureVector
p4454
(dp4455
g13
(dp4456
I8
F1.0
sI1
F0.788134
sI2
F0.334435
sI3
F1.008266
sI4
F0.710864
ssbsg15
g0
(g16
g2
Ntp4457
Rp4458
(dp4459
g15
I1
sbsba(ics475_types
Instance
p4460
(dp4461
g10
(ics475_types
FeatureVector
p4462
(dp4463
g13
(dp4464
I1
F0.58579
sI2
F-0.205011
sI3
F-0.32275
sI4
F-1.110394
sI7
F1.0
ssbsg15
g0
(g16
g2
Ntp4465
Rp4466
(dp4467
g15
I0
sbsba(ics475_types
Instance
p4468
(dp4469
g10
(ics475_types
FeatureVector
p4470
(dp4471
g13
(dp4472
I1
F0.83588
sI2
F-0.282947
sI3
F0.587287
sI4
F0.317415
sI6
F1.0
ssbsg15
g0
(g16
g2
Ntp4473
Rp4474
(dp4475
g15
I0
sbsba(ics475_types
Instance
p4476
(dp4477
g10
(ics475_types
FeatureVector
p4478
(dp4479
g13
(dp4480
I8
F1.0
sI1
F0.682277
sI2
F-1.650195
sI3
F-0.835347
sI4
F-0.413707
ssbsg15
g0
(g16
g2
Ntp4481
Rp4482
(dp4483
g15
I1
sbsba(ics475_types
Instance
p4484
(dp4485
g10
(ics475_types
FeatureVector
p4486
(dp4487
g13
(dp4488
I1
F1.585913
sI2
F1.128392
sI3
F-1.913331
sI4
F2.065354
sI9
F1.0
ssbsg15
g0
(g16
g2
Ntp4489
Rp4490
(dp4491
g15
I1
sbsba(ics475_types
Instance
p4492
(dp4493
g10
(ics475_types
FeatureVector
p4494
(dp4495
g13
(dp4496
I8
F1.0
sI1
F-0.37604
sI2
F-1.179684
sI3
F1.189454
sI4
F-2.070375
ssbsg15
g0
(g16
g2
Ntp4497
Rp4498
(dp4499
g15
I1
sbsba(ics475_types
Instance
p4500
(dp4501
g10
(ics475_types
FeatureVector
p4502
(dp4503
g13
(dp4504
I1
F-0.517439
sI2
F-0.159766
sI3
F1.55625
sI4
F-0.814886
sI6
F1.0
ssbsg15
g0
(g16
g2
Ntp4505
Rp4506
(dp4507
g15
I0
sbsba(ics475_types
Instance
p4508
(dp4509
g10
(ics475_types
FeatureVector
p4510
(dp4511
g13
(dp4512
I8
F1.0
sI1
F0.44814
sI2
F-0.7038
sI3
F0.237245
sI4
F0.499819
ssbsg15
g0
(g16
g2
Ntp4513
Rp4514
(dp4515
g15
I1
sbsba(ics475_types
Instance
p4516
(dp4517
g10
(ics475_types
FeatureVector
p4518
(dp4519
g13
(dp4520
I8
F1.0
sI1
F0.518045
sI2
F-1.323566
sI3
F0.421666
sI4
F0.202043
ssbsg15
g0
(g16
g2
Ntp4521
Rp4522
(dp4523
g15
I1
sbsba(ics475_types
Instance
p4524
(dp4525
g10
(ics475_types
FeatureVector
p4526
(dp4527
g13
(dp4528
I8
F1.0
sI1
F1.546043
sI2
F-0.552379
sI3
F0.250314
sI4
F-0.179027
ssbsg15
g0
(g16
g2
Ntp4529
Rp4530
(dp4531
g15
I1
sbsba(ics475_types
Instance
p4532
(dp4533
g10
(ics475_types
FeatureVector
p4534
(dp4535
g13
(dp4536
I1
F1.50031
sI2
F0.620329
sI3
F-1.114309
sI4
F-0.786591
sI9
F1.0
ssbsg15
g0
(g16
g2
Ntp4537
Rp4538
(dp4539
g15
I1
sbsba(ics475_types
Instance
p4540
(dp4541
g10
(ics475_types
FeatureVector
p4542
(dp4543
g13
(dp4544
I1
F-0.909731
sI2
F1.074265
sI3
F0.920937
sI4
F-0.218708
sI10
F1.0
ssbsg15
g0
(g16
g2
Ntp4545
Rp4546
(dp4547
g15
I1
sbsba(ics475_types
Instance
p4548
(dp4549
g10
(ics475_types
FeatureVector
p4550
(dp4551
g13
(dp4552
I1
F1.410403
sI2
F-0.02593
sI3
F1.275207
sI4
F-1.705623
sI10
F1.0
ssbsg15
g0
(g16
g2
Ntp4553
Rp4554
(dp4555
g15
I1
sbsba(ics475_types
Instance
p4556
(dp4557
g10
(ics475_types
FeatureVector
p4558
(dp4559
g13
(dp4560
I8
F1.0
sI1
F-0.538363
sI2
F-1.690719
sI3
F-0.104506
sI4
F-1.354063
ssbsg15
g0
(g16
g2
Ntp4561
Rp4562
(dp4563
g15
I1
sbsba(ics475_types
Instance
p4564
(dp4565
g10
(ics475_types
FeatureVector
p4566
(dp4567
g13
(dp4568
I1
F0.198737
sI2
F0.611812
sI3
F1.756537
sI4
F0.150678
sI10
F1.0
ssbsg15
g0
(g16
g2
Ntp4569
Rp4570
(dp4571
g15
I1
sbsba(ics475_types
Instance
p4572
(dp4573
g10
(ics475_types
FeatureVector
p4574
(dp4575
g13
(dp4576
I8
F1.0
sI1
F-0.226043
sI2
F0.036966
sI3
F-0.020466
sI4
F-1.63586
ssbsg15
g0
(g16
g2
Ntp4577
Rp4578
(dp4579
g15
I1
sbsba(ics475_types
Instance
p4580
(dp4581
g10
(ics475_types
FeatureVector
p4582
(dp4583
g13
(dp4584
I1
F0.555023
sI2
F-2.019215
sI3
F-1.020955
sI4
F-0.83041
sI5
F1.0
ssbsg15
g0
(g16
g2
Ntp4585
Rp4586
(dp4587
g15
I0
sbsba(ics475_types
Instance
p4588
(dp4589
g10
(ics475_types
FeatureVector
p4590
(dp4591
g13
(dp4592
I1
F-0.138308
sI2
F-0.436497
sI3
F-0.985982
sI4
F-3.046068
sI9
F1.0
ssbsg15
g0
(g16
g2
Ntp4593
Rp4594
(dp4595
g15
I1
sbsba(ics475_types
Instance
p4596
(dp4597
g10
(ics475_types
FeatureVector
p4598
(dp4599
g13
(dp4600
I8
F1.0
sI1
F-0.10228
sI2
F-0.959562
sI3
F-0.657908
sI4
F0.249566
ssbsg15
g0
(g16
g2
Ntp4601
Rp4602
(dp4603
g15
I1
sbsba(ics475_types
Instance
p4604
(dp4605
g10
(ics475_types
FeatureVector
p4606
(dp4607
g13
(dp4608
I1
F0.071222
sI2
F1.103433
sI3
F-1.124013
sI4
F-0.402513
sI6
F1.0
ssbsg15
g0
(g16
g2
Ntp4609
Rp4610
(dp4611
g15
I0
sbsba(ics475_types
Instance
p4612
(dp4613
g10
(ics475_types
FeatureVector
p4614
(dp4615
g13
(dp4616
I1
F-1.067246
sI2
F1.060725
sI3
F0.094894
sI4
F-0.048467
sI10
F1.0
ssbsg15
g0
(g16
g2
Ntp4617
Rp4618
(dp4619
g15
I1
sbsba(ics475_types
Instance
p4620
(dp4621
g10
(ics475_types
FeatureVector
p4622
(dp4623
g13
(dp4624
I1
F1.225432
sI2
F-1.978259
sI3
F0.755285
sI4
F2.067801
sI9
F1.0
ssbsg15
g0
(g16
g2
Ntp4625
Rp4626
(dp4627
g15
I1
sbsba(ics475_types
Instance
p4628
(dp4629
g10
(ics475_types
FeatureVector
p4630
(dp4631
g13
(dp4632
I1
F0.495979
sI2
F-1.130837
sI3
F-1.187712
sI4
F0.913601
sI9
F1.0
ssbsg15
g0
(g16
g2
Ntp4633
Rp4634
(dp4635
g15
I1
sbsba(ics475_types
Instance
p4636
(dp4637
g10
(ics475_types
FeatureVector
p4638
(dp4639
g13
(dp4640
I1
F-0.289973
sI2
F1.537272
sI3
F-2.07897
sI4
F1.033089
sI10
F1.0
ssbsg15
g0
(g16
g2
Ntp4641
Rp4642
(dp4643
g15
I1
sbsba(ics475_types
Instance
p4644
(dp4645
g10
(ics475_types
FeatureVector
p4646
(dp4647
g13
(dp4648
I1
F0.225217
sI2
F-0.099797
sI3
F0.007083
sI4
F-1.574185
sI10
F1.0
ssbsg15
g0
(g16
g2
Ntp4649
Rp4650
(dp4651
g15
I1
sbsba(ics475_types
Instance
p4652
(dp4653
g10
(ics475_types
FeatureVector
p4654
(dp4655
g13
(dp4656
I1
F0.853908
sI2
F-1.014616
sI3
F-0.368485
sI4
F0.925469
sI10
F1.0
ssbsg15
g0
(g16
g2
Ntp4657
Rp4658
(dp4659
g15
I1
sbsba(ics475_types
Instance
p4660
(dp4661
g10
(ics475_types
FeatureVector
p4662
(dp4663
g13
(dp4664
I1
F-2.274372
sI2
F-0.544211
sI3
F0.124179
sI4
F-0.983294
sI7
F1.0
ssbsg15
g0
(g16
g2
Ntp4665
Rp4666
(dp4667
g15
I0
sbsba(ics475_types
Instance
p4668
(dp4669
g10
(ics475_types
FeatureVector
p4670
(dp4671
g13
(dp4672
I1
F-0.495021
sI2
F1.308321
sI3
F-0.31922
sI4
F-0.232791
sI7
F1.0
ssbsg15
g0
(g16
g2
Ntp4673
Rp4674
(dp4675
g15
I0
sbsba(ics475_types
Instance
p4676
(dp4677
g10
(ics475_types
FeatureVector
p4678
(dp4679
g13
(dp4680
I1
F-0.011733
sI2
F0.589649
sI3
F2.568869
sI4
F0.991722
sI10
F1.0
ssbsg15
g0
(g16
g2
Ntp4681
Rp4682
(dp4683
g15
I1
sbsba(ics475_types
Instance
p4684
(dp4685
g10
(ics475_types
FeatureVector
p4686
(dp4687
g13
(dp4688
I1
F-1.909961
sI2
F0.305501
sI3
F-0.100312
sI4
F0.494003
sI7
F1.0
ssbsg15
g0
(g16
g2
Ntp4689
Rp4690
(dp4691
g15
I0
sbsba(ics475_types
Instance
p4692
(dp4693
g10
(ics475_types
FeatureVector
p4694
(dp4695
g13
(dp4696
I1
F1.201366
sI2
F-0.419752
sI3
F1.2544
sI4
F-2.125149
sI9
F1.0
ssbsg15
g0
(g16
g2
Ntp4697
Rp4698
(dp4699
g15
I1
sbsba(ics475_types
Instance
p4700
(dp4701
g10
(ics475_types
FeatureVector
p4702
(dp4703
g13
(dp4704
I8
F1.0
sI1
F-0.320643
sI2
F-0.293398
sI3
F-0.346644
sI4
F2.967515
ssbsg15
g0
(g16
g2
Ntp4705
Rp4706
(dp4707
g15
I1
sbsba(ics475_types
Instance
p4708
(dp4709
g10
(ics475_types
FeatureVector
p4710
(dp4711
g13
(dp4712
I1
F1.629334
sI2
F-0.584494
sI3
F-1.151981
sI4
F-1.813547
sI6
F1.0
ssbsg15
g0
(g16
g2
Ntp4713
Rp4714
(dp4715
g15
I0
sbsba(ics475_types
Instance
p4716
(dp4717
g10
(ics475_types
FeatureVector
p4718
(dp4719
g13
(dp4720
I1
F-0.045441
sI2
F-1.245408
sI3
F1.902164
sI4
F0.248109
sI5
F1.0
ssbsg15
g0
(g16
g2
Ntp4721
Rp4722
(dp4723
g15
I0
sbsba(ics475_types
Instance
p4724
(dp4725
g10
(ics475_types
FeatureVector
p4726
(dp4727
g13
(dp4728
I1
F-1.368584
sI2
F-2.165195
sI3
F-0.321411
sI4
F0.512635
sI9
F1.0
ssbsg15
g0
(g16
g2
Ntp4729
Rp4730
(dp4731
g15
I1
sbsba(ics475_types
Instance
p4732
(dp4733
g10
(ics475_types
FeatureVector
p4734
(dp4735
g13
(dp4736
I1
F1.159615
sI2
F1.184957
sI3
F-0.081533
sI4
F-0.74771
sI10
F1.0
ssbsg15
g0
(g16
g2
Ntp4737
Rp4738
(dp4739
g15
I1
sbsba(ics475_types
Instance
p4740
(dp4741
g10
(ics475_types
FeatureVector
p4742
(dp4743
g13
(dp4744
I1
F-0.437881
sI2
F0.223517
sI3
F0.31366
sI4
F0.299525
sI9
F1.0
ssbsg15
g0
(g16
g2
Ntp4745
Rp4746
(dp4747
g15
I1
sbsba(ics475_types
Instance
p4748
(dp4749
g10
(ics475_types
FeatureVector
p4750
(dp4751
g13
(dp4752
I1
F0.307435
sI2
F-0.143619
sI3
F0.65025
sI4
F1.024063
sI6
F1.0
ssbsg15
g0
(g16
g2
Ntp4753
Rp4754
(dp4755
g15
I0
sbsba(ics475_types
Instance
p4756
(dp4757
g10
(ics475_types
FeatureVector
p4758
(dp4759
g13
(dp4760
I1
F-0.234181
sI2
F1.179949
sI3
F-0.792328
sI4
F0.756103
sI5
F1.0
ssbsg15
g0
(g16
g2
Ntp4761
Rp4762
(dp4763
g15
I0
sbsba(ics475_types
Instance
p4764
(dp4765
g10
(ics475_types
FeatureVector
p4766
(dp4767
g13
(dp4768
I1
F-0.683503
sI2
F-0.156988
sI3
F1.043131
sI4
F-0.61334
sI7
F1.0
ssbsg15
g0
(g16
g2
Ntp4769
Rp4770
(dp4771
g15
I0
sbsba(ics475_types
Instance
p4772
(dp4773
g10
(ics475_types
FeatureVector
p4774
(dp4775
g13
(dp4776
I1
F1.431918
sI2
F-0.729297
sI3
F0.166658
sI4
F-0.450589
sI5
F1.0
ssbsg15
g0
(g16
g2
Ntp4777
Rp4778
(dp4779
g15
I0
sbsba(ics475_types
Instance
p4780
(dp4781
g10
(ics475_types
FeatureVector
p4782
(dp4783
g13
(dp4784
I1
F-1.235235
sI2
F0.5776
sI3
F0.489259
sI4
F-0.47815
sI9
F1.0
ssbsg15
g0
(g16
g2
Ntp4785
Rp4786
(dp4787
g15
I1
sbsba(ics475_types
Instance
p4788
(dp4789
g10
(ics475_types
FeatureVector
p4790
(dp4791
g13
(dp4792
I1
F-0.995529
sI2
F-0.541361
sI3
F-0.620303
sI4
F1.60294
sI6
F1.0
ssbsg15
g0
(g16
g2
Ntp4793
Rp4794
(dp4795
g15
I0
sbsba(ics475_types
Instance
p4796
(dp4797
g10
(ics475_types
FeatureVector
p4798
(dp4799
g13
(dp4800
I1
F0.642151
sI2
F1.240018
sI3
F-0.744895
sI4
F0.409516
sI7
F1.0
ssbsg15
g0
(g16
g2
Ntp4801
Rp4802
(dp4803
g15
I0
sbsba(ics475_types
Instance
p4804
(dp4805
g10
(ics475_types
FeatureVector
p4806
(dp4807
g13
(dp4808
I1
F1.143179
sI2
F-0.441322
sI3
F1.198041
sI4
F-1.677678
sI9
F1.0
ssbsg15
g0
(g16
g2
Ntp4809
Rp4810
(dp4811
g15
I1
sbsba(ics475_types
Instance
p4812
(dp4813
g10
(ics475_types
FeatureVector
p4814
(dp4815
g13
(dp4816
I1
F0.007382
sI2
F-0.162945
sI3
F-0.25008
sI4
F0.912492
sI9
F1.0
ssbsg15
g0
(g16
g2
Ntp4817
Rp4818
(dp4819
g15
I1
sbsba(ics475_types
Instance
p4820
(dp4821
g10
(ics475_types
FeatureVector
p4822
(dp4823
g13
(dp4824
I1
F0.231434
sI2
F-0.147777
sI3
F-0.373133
sI4
F0.992312
sI9
F1.0
ssbsg15
g0
(g16
g2
Ntp4825
Rp4826
(dp4827
g15
I1
sbsba(ics475_types
Instance
p4828
(dp4829
g10
(ics475_types
FeatureVector
p4830
(dp4831
g13
(dp4832
I1
F0.043464
sI2
F-0.655889
sI3
F-0.812416
sI4
F-1.174982
sI7
F1.0
ssbsg15
g0
(g16
g2
Ntp4833
Rp4834
(dp4835
g15
I0
sbsba(ics475_types
Instance
p4836
(dp4837
g10
(ics475_types
FeatureVector
p4838
(dp4839
g13
(dp4840
I1
F-0.161685
sI2
F-0.563624
sI3
F1.040783
sI4
F0.067185
sI10
F1.0
ssbsg15
g0
(g16
g2
Ntp4841
Rp4842
(dp4843
g15
I1
sbsba(ics475_types
Instance
p4844
(dp4845
g10
(ics475_types
FeatureVector
p4846
(dp4847
g13
(dp4848
I1
F0.866796
sI2
F0.093551
sI3
F1.151367
sI4
F1.060998
sI5
F1.0
ssbsg15
g0
(g16
g2
Ntp4849
Rp4850
(dp4851
g15
I0
sbsba(ics475_types
Instance
p4852
(dp4853
g10
(ics475_types
FeatureVector
p4854
(dp4855
g13
(dp4856
I1
F1.194819
sI2
F0.876804
sI3
F0.395878
sI4
F0.254818
sI10
F1.0
ssbsg15
g0
(g16
g2
Ntp4857
Rp4858
(dp4859
g15
I1
sbsba(ics475_types
Instance
p4860
(dp4861
g10
(ics475_types
FeatureVector
p4862
(dp4863
g13
(dp4864
I1
F0.269302
sI2
F-0.373305
sI3
F-0.376234
sI4
F1.467165
sI6
F1.0
ssbsg15
g0
(g16
g2
Ntp4865
Rp4866
(dp4867
g15
I0
sbsba(ics475_types
Instance
p4868
(dp4869
g10
(ics475_types
FeatureVector
p4870
(dp4871
g13
(dp4872
I1
F-1.515068
sI2
F-0.707112
sI3
F-0.292649
sI4
F-0.503421
sI10
F1.0
ssbsg15
g0
(g16
g2
Ntp4873
Rp4874
(dp4875
g15
I1
sbsba(ics475_types
Instance
p4876
(dp4877
g10
(ics475_types
FeatureVector
p4878
(dp4879
g13
(dp4880
I1
F-1.304611
sI2
F-1.641036
sI3
F-1.696246
sI4
F-0.482533
sI5
F1.0
ssbsg15
g0
(g16
g2
Ntp4881
Rp4882
(dp4883
g15
I0
sbsba(ics475_types
Instance
p4884
(dp4885
g10
(ics475_types
FeatureVector
p4886
(dp4887
g13
(dp4888
I8
F1.0
sI1
F-0.109253
sI2
F0.213726
sI3
F-0.634511
sI4
F-0.43817
ssbsg15
g0
(g16
g2
Ntp4889
Rp4890
(dp4891
g15
I1
sbsba(ics475_types
Instance
p4892
(dp4893
g10
(ics475_types
FeatureVector
p4894
(dp4895
g13
(dp4896
I1
F-0.766887
sI2
F-1.531845
sI3
F0.549304
sI4
F-0.954931
sI7
F1.0
ssbsg15
g0
(g16
g2
Ntp4897
Rp4898
(dp4899
g15
I0
sbsba(ics475_types
Instance
p4900
(dp4901
g10
(ics475_types
FeatureVector
p4902
(dp4903
g13
(dp4904
I8
F1.0
sI1
F-0.720121
sI2
F-1.415269
sI3
F-0.721084
sI4
F-1.48743
ssbsg15
g0
(g16
g2
Ntp4905
Rp4906
(dp4907
g15
I1
sbsba(ics475_types
Instance
p4908
(dp4909
g10
(ics475_types
FeatureVector
p4910
(dp4911
g13
(dp4912
I1
F-0.142224
sI2
F-1.464038
sI3
F-0.458892
sI4
F-0.215392
sI10
F1.0
ssbsg15
g0
(g16
g2
Ntp4913
Rp4914
(dp4915
g15
I1
sbsba(ics475_types
Instance
p4916
(dp4917
g10
(ics475_types
FeatureVector
p4918
(dp4919
g13
(dp4920
I8
F1.0
sI1
F0.151154
sI2
F-1.21922
sI3
F0.0832
sI4
F1.303558
ssbsg15
g0
(g16
g2
Ntp4921
Rp4922
(dp4923
g15
I1
sbsba(ics475_types
Instance
p4924
(dp4925
g10
(ics475_types
FeatureVector
p4926
(dp4927
g13
(dp4928
I1
F-0.688382
sI2
F-1.400533
sI3
F1.01862
sI4
F-1.352052
sI7
F1.0
ssbsg15
g0
(g16
g2
Ntp4929
Rp4930
(dp4931
g15
I0
sbsba(ics475_types
Instance
p4932
(dp4933
g10
(ics475_types
FeatureVector
p4934
(dp4935
g13
(dp4936
I1
F0.999522
sI2
F0.256785
sI3
F-1.275265
sI4
F-0.333617
sI10
F1.0
ssbsg15
g0
(g16
g2
Ntp4937
Rp4938
(dp4939
g15
I1
sbsba(ics475_types
Instance
p4940
(dp4941
g10
(ics475_types
FeatureVector
p4942
(dp4943
g13
(dp4944
I1
F-0.978417
sI2
F-1.694892
sI3
F-0.249701
sI4
F1.971434
sI9
F1.0
ssbsg15
g0
(g16
g2
Ntp4945
Rp4946
(dp4947
g15
I1
sbsba(ics475_types
Instance
p4948
(dp4949
g10
(ics475_types
FeatureVector
p4950
(dp4951
g13
(dp4952
I1
F1.06699
sI2
F1.185494
sI3
F1.568349
sI4
F-0.975792
sI9
F1.0
ssbsg15
g0
(g16
g2
Ntp4953
Rp4954
(dp4955
g15
I1
sbsba(ics475_types
Instance
p4956
(dp4957
g10
(ics475_types
FeatureVector
p4958
(dp4959
g13
(dp4960
I8
F1.0
sI1
F-0.550118
sI2
F-1.384509
sI3
F-0.268239
sI4
F0.198293
ssbsg15
g0
(g16
g2
Ntp4961
Rp4962
(dp4963
g15
I1
sbsba(ics475_types
Instance
p4964
(dp4965
g10
(ics475_types
FeatureVector
p4966
(dp4967
g13
(dp4968
I8
F1.0
sI1
F-0.202568
sI2
F-1.246487
sI3
F0.107639
sI4
F-0.25476
ssbsg15
g0
(g16
g2
Ntp4969
Rp4970
(dp4971
g15
I1
sbsba(ics475_types
Instance
p4972
(dp4973
g10
(ics475_types
FeatureVector
p4974
(dp4975
g13
(dp4976
I1
F-0.593401
sI2
F-0.736742
sI3
F0.315991
sI4
F-0.08736
sI9
F1.0
ssbsg15
g0
(g16
g2
Ntp4977
Rp4978
(dp4979
g15
I1
sbsba(ics475_types
Instance
p4980
(dp4981
g10
(ics475_types
FeatureVector
p4982
(dp4983
g13
(dp4984
I8
F1.0
sI1
F-0.150275
sI2
F0.2911
sI3
F-0.925545
sI4
F-0.272337
ssbsg15
g0
(g16
g2
Ntp4985
Rp4986
(dp4987
g15
I1
sbsba(ics475_types
Instance
p4988
(dp4989
g10
(ics475_types
FeatureVector
p4990
(dp4991
g13
(dp4992
I1
F-1.572442
sI2
F-0.115908
sI3
F-1.101242
sI4
F0.565808
sI5
F1.0
ssbsg15
g0
(g16
g2
Ntp4993
Rp4994
(dp4995
g15
I0
sbsba(ics475_types
Instance
p4996
(dp4997
g10
(ics475_types
FeatureVector
p4998
(dp4999
g13
(dp5000
I1
F1.38064
sI2
F0.682766
sI3
F0.879865
sI4
F-1.151602
sI5
F1.0
ssbsg15
g0
(g16
g2
Ntp5001
Rp5002
(dp5003
g15
I0
sbsba(ics475_types
Instance
p5004
(dp5005
g10
(ics475_types
FeatureVector
p5006
(dp5007
g13
(dp5008
I1
F-0.452436
sI2
F0.816169
sI3
F0.616413
sI4
F-1.412012
sI9
F1.0
ssbsg15
g0
(g16
g2
Ntp5009
Rp5010
(dp5011
g15
I1
sbsba(ics475_types
Instance
p5012
(dp5013
g10
(ics475_types
FeatureVector
p5014
(dp5015
g13
(dp5016
I1
F-0.785008
sI2
F2.113347
sI3
F1.613836
sI4
F-0.106877
sI5
F1.0
ssbsg15
g0
(g16
g2
Ntp5017
Rp5018
(dp5019
g15
I0
sbsba(ics475_types
Instance
p5020
(dp5021
g10
(ics475_types
FeatureVector
p5022
(dp5023
g13
(dp5024
I1
F-0.538115
sI2
F0.38806
sI3
F0.557224
sI4
F0.657575
sI7
F1.0
ssbsg15
g0
(g16
g2
Ntp5025
Rp5026
(dp5027
g15
I0
sbsba(ics475_types
Instance
p5028
(dp5029
g10
(ics475_types
FeatureVector
p5030
(dp5031
g13
(dp5032
I1
F-0.655923
sI2
F0.419919
sI3
F-0.20736
sI4
F0.81606
sI9
F1.0
ssbsg15
g0
(g16
g2
Ntp5033
Rp5034
(dp5035
g15
I1
sbsba(ics475_types
Instance
p5036
(dp5037
g10
(ics475_types
FeatureVector
p5038
(dp5039
g13
(dp5040
I1
F-0.127126
sI2
F1.210608
sI3
F-0.165269
sI4
F1.41661
sI7
F1.0
ssbsg15
g0
(g16
g2
Ntp5041
Rp5042
(dp5043
g15
I0
sbsba(ics475_types
Instance
p5044
(dp5045
g10
(ics475_types
FeatureVector
p5046
(dp5047
g13
(dp5048
I1
F-1.991496
sI2
F1.567973
sI3
F-0.45
sI4
F1.373093
sI6
F1.0
ssbsg15
g0
(g16
g2
Ntp5049
Rp5050
(dp5051
g15
I0
sbsba(ics475_types
Instance
p5052
(dp5053
g10
(ics475_types
FeatureVector
p5054
(dp5055
g13
(dp5056
I1
F-2.032925
sI2
F-0.559851
sI3
F-1.165654
sI4
F0.626347
sI6
F1.0
ssbsg15
g0
(g16
g2
Ntp5057
Rp5058
(dp5059
g15
I0
sbsba(ics475_types
Instance
p5060
(dp5061
g10
(ics475_types
FeatureVector
p5062
(dp5063
g13
(dp5064
I1
F0.456915
sI2
F0.509846
sI3
F1.97734
sI4
F1.857796
sI10
F1.0
ssbsg15
g0
(g16
g2
Ntp5065
Rp5066
(dp5067
g15
I1
sbsba(ics475_types
Instance
p5068
(dp5069
g10
(ics475_types
FeatureVector
p5070
(dp5071
g13
(dp5072
I8
F1.0
sI1
F-0.827983
sI2
F-0.200609
sI3
F0.877516
sI4
F-0.013237
ssbsg15
g0
(g16
g2
Ntp5073
Rp5074
(dp5075
g15
I1
sbsba(ics475_types
Instance
p5076
(dp5077
g10
(ics475_types
FeatureVector
p5078
(dp5079
g13
(dp5080
I1
F-0.528242
sI2
F1.699368
sI3
F1.882008
sI4
F-1.432778
sI7
F1.0
ssbsg15
g0
(g16
g2
Ntp5081
Rp5082
(dp5083
g15
I0
sbsba(ics475_types
Instance
p5084
(dp5085
g10
(ics475_types
FeatureVector
p5086
(dp5087
g13
(dp5088
I1
F-0.791513
sI2
F0.532676
sI3
F-0.05388
sI4
F1.154392
sI10
F1.0
ssbsg15
g0
(g16
g2
Ntp5089
Rp5090
(dp5091
g15
I1
sbsba(ics475_types
Instance
p5092
(dp5093
g10
(ics475_types
FeatureVector
p5094
(dp5095
g13
(dp5096
I1
F-0.542685
sI2
F-0.016464
sI3
F-0.713663
sI4
F0.379503
sI6
F1.0
ssbsg15
g0
(g16
g2
Ntp5097
Rp5098
(dp5099
g15
I0
sbsba(ics475_types
Instance
p5100
(dp5101
g10
(ics475_types
FeatureVector
p5102
(dp5103
g13
(dp5104
I1
F0.714539
sI2
F0.502224
sI3
F-0.21014
sI4
F-0.297287
sI5
F1.0
ssbsg15
g0
(g16
g2
Ntp5105
Rp5106
(dp5107
g15
I0
sbsba(ics475_types
Instance
p5108
(dp5109
g10
(ics475_types
FeatureVector
p5110
(dp5111
g13
(dp5112
I1
F0.619607
sI2
F-0.47878
sI3
F0.122998
sI4
F1.432542
sI7
F1.0
ssbsg15
g0
(g16
g2
Ntp5113
Rp5114
(dp5115
g15
I0
sbsba(ics475_types
Instance
p5116
(dp5117
g10
(ics475_types
FeatureVector
p5118
(dp5119
g13
(dp5120
I1
F-0.06424
sI2
F-0.882545
sI3
F0.466932
sI4
F0.837338
sI9
F1.0
ssbsg15
g0
(g16
g2
Ntp5121
Rp5122
(dp5123
g15
I1
sbsba(ics475_types
Instance
p5124
(dp5125
g10
(ics475_types
FeatureVector
p5126
(dp5127
g13
(dp5128
I1
F-1.500285
sI2
F-0.205346
sI3
F1.1186
sI4
F-0.730032
sI10
F1.0
ssbsg15
g0
(g16
g2
Ntp5129
Rp5130
(dp5131
g15
I1
sbsba(ics475_types
Instance
p5132
(dp5133
g10
(ics475_types
FeatureVector
p5134
(dp5135
g13
(dp5136
I8
F1.0
sI1
F0.526047
sI2
F0.370325
sI3
F-0.940413
sI4
F2.211461
ssbsg15
g0
(g16
g2
Ntp5137
Rp5138
(dp5139
g15
I1
sbsba(ics475_types
Instance
p5140
(dp5141
g10
(ics475_types
FeatureVector
p5142
(dp5143
g13
(dp5144
I1
F-1.882799
sI2
F0.696719
sI3
F0.517371
sI4
F0.60002
sI7
F1.0
ssbsg15
g0
(g16
g2
Ntp5145
Rp5146
(dp5147
g15
I0
sbsba(ics475_types
Instance
p5148
(dp5149
g10
(ics475_types
FeatureVector
p5150
(dp5151
g13
(dp5152
I1
F-0.189157
sI2
F-1.242811
sI3
F1.942422
sI4
F-1.369023
sI5
F1.0
ssbsg15
g0
(g16
g2
Ntp5153
Rp5154
(dp5155
g15
I0
sbsba(ics475_types
Instance
p5156
(dp5157
g10
(ics475_types
FeatureVector
p5158
(dp5159
g13
(dp5160
I1
F-1.577767
sI2
F1.081761
sI3
F0.724702
sI4
F2.556987
sI6
F1.0
ssbsg15
g0
(g16
g2
Ntp5161
Rp5162
(dp5163
g15
I0
sbsba(ics475_types
Instance
p5164
(dp5165
g10
(ics475_types
FeatureVector
p5166
(dp5167
g13
(dp5168
I1
F0.611739
sI2
F0.84338
sI3
F-0.734515
sI4
F0.54607
sI6
F1.0
ssbsg15
g0
(g16
g2
Ntp5169
Rp5170
(dp5171
g15
I0
sbsba(ics475_types
Instance
p5172
(dp5173
g10
(ics475_types
FeatureVector
p5174
(dp5175
g13
(dp5176
I1
F0.476428
sI2
F2.623847
sI3
F1.843247
sI4
F0.399199
sI5
F1.0
ssbsg15
g0
(g16
g2
Ntp5177
Rp5178
(dp5179
g15
I0
sbsba(ics475_types
Instance
p5180
(dp5181
g10
(ics475_types
FeatureVector
p5182
(dp5183
g13
(dp5184
I8
F1.0
sI1
F-0.743347
sI2
F0.402477
sI3
F-0.425817
sI4
F0.085297
ssbsg15
g0
(g16
g2
Ntp5185
Rp5186
(dp5187
g15
I1
sbsba(ics475_types
Instance
p5188
(dp5189
g10
(ics475_types
FeatureVector
p5190
(dp5191
g13
(dp5192
I1
F0.135565
sI2
F-0.821374
sI3
F0.176816
sI4
F1.126982
sI9
F1.0
ssbsg15
g0
(g16
g2
Ntp5193
Rp5194
(dp5195
g15
I1
sbsba(ics475_types
Instance
p5196
(dp5197
g10
(ics475_types
FeatureVector
p5198
(dp5199
g13
(dp5200
I1
F-0.306129
sI2
F-0.504231
sI3
F-0.098765
sI4
F0.177297
sI10
F1.0
ssbsg15
g0
(g16
g2
Ntp5201
Rp5202
(dp5203
g15
I1
sbsba(ics475_types
Instance
p5204
(dp5205
g10
(ics475_types
FeatureVector
p5206
(dp5207
g13
(dp5208
I1
F-0.055846
sI2
F-0.32789
sI3
F1.462642
sI4
F0.390861
sI7
F1.0
ssbsg15
g0
(g16
g2
Ntp5209
Rp5210
(dp5211
g15
I0
sbsba(ics475_types
Instance
p5212
(dp5213
g10
(ics475_types
FeatureVector
p5214
(dp5215
g13
(dp5216
I1
F0.234301
sI2
F0.843986
sI3
F1.240958
sI4
F0.074114
sI7
F1.0
ssbsg15
g0
(g16
g2
Ntp5217
Rp5218
(dp5219
g15
I0
sbsba(ics475_types
Instance
p5220
(dp5221
g10
(ics475_types
FeatureVector
p5222
(dp5223
g13
(dp5224
I1
F0.154901
sI2
F-0.007715
sI3
F0.756543
sI4
F-0.000724
sI9
F1.0
ssbsg15
g0
(g16
g2
Ntp5225
Rp5226
(dp5227
g15
I1
sbsba(ics475_types
Instance
p5228
(dp5229
g10
(ics475_types
FeatureVector
p5230
(dp5231
g13
(dp5232
I8
F1.0
sI1
F-0.287384
sI2
F-0.008503
sI3
F-1.213315
sI4
F0.409947
ssbsg15
g0
(g16
g2
Ntp5233
Rp5234
(dp5235
g15
I1
sbsba(ics475_types
Instance
p5236
(dp5237
g10
(ics475_types
FeatureVector
p5238
(dp5239
g13
(dp5240
I8
F1.0
sI1
F-1.112628
sI2
F0.07934
sI3
F0.793742
sI4
F0.708611
ssbsg15
g0
(g16
g2
Ntp5241
Rp5242
(dp5243
g15
I1
sbsba(ics475_types
Instance
p5244
(dp5245
g10
(ics475_types
FeatureVector
p5246
(dp5247
g13
(dp5248
I1
F0.016947
sI2
F0.382262
sI3
F-1.024046
sI4
F-0.250451
sI9
F1.0
ssbsg15
g0
(g16
g2
Ntp5249
Rp5250
(dp5251
g15
I1
sbsba(ics475_types
Instance
p5252
(dp5253
g10
(ics475_types
FeatureVector
p5254
(dp5255
g13
(dp5256
I8
F1.0
sI1
F0.337056
sI2
F0.475898
sI3
F0.289671
sI4
F-0.661999
ssbsg15
g0
(g16
g2
Ntp5257
Rp5258
(dp5259
g15
I1
sbsba(ics475_types
Instance
p5260
(dp5261
g10
(ics475_types
FeatureVector
p5262
(dp5263
g13
(dp5264
I1
F-0.528382
sI2
F-1.921228
sI3
F-0.513302
sI4
F-1.864801
sI7
F1.0
ssbsg15
g0
(g16
g2
Ntp5265
Rp5266
(dp5267
g15
I0
sbsba(ics475_types
Instance
p5268
(dp5269
g10
(ics475_types
FeatureVector
p5270
(dp5271
g13
(dp5272
I1
F0.69719
sI2
F-0.97807
sI3
F1.297568
sI4
F0.199048
sI5
F1.0
ssbsg15
g0
(g16
g2
Ntp5273
Rp5274
(dp5275
g15
I0
sbsba(ics475_types
Instance
p5276
(dp5277
g10
(ics475_types
FeatureVector
p5278
(dp5279
g13
(dp5280
I1
F-2.306972
sI2
F1.856138
sI3
F-0.512258
sI4
F-0.654794
sI10
F1.0
ssbsg15
g0
(g16
g2
Ntp5281
Rp5282
(dp5283
g15
I1
sbsba(ics475_types
Instance
p5284
(dp5285
g10
(ics475_types
FeatureVector
p5286
(dp5287
g13
(dp5288
I1
F-0.660529
sI2
F-0.392701
sI3
F0.156046
sI4
F-1.911124
sI9
F1.0
ssbsg15
g0
(g16
g2
Ntp5289
Rp5290
(dp5291
g15
I1
sbsba(ics475_types
Instance
p5292
(dp5293
g10
(ics475_types
FeatureVector
p5294
(dp5295
g13
(dp5296
I1
F1.248572
sI2
F1.519321
sI3
F1.510103
sI4
F0.043113
sI9
F1.0
ssbsg15
g0
(g16
g2
Ntp5297
Rp5298
(dp5299
g15
I1
sbsba(ics475_types
Instance
p5300
(dp5301
g10
(ics475_types
FeatureVector
p5302
(dp5303
g13
(dp5304
I1
F0.962707
sI2
F0.299655
sI3
F0.391236
sI4
F0.018813
sI10
F1.0
ssbsg15
g0
(g16
g2
Ntp5305
Rp5306
(dp5307
g15
I1
sbsba(ics475_types
Instance
p5308
(dp5309
g10
(ics475_types
FeatureVector
p5310
(dp5311
g13
(dp5312
I1
F0.713567
sI2
F1.273374
sI3
F-1.040064
sI4
F1.95457
sI10
F1.0
ssbsg15
g0
(g16
g2
Ntp5313
Rp5314
(dp5315
g15
I1
sbsba(ics475_types
Instance
p5316
(dp5317
g10
(ics475_types
FeatureVector
p5318
(dp5319
g13
(dp5320
I1
F0.626845
sI2
F-0.539364
sI3
F-0.502242
sI4
F0.818424
sI9
F1.0
ssbsg15
g0
(g16
g2
Ntp5321
Rp5322
(dp5323
g15
I1
sbsba(ics475_types
Instance
p5324
(dp5325
g10
(ics475_types
FeatureVector
p5326
(dp5327
g13
(dp5328
I1
F0.301287
sI2
F-0.432423
sI3
F-0.174212
sI4
F-0.788984
sI5
F1.0
ssbsg15
g0
(g16
g2
Ntp5329
Rp5330
(dp5331
g15
I0
sbsba(ics475_types
Instance
p5332
(dp5333
g10
(ics475_types
FeatureVector
p5334
(dp5335
g13
(dp5336
I1
F-1.647405
sI2
F-0.010795
sI3
F-2.083803
sI4
F-0.287572
sI6
F1.0
ssbsg15
g0
(g16
g2
Ntp5337
Rp5338
(dp5339
g15
I0
sbsba(ics475_types
Instance
p5340
(dp5341
g10
(ics475_types
FeatureVector
p5342
(dp5343
g13
(dp5344
I1
F0.31653
sI2
F1.140352
sI3
F-0.996014
sI4
F-0.909948
sI7
F1.0
ssbsg15
g0
(g16
g2
Ntp5345
Rp5346
(dp5347
g15
I0
sbsba(ics475_types
Instance
p5348
(dp5349
g10
(ics475_types
FeatureVector
p5350
(dp5351
g13
(dp5352
I1
F-0.606217
sI2
F-2.067434
sI3
F-2.243257
sI4
F-0.095158
sI7
F1.0
ssbsg15
g0
(g16
g2
Ntp5353
Rp5354
(dp5355
g15
I0
sbsba(ics475_types
Instance
p5356
(dp5357
g10
(ics475_types
FeatureVector
p5358
(dp5359
g13
(dp5360
I1
F0.131398
sI2
F0.251834
sI3
F1.107887
sI4
F-1.669491
sI6
F1.0
ssbsg15
g0
(g16
g2
Ntp5361
Rp5362
(dp5363
g15
I0
sbsba(ics475_types
Instance
p5364
(dp5365
g10
(ics475_types
FeatureVector
p5366
(dp5367
g13
(dp5368
I1
F1.305222
sI2
F-0.829313
sI3
F-0.119297
sI4
F-0.219061
sI7
F1.0
ssbsg15
g0
(g16
g2
Ntp5369
Rp5370
(dp5371
g15
I0
sbsba(ics475_types
Instance
p5372
(dp5373
g10
(ics475_types
FeatureVector
p5374
(dp5375
g13
(dp5376
I1
F-0.714316
sI2
F0.084092
sI3
F0.116897
sI4
F0.792411
sI9
F1.0
ssbsg15
g0
(g16
g2
Ntp5377
Rp5378
(dp5379
g15
I1
sbsba(ics475_types
Instance
p5380
(dp5381
g10
(ics475_types
FeatureVector
p5382
(dp5383
g13
(dp5384
I1
F-0.879348
sI2
F0.979329
sI3
F-0.858871
sI4
F1.275881
sI5
F1.0
ssbsg15
g0
(g16
g2
Ntp5385
Rp5386
(dp5387
g15
I0
sbsba(ics475_types
Instance
p5388
(dp5389
g10
(ics475_types
FeatureVector
p5390
(dp5391
g13
(dp5392
I1
F-0.306518
sI2
F0.993731
sI3
F0.328526
sI4
F-0.365527
sI6
F1.0
ssbsg15
g0
(g16
g2
Ntp5393
Rp5394
(dp5395
g15
I0
sbsba(ics475_types
Instance
p5396
(dp5397
g10
(ics475_types
FeatureVector
p5398
(dp5399
g13
(dp5400
I1
F-0.120122
sI2
F0.729368
sI3
F-0.976942
sI4
F0.706264
sI9
F1.0
ssbsg15
g0
(g16
g2
Ntp5401
Rp5402
(dp5403
g15
I1
sbsba(ics475_types
Instance
p5404
(dp5405
g10
(ics475_types
FeatureVector
p5406
(dp5407
g13
(dp5408
I8
F1.0
sI1
F-0.40674
sI2
F0.142586
sI3
F0.368171
sI4
F-0.465043
ssbsg15
g0
(g16
g2
Ntp5409
Rp5410
(dp5411
g15
I1
sbsba(ics475_types
Instance
p5412
(dp5413
g10
(ics475_types
FeatureVector
p5414
(dp5415
g13
(dp5416
I1
F-0.834292
sI2
F-0.08505
sI3
F0.685159
sI4
F0.68822
sI6
F1.0
ssbsg15
g0
(g16
g2
Ntp5417
Rp5418
(dp5419
g15
I0
sbsba(ics475_types
Instance
p5420
(dp5421
g10
(ics475_types
FeatureVector
p5422
(dp5423
g13
(dp5424
I8
F1.0
sI1
F0.024004
sI2
F-0.086942
sI3
F-0.188613
sI4
F-0.948658
ssbsg15
g0
(g16
g2
Ntp5425
Rp5426
(dp5427
g15
I1
sbsba(ics475_types
Instance
p5428
(dp5429
g10
(ics475_types
FeatureVector
p5430
(dp5431
g13
(dp5432
I1
F0.878704
sI2
F0.755097
sI3
F0.712313
sI4
F1.899099
sI9
F1.0
ssbsg15
g0
(g16
g2
Ntp5433
Rp5434
(dp5435
g15
I1
sbsba(ics475_types
Instance
p5436
(dp5437
g10
(ics475_types
FeatureVector
p5438
(dp5439
g13
(dp5440
I1
F1.204837
sI2
F-1.809088
sI3
F0.191045
sI4
F-0.272655
sI7
F1.0
ssbsg15
g0
(g16
g2
Ntp5441
Rp5442
(dp5443
g15
I0
sbsba(ics475_types
Instance
p5444
(dp5445
g10
(ics475_types
FeatureVector
p5446
(dp5447
g13
(dp5448
I1
F0.036726
sI2
F0.392212
sI3
F0.85625
sI4
F0.189695
sI5
F1.0
ssbsg15
g0
(g16
g2
Ntp5449
Rp5450
(dp5451
g15
I0
sbsba(ics475_types
Instance
p5452
(dp5453
g10
(ics475_types
FeatureVector
p5454
(dp5455
g13
(dp5456
I1
F-0.559625
sI2
F-0.327563
sI3
F-0.358884
sI4
F1.798496
sI6
F1.0
ssbsg15
g0
(g16
g2
Ntp5457
Rp5458
(dp5459
g15
I0
sbsba(ics475_types
Instance
p5460
(dp5461
g10
(ics475_types
FeatureVector
p5462
(dp5463
g13
(dp5464
I8
F1.0
sI1
F0.449171
sI2
F0.890911
sI3
F-0.878626
sI4
F0.618358
ssbsg15
g0
(g16
g2
Ntp5465
Rp5466
(dp5467
g15
I1
sbsba(ics475_types
Instance
p5468
(dp5469
g10
(ics475_types
FeatureVector
p5470
(dp5471
g13
(dp5472
I1
F0.294722
sI2
F-0.606198
sI3
F0.468306
sI4
F-0.553767
sI5
F1.0
ssbsg15
g0
(g16
g2
Ntp5473
Rp5474
(dp5475
g15
I0
sbsba(ics475_types
Instance
p5476
(dp5477
g10
(ics475_types
FeatureVector
p5478
(dp5479
g13
(dp5480
I8
F1.0
sI1
F-0.39946
sI2
F-0.50548
sI3
F-0.714531
sI4
F0.516479
ssbsg15
g0
(g16
g2
Ntp5481
Rp5482
(dp5483
g15
I1
sbsba(ics475_types
Instance
p5484
(dp5485
g10
(ics475_types
FeatureVector
p5486
(dp5487
g13
(dp5488
I1
F-0.225528
sI2
F-0.489269
sI3
F1.075687
sI4
F-1.143213
sI9
F1.0
ssbsg15
g0
(g16
g2
Ntp5489
Rp5490
(dp5491
g15
I1
sbsba(ics475_types
Instance
p5492
(dp5493
g10
(ics475_types
FeatureVector
p5494
(dp5495
g13
(dp5496
I1
F0.108084
sI2
F-0.648355
sI3
F0.718842
sI4
F1.842392
sI9
F1.0
ssbsg15
g0
(g16
g2
Ntp5497
Rp5498
(dp5499
g15
I1
sbsba(ics475_types
Instance
p5500
(dp5501
g10
(ics475_types
FeatureVector
p5502
(dp5503
g13
(dp5504
I1
F-0.115111
sI2
F0.761733
sI3
F-2.257093
sI4
F-0.956832
sI5
F1.0
ssbsg15
g0
(g16
g2
Ntp5505
Rp5506
(dp5507
g15
I0
sbsba(ics475_types
Instance
p5508
(dp5509
g10
(ics475_types
FeatureVector
p5510
(dp5511
g13
(dp5512
I1
F1.136777
sI2
F-0.16533
sI3
F-0.265256
sI4
F0.123462
sI10
F1.0
ssbsg15
g0
(g16
g2
Ntp5513
Rp5514
(dp5515
g15
I1
sbsba(ics475_types
Instance
p5516
(dp5517
g10
(ics475_types
FeatureVector
p5518
(dp5519
g13
(dp5520
I1
F-0.457042
sI2
F-0.478152
sI3
F0.253704
sI4
F0.826916
sI7
F1.0
ssbsg15
g0
(g16
g2
Ntp5521
Rp5522
(dp5523
g15
I0
sbsba(ics475_types
Instance
p5524
(dp5525
g10
(ics475_types
FeatureVector
p5526
(dp5527
g13
(dp5528
I1
F-0.440767
sI2
F-0.798738
sI3
F-0.244168
sI4
F-0.506041
sI10
F1.0
ssbsg15
g0
(g16
g2
Ntp5529
Rp5530
(dp5531
g15
I1
sbsba(ics475_types
Instance
p5532
(dp5533
g10
(ics475_types
FeatureVector
p5534
(dp5535
g13
(dp5536
I1
F1.072579
sI2
F-1.177375
sI3
F-0.98827
sI4
F0.094959
sI7
F1.0
ssbsg15
g0
(g16
g2
Ntp5537
Rp5538
(dp5539
g15
I0
sbsba(ics475_types
Instance
p5540
(dp5541
g10
(ics475_types
FeatureVector
p5542
(dp5543
g13
(dp5544
I1
F0.197023
sI2
F0.464776
sI3
F-1.166839
sI4
F-1.777512
sI6
F1.0
ssbsg15
g0
(g16
g2
Ntp5545
Rp5546
(dp5547
g15
I0
sbsba(ics475_types
Instance
p5548
(dp5549
g10
(ics475_types
FeatureVector
p5550
(dp5551
g13
(dp5552
I1
F-0.846725
sI2
F1.563251
sI3
F0.97233
sI4
F0.5102
sI7
F1.0
ssbsg15
g0
(g16
g2
Ntp5553
Rp5554
(dp5555
g15
I0
sbsba(ics475_types
Instance
p5556
(dp5557
g10
(ics475_types
FeatureVector
p5558
(dp5559
g13
(dp5560
I1
F0.321478
sI2
F-0.562936
sI3
F-1.295334
sI4
F2.423579
sI9
F1.0
ssbsg15
g0
(g16
g2
Ntp5561
Rp5562
(dp5563
g15
I1
sbsba(ics475_types
Instance
p5564
(dp5565
g10
(ics475_types
FeatureVector
p5566
(dp5567
g13
(dp5568
I1
F0.014548
sI2
F-0.365754
sI3
F-1.46238
sI4
F0.651667
sI9
F1.0
ssbsg15
g0
(g16
g2
Ntp5569
Rp5570
(dp5571
g15
I1
sbsba(ics475_types
Instance
p5572
(dp5573
g10
(ics475_types
FeatureVector
p5574
(dp5575
g13
(dp5576
I1
F0.542754
sI2
F-1.580056
sI3
F-2.257778
sI4
F-0.165425
sI9
F1.0
ssbsg15
g0
(g16
g2
Ntp5577
Rp5578
(dp5579
g15
I1
sbsba(ics475_types
Instance
p5580
(dp5581
g10
(ics475_types
FeatureVector
p5582
(dp5583
g13
(dp5584
I1
F-0.785252
sI2
F1.420704
sI3
F0.283317
sI4
F-0.555442
sI5
F1.0
ssbsg15
g0
(g16
g2
Ntp5585
Rp5586
(dp5587
g15
I0
sbsba(ics475_types
Instance
p5588
(dp5589
g10
(ics475_types
FeatureVector
p5590
(dp5591
g13
(dp5592
I1
F-0.104222
sI2
F0.005065
sI3
F0.99482
sI4
F-1.511918
sI6
F1.0
ssbsg15
g0
(g16
g2
Ntp5593
Rp5594
(dp5595
g15
I0
sbsba(ics475_types
Instance
p5596
(dp5597
g10
(ics475_types
FeatureVector
p5598
(dp5599
g13
(dp5600
I8
F1.0
sI1
F1.405689
sI2
F-1.197993
sI3
F1.307562
sI4
F0.203258
ssbsg15
g0
(g16
g2
Ntp5601
Rp5602
(dp5603
g15
I1
sbsba(ics475_types
Instance
p5604
(dp5605
g10
(ics475_types
FeatureVector
p5606
(dp5607
g13
(dp5608
I8
F1.0
sI1
F0.313665
sI2
F1.519812
sI3
F-0.22837
sI4
F1.848377
ssbsg15
g0
(g16
g2
Ntp5609
Rp5610
(dp5611
g15
I1
sbsba(ics475_types
Instance
p5612
(dp5613
g10
(ics475_types
FeatureVector
p5614
(dp5615
g13
(dp5616
I1
F-0.698881
sI2
F-0.469412
sI3
F0.357417
sI4
F-0.548438
sI5
F1.0
ssbsg15
g0
(g16
g2
Ntp5617
Rp5618
(dp5619
g15
I0
sbsba(ics475_types
Instance
p5620
(dp5621
g10
(ics475_types
FeatureVector
p5622
(dp5623
g13
(dp5624
I1
F-0.628757
sI2
F-0.817742
sI3
F-0.508721
sI4
F1.030159
sI5
F1.0
ssbsg15
g0
(g16
g2
Ntp5625
Rp5626
(dp5627
g15
I0
sbsba(ics475_types
Instance
p5628
(dp5629
g10
(ics475_types
FeatureVector
p5630
(dp5631
g13
(dp5632
I8
F1.0
sI1
F0.61057
sI2
F0.357435
sI3
F-0.404183
sI4
F-0.852576
ssbsg15
g0
(g16
g2
Ntp5633
Rp5634
(dp5635
g15
I1
sbsba(ics475_types
Instance
p5636
(dp5637
g10
(ics475_types
FeatureVector
p5638
(dp5639
g13
(dp5640
I1
F-0.977895
sI2
F-1.230815
sI3
F0.586433
sI4
F-1.364126
sI6
F1.0
ssbsg15
g0
(g16
g2
Ntp5641
Rp5642
(dp5643
g15
I0
sbsba(ics475_types
Instance
p5644
(dp5645
g10
(ics475_types
FeatureVector
p5646
(dp5647
g13
(dp5648
I1
F0.517911
sI2
F-1.324098
sI3
F-2.638273
sI4
F-0.779086
sI7
F1.0
ssbsg15
g0
(g16
g2
Ntp5649
Rp5650
(dp5651
g15
I0
sbsba(ics475_types
Instance
p5652
(dp5653
g10
(ics475_types
FeatureVector
p5654
(dp5655
g13
(dp5656
I1
F-0.157139
sI2
F-0.29651
sI3
F0.42164
sI4
F-0.114994
sI7
F1.0
ssbsg15
g0
(g16
g2
Ntp5657
Rp5658
(dp5659
g15
I0
sbsba(ics475_types
Instance
p5660
(dp5661
g10
(ics475_types
FeatureVector
p5662
(dp5663
g13
(dp5664
I8
F1.0
sI1
F-0.194456
sI2
F2.539667
sI3
F-1.244197
sI4
F-0.586367
ssbsg15
g0
(g16
g2
Ntp5665
Rp5666
(dp5667
g15
I1
sbsba(ics475_types
Instance
p5668
(dp5669
g10
(ics475_types
FeatureVector
p5670
(dp5671
g13
(dp5672
I1
F0.672271
sI2
F0.797382
sI3
F-1.121828
sI4
F-0.978849
sI10
F1.0
ssbsg15
g0
(g16
g2
Ntp5673
Rp5674
(dp5675
g15
I1
sbsba(ics475_types
Instance
p5676
(dp5677
g10
(ics475_types
FeatureVector
p5678
(dp5679
g13
(dp5680
I1
F1.560877
sI2
F-1.169031
sI3
F2.623063
sI4
F-0.149528
sI7
F1.0
ssbsg15
g0
(g16
g2
Ntp5681
Rp5682
(dp5683
g15
I0
sbsba(ics475_types
Instance
p5684
(dp5685
g10
(ics475_types
FeatureVector
p5686
(dp5687
g13
(dp5688
I1
F0.714122
sI2
F-2.625057
sI3
F2.108806
sI4
F0.825838
sI5
F1.0
ssbsg15
g0
(g16
g2
Ntp5689
Rp5690
(dp5691
g15
I0
sbsba(ics475_types
Instance
p5692
(dp5693
g10
(ics475_types
FeatureVector
p5694
(dp5695
g13
(dp5696
I1
F-0.917166
sI2
F-1.368169
sI3
F2.186413
sI4
F0.317125
sI10
F1.0
ssbsg15
g0
(g16
g2
Ntp5697
Rp5698
(dp5699
g15
I1
sbsba(ics475_types
Instance
p5700
(dp5701
g10
(ics475_types
FeatureVector
p5702
(dp5703
g13
(dp5704
I1
F-1.138387
sI2
F-2.878258
sI3
F0.382929
sI4
F0.126262
sI10
F1.0
ssbsg15
g0
(g16
g2
Ntp5705
Rp5706
(dp5707
g15
I1
sbsba(ics475_types
Instance
p5708
(dp5709
g10
(ics475_types
FeatureVector
p5710
(dp5711
g13
(dp5712
I1
F0.946889
sI2
F1.706731
sI3
F-1.574707
sI4
F1.700857
sI9
F1.0
ssbsg15
g0
(g16
g2
Ntp5713
Rp5714
(dp5715
g15
I1
sbsba(ics475_types
Instance
p5716
(dp5717
g10
(ics475_types
FeatureVector
p5718
(dp5719
g13
(dp5720
I1
F1.23444
sI2
F0.28141
sI3
F-0.545591
sI4
F-0.35701
sI7
F1.0
ssbsg15
g0
(g16
g2
Ntp5721
Rp5722
(dp5723
g15
I0
sbsba(ics475_types
Instance
p5724
(dp5725
g10
(ics475_types
FeatureVector
p5726
(dp5727
g13
(dp5728
I1
F0.822896
sI2
F-0.529204
sI3
F-1.780886
sI4
F-0.616537
sI7
F1.0
ssbsg15
g0
(g16
g2
Ntp5729
Rp5730
(dp5731
g15
I0
sbsba(ics475_types
Instance
p5732
(dp5733
g10
(ics475_types
FeatureVector
p5734
(dp5735
g13
(dp5736
I1
F-0.41629
sI2
F3.345535
sI3
F-0.079565
sI4
F1.517511
sI5
F1.0
ssbsg15
g0
(g16
g2
Ntp5737
Rp5738
(dp5739
g15
I0
sbsba(ics475_types
Instance
p5740
(dp5741
g10
(ics475_types
FeatureVector
p5742
(dp5743
g13
(dp5744
I1
F1.682503
sI2
F1.196108
sI3
F0.03435
sI4
F-1.254193
sI9
F1.0
ssbsg15
g0
(g16
g2
Ntp5745
Rp5746
(dp5747
g15
I1
sbsba(ics475_types
Instance
p5748
(dp5749
g10
(ics475_types
FeatureVector
p5750
(dp5751
g13
(dp5752
I1
F0.260811
sI2
F0.74149
sI3
F-0.712393
sI4
F0.202765
sI6
F1.0
ssbsg15
g0
(g16
g2
Ntp5753
Rp5754
(dp5755
g15
I0
sbsba(ics475_types
Instance
p5756
(dp5757
g10
(ics475_types
FeatureVector
p5758
(dp5759
g13
(dp5760
I8
F1.0
sI1
F-0.210397
sI2
F1.591334
sI3
F-0.416377
sI4
F0.868799
ssbsg15
g0
(g16
g2
Ntp5761
Rp5762
(dp5763
g15
I1
sbsba(ics475_types
Instance
p5764
(dp5765
g10
(ics475_types
FeatureVector
p5766
(dp5767
g13
(dp5768
I1
F2.577098
sI2
F0.79161
sI3
F0.493651
sI4
F0.763553
sI7
F1.0
ssbsg15
g0
(g16
g2
Ntp5769
Rp5770
(dp5771
g15
I0
sbsba(ics475_types
Instance
p5772
(dp5773
g10
(ics475_types
FeatureVector
p5774
(dp5775
g13
(dp5776
I1
F0.578134
sI2
F-0.507091
sI3
F0.774404
sI4
F-0.921824
sI7
F1.0
ssbsg15
g0
(g16
g2
Ntp5777
Rp5778
(dp5779
g15
I0
sbsba(ics475_types
Instance
p5780
(dp5781
g10
(ics475_types
FeatureVector
p5782
(dp5783
g13
(dp5784
I1
F-0.354447
sI2
F0.09966
sI3
F0.499866
sI4
F0.301284
sI7
F1.0
ssbsg15
g0
(g16
g2
Ntp5785
Rp5786
(dp5787
g15
I0
sbsba(ics475_types
Instance
p5788
(dp5789
g10
(ics475_types
FeatureVector
p5790
(dp5791
g13
(dp5792
I1
F1.249255
sI2
F1.38103
sI3
F1.791626
sI4
F-0.528259
sI6
F1.0
ssbsg15
g0
(g16
g2
Ntp5793
Rp5794
(dp5795
g15
I0
sbsba(ics475_types
Instance
p5796
(dp5797
g10
(ics475_types
FeatureVector
p5798
(dp5799
g13
(dp5800
I1
F-0.943014
sI2
F1.104956
sI3
F-0.110804
sI4
F0.769944
sI6
F1.0
ssbsg15
g0
(g16
g2
Ntp5801
Rp5802
(dp5803
g15
I0
sbsba(ics475_types
Instance
p5804
(dp5805
g10
(ics475_types
FeatureVector
p5806
(dp5807
g13
(dp5808
I1
F1.380188
sI2
F-0.884449
sI3
F0.033247
sI4
F1.626612
sI7
F1.0
ssbsg15
g0
(g16
g2
Ntp5809
Rp5810
(dp5811
g15
I0
sbsba(ics475_types
Instance
p5812
(dp5813
g10
(ics475_types
FeatureVector
p5814
(dp5815
g13
(dp5816
I1
F-0.169925
sI2
F3.770401
sI3
F0.270147
sI4
F0.915
sI7
F1.0
ssbsg15
g0
(g16
g2
Ntp5817
Rp5818
(dp5819
g15
I0
sbsba(ics475_types
Instance
p5820
(dp5821
g10
(ics475_types
FeatureVector
p5822
(dp5823
g13
(dp5824
I8
F1.0
sI1
F0.716376
sI2
F-0.009901
sI3
F-1.833668
sI4
F-0.026731
ssbsg15
g0
(g16
g2
Ntp5825
Rp5826
(dp5827
g15
I1
sbsba(ics475_types
Instance
p5828
(dp5829
g10
(ics475_types
FeatureVector
p5830
(dp5831
g13
(dp5832
I1
F1.02208
sI2
F-0.844832
sI3
F0.621647
sI4
F1.770263
sI5
F1.0
ssbsg15
g0
(g16
g2
Ntp5833
Rp5834
(dp5835
g15
I0
sbsba(ics475_types
Instance
p5836
(dp5837
g10
(ics475_types
FeatureVector
p5838
(dp5839
g13
(dp5840
I1
F1.628694
sI2
F1.772595
sI3
F-0.239292
sI4
F1.598837
sI6
F1.0
ssbsg15
g0
(g16
g2
Ntp5841
Rp5842
(dp5843
g15
I0
sbsba(ics475_types
Instance
p5844
(dp5845
g10
(ics475_types
FeatureVector
p5846
(dp5847
g13
(dp5848
I1
F-0.741642
sI2
F-1.333849
sI3
F-0.675291
sI4
F0.418752
sI6
F1.0
ssbsg15
g0
(g16
g2
Ntp5849
Rp5850
(dp5851
g15
I0
sbsba(ics475_types
Instance
p5852
(dp5853
g10
(ics475_types
FeatureVector
p5854
(dp5855
g13
(dp5856
I1
F1.69217
sI2
F0.299409
sI3
F1.148188
sI4
F1.819693
sI9
F1.0
ssbsg15
g0
(g16
g2
Ntp5857
Rp5858
(dp5859
g15
I1
sbsba(ics475_types
Instance
p5860
(dp5861
g10
(ics475_types
FeatureVector
p5862
(dp5863
g13
(dp5864
I1
F0.94133
sI2
F-0.18494
sI3
F0.628422
sI4
F-0.212919
sI9
F1.0
ssbsg15
g0
(g16
g2
Ntp5865
Rp5866
(dp5867
g15
I1
sbsba(ics475_types
Instance
p5868
(dp5869
g10
(ics475_types
FeatureVector
p5870
(dp5871
g13
(dp5872
I8
F1.0
sI1
F-0.405091
sI2
F0.799985
sI3
F-0.055967
sI4
F2.526421
ssbsg15
g0
(g16
g2
Ntp5873
Rp5874
(dp5875
g15
I1
sbsba(ics475_types
Instance
p5876
(dp5877
g10
(ics475_types
FeatureVector
p5878
(dp5879
g13
(dp5880
I8
F1.0
sI1
F1.16446
sI2
F0.829378
sI3
F0.93846
sI4
F-0.773498
ssbsg15
g0
(g16
g2
Ntp5881
Rp5882
(dp5883
g15
I1
sbsba(ics475_types
Instance
p5884
(dp5885
g10
(ics475_types
FeatureVector
p5886
(dp5887
g13
(dp5888
I1
F-0.42515
sI2
F-0.231974
sI3
F0.92202
sI4
F0.934717
sI5
F1.0
ssbsg15
g0
(g16
g2
Ntp5889
Rp5890
(dp5891
g15
I0
sbsba(ics475_types
Instance
p5892
(dp5893
g10
(ics475_types
FeatureVector
p5894
(dp5895
g13
(dp5896
I1
F-2.164514
sI2
F-0.271614
sI3
F2.20862
sI4
F1.295096
sI9
F1.0
ssbsg15
g0
(g16
g2
Ntp5897
Rp5898
(dp5899
g15
I1
sbsba(ics475_types
Instance
p5900
(dp5901
g10
(ics475_types
FeatureVector
p5902
(dp5903
g13
(dp5904
I8
F1.0
sI1
F0.0063
sI2
F-0.554609
sI3
F-0.486157
sI4
F1.434653
ssbsg15
g0
(g16
g2
Ntp5905
Rp5906
(dp5907
g15
I1
sbsba(ics475_types
Instance
p5908
(dp5909
g10
(ics475_types
FeatureVector
p5910
(dp5911
g13
(dp5912
I1
F0.588062
sI2
F-0.492361
sI3
F1.371995
sI4
F0.549475
sI6
F1.0
ssbsg15
g0
(g16
g2
Ntp5913
Rp5914
(dp5915
g15
I0
sbsba(ics475_types
Instance
p5916
(dp5917
g10
(ics475_types
FeatureVector
p5918
(dp5919
g13
(dp5920
I1
F1.604689
sI2
F0.932837
sI3
F-0.415219
sI4
F0.536494
sI5
F1.0
ssbsg15
g0
(g16
g2
Ntp5921
Rp5922
(dp5923
g15
I0
sbsba(ics475_types
Instance
p5924
(dp5925
g10
(ics475_types
FeatureVector
p5926
(dp5927
g13
(dp5928
I8
F1.0
sI1
F0.972907
sI2
F-0.013847
sI3
F0.533359
sI4
F1.361687
ssbsg15
g0
(g16
g2
Ntp5929
Rp5930
(dp5931
g15
I1
sbsba(ics475_types
Instance
p5932
(dp5933
g10
(ics475_types
FeatureVector
p5934
(dp5935
g13
(dp5936
I1
F1.283399
sI2
F-1.553984
sI3
F0.462525
sI4
F-2.192236
sI9
F1.0
ssbsg15
g0
(g16
g2
Ntp5937
Rp5938
(dp5939
g15
I1
sbsba(ics475_types
Instance
p5940
(dp5941
g10
(ics475_types
FeatureVector
p5942
(dp5943
g13
(dp5944
I8
F1.0
sI1
F-1.360483
sI2
F-0.821102
sI3
F-2.483708
sI4
F0.356854
ssbsg15
g0
(g16
g2
Ntp5945
Rp5946
(dp5947
g15
I1
sbsba(ics475_types
Instance
p5948
(dp5949
g10
(ics475_types
FeatureVector
p5950
(dp5951
g13
(dp5952
I1
F0.337126
sI2
F0.353124
sI3
F-1.015305
sI4
F-0.064523
sI5
F1.0
ssbsg15
g0
(g16
g2
Ntp5953
Rp5954
(dp5955
g15
I0
sbsba(ics475_types
Instance
p5956
(dp5957
g10
(ics475_types
FeatureVector
p5958
(dp5959
g13
(dp5960
I1
F0.14839
sI2
F-2.787906
sI3
F1.999386
sI4
F-0.877623
sI6
F1.0
ssbsg15
g0
(g16
g2
Ntp5961
Rp5962
(dp5963
g15
I0
sbsba(ics475_types
Instance
p5964
(dp5965
g10
(ics475_types
FeatureVector
p5966
(dp5967
g13
(dp5968
I1
F-0.407494
sI2
F-1.065345
sI3
F-0.148309
sI4
F0.963785
sI6
F1.0
ssbsg15
g0
(g16
g2
Ntp5969
Rp5970
(dp5971
g15
I0
sbsba(ics475_types
Instance
p5972
(dp5973
g10
(ics475_types
FeatureVector
p5974
(dp5975
g13
(dp5976
I8
F1.0
sI1
F0.04694
sI2
F-0.079466
sI3
F0.519738
sI4
F-1.288284
ssbsg15
g0
(g16
g2
Ntp5977
Rp5978
(dp5979
g15
I1
sbsba(ics475_types
Instance
p5980
(dp5981
g10
(ics475_types
FeatureVector
p5982
(dp5983
g13
(dp5984
I1
F-0.703285
sI2
F-0.934936
sI3
F-0.112053
sI4
F1.04448
sI6
F1.0
ssbsg15
g0
(g16
g2
Ntp5985
Rp5986
(dp5987
g15
I0
sbsba(ics475_types
Instance
p5988
(dp5989
g10
(ics475_types
FeatureVector
p5990
(dp5991
g13
(dp5992
I1
F1.012007
sI2
F1.201426
sI3
F-1.810577
sI4
F-0.670212
sI7
F1.0
ssbsg15
g0
(g16
g2
Ntp5993
Rp5994
(dp5995
g15
I0
sbsba(ics475_types
Instance
p5996
(dp5997
g10
(ics475_types
FeatureVector
p5998
(dp5999
g13
(dp6000
I1
F-1.364199
sI2
F0.054396
sI3
F-0.327045
sI4
F2.064138
sI5
F1.0
ssbsg15
g0
(g16
g2
Ntp6001
Rp6002
(dp6003
g15
I0
sbsba(ics475_types
Instance
p6004
(dp6005
g10
(ics475_types
FeatureVector
p6006
(dp6007
g13
(dp6008
I1
F0.447443
sI2
F0.565217
sI3
F0.835662
sI4
F0.084535
sI9
F1.0
ssbsg15
g0
(g16
g2
Ntp6009
Rp6010
(dp6011
g15
I1
sbsba(ics475_types
Instance
p6012
(dp6013
g10
(ics475_types
FeatureVector
p6014
(dp6015
g13
(dp6016
I1
F0.067826
sI2
F-0.861352
sI3
F1.159379
sI4
F-1.630244
sI7
F1.0
ssbsg15
g0
(g16
g2
Ntp6017
Rp6018
(dp6019
g15
I0
sbsba(ics475_types
Instance
p6020
(dp6021
g10
(ics475_types
FeatureVector
p6022
(dp6023
g13
(dp6024
I1
F0.510004
sI2
F0.856989
sI3
F-0.31827
sI4
F0.338321
sI7
F1.0
ssbsg15
g0
(g16
g2
Ntp6025
Rp6026
(dp6027
g15
I0
sbsba(ics475_types
Instance
p6028
(dp6029
g10
(ics475_types
FeatureVector
p6030
(dp6031
g13
(dp6032
I8
F1.0
sI1
F-1.403869
sI2
F0.135146
sI3
F-0.728152
sI4
F0.422243
ssbsg15
g0
(g16
g2
Ntp6033
Rp6034
(dp6035
g15
I1
sbsba(ics475_types
Instance
p6036
(dp6037
g10
(ics475_types
FeatureVector
p6038
(dp6039
g13
(dp6040
I1
F-1.212789
sI2
F-1.035413
sI3
F-0.349906
sI4
F0.39194
sI7
F1.0
ssbsg15
g0
(g16
g2
Ntp6041
Rp6042
(dp6043
g15
I0
sbsba(ics475_types
Instance
p6044
(dp6045
g10
(ics475_types
FeatureVector
p6046
(dp6047
g13
(dp6048
I1
F0.706918
sI2
F1.029577
sI3
F0.985369
sI4
F0.813646
sI7
F1.0
ssbsg15
g0
(g16
g2
Ntp6049
Rp6050
(dp6051
g15
I0
sbsba(ics475_types
Instance
p6052
(dp6053
g10
(ics475_types
FeatureVector
p6054
(dp6055
g13
(dp6056
I1
F-0.182663
sI2
F0.591325
sI3
F-0.355965
sI4
F0.289844
sI10
F1.0
ssbsg15
g0
(g16
g2
Ntp6057
Rp6058
(dp6059
g15
I1
sbsba(ics475_types
Instance
p6060
(dp6061
g10
(ics475_types
FeatureVector
p6062
(dp6063
g13
(dp6064
I1
F-0.442409
sI2
F0.770635
sI3
F-0.622708
sI4
F-0.307651
sI10
F1.0
ssbsg15
g0
(g16
g2
Ntp6065
Rp6066
(dp6067
g15
I1
sbsba(ics475_types
Instance
p6068
(dp6069
g10
(ics475_types
FeatureVector
p6070
(dp6071
g13
(dp6072
I1
F-0.675476
sI2
F1.020442
sI3
F2.019429
sI4
F0.627283
sI10
F1.0
ssbsg15
g0
(g16
g2
Ntp6073
Rp6074
(dp6075
g15
I1
sbsba(ics475_types
Instance
p6076
(dp6077
g10
(ics475_types
FeatureVector
p6078
(dp6079
g13
(dp6080
I1
F1.475281
sI2
F-0.431136
sI3
F1.985561
sI4
F0.762534
sI10
F1.0
ssbsg15
g0
(g16
g2
Ntp6081
Rp6082
(dp6083
g15
I1
sbsba(ics475_types
Instance
p6084
(dp6085
g10
(ics475_types
FeatureVector
p6086
(dp6087
g13
(dp6088
I1
F1.414656
sI2
F0.169847
sI3
F-0.292717
sI4
F1.183723
sI9
F1.0
ssbsg15
g0
(g16
g2
Ntp6089
Rp6090
(dp6091
g15
I1
sbsba(ics475_types
Instance
p6092
(dp6093
g10
(ics475_types
FeatureVector
p6094
(dp6095
g13
(dp6096
I8
F1.0
sI1
F0.334581
sI2
F-0.663928
sI3
F1.325387
sI4
F-1.815317
ssbsg15
g0
(g16
g2
Ntp6097
Rp6098
(dp6099
g15
I1
sbsba(ics475_types
Instance
p6100
(dp6101
g10
(ics475_types
FeatureVector
p6102
(dp6103
g13
(dp6104
I1
F-0.356251
sI2
F-0.754767
sI3
F-0.267057
sI4
F1.132254
sI5
F1.0
ssbsg15
g0
(g16
g2
Ntp6105
Rp6106
(dp6107
g15
I0
sbsba(ics475_types
Instance
p6108
(dp6109
g10
(ics475_types
FeatureVector
p6110
(dp6111
g13
(dp6112
I1
F-2.083454
sI2
F1.230721
sI3
F-1.642425
sI4
F1.479011
sI7
F1.0
ssbsg15
g0
(g16
g2
Ntp6113
Rp6114
(dp6115
g15
I0
sbsba(ics475_types
Instance
p6116
(dp6117
g10
(ics475_types
FeatureVector
p6118
(dp6119
g13
(dp6120
I1
F1.239117
sI2
F-0.45314
sI3
F-0.534477
sI4
F-0.31478
sI10
F1.0
ssbsg15
g0
(g16
g2
Ntp6121
Rp6122
(dp6123
g15
I1
sbsba(ics475_types
Instance
p6124
(dp6125
g10
(ics475_types
FeatureVector
p6126
(dp6127
g13
(dp6128
I1
F-2.256885
sI2
F0.329795
sI3
F-0.128847
sI4
F-0.183524
sI5
F1.0
ssbsg15
g0
(g16
g2
Ntp6129
Rp6130
(dp6131
g15
I0
sbsba(ics475_types
Instance
p6132
(dp6133
g10
(ics475_types
FeatureVector
p6134
(dp6135
g13
(dp6136
I1
F0.466629
sI2
F-1.542598
sI3
F-0.259531
sI4
F0.256397
sI10
F1.0
ssbsg15
g0
(g16
g2
Ntp6137
Rp6138
(dp6139
g15
I1
sbsba(ics475_types
Instance
p6140
(dp6141
g10
(ics475_types
FeatureVector
p6142
(dp6143
g13
(dp6144
I1
F0.613209
sI2
F1.601249
sI3
F1.367347
sI4
F-0.062748
sI5
F1.0
ssbsg15
g0
(g16
g2
Ntp6145
Rp6146
(dp6147
g15
I0
sbsba(ics475_types
Instance
p6148
(dp6149
g10
(ics475_types
FeatureVector
p6150
(dp6151
g13
(dp6152
I1
F-0.429855
sI2
F2.277637
sI3
F0.641658
sI4
F-0.818384
sI10
F1.0
ssbsg15
g0
(g16
g2
Ntp6153
Rp6154
(dp6155
g15
I1
sbsba(ics475_types
Instance
p6156
(dp6157
g10
(ics475_types
FeatureVector
p6158
(dp6159
g13
(dp6160
I8
F1.0
sI1
F0.3427
sI2
F-1.023988
sI3
F-0.536048
sI4
F0.946983
ssbsg15
g0
(g16
g2
Ntp6161
Rp6162
(dp6163
g15
I1
sbsba(ics475_types
Instance
p6164
(dp6165
g10
(ics475_types
FeatureVector
p6166
(dp6167
g13
(dp6168
I1
F1.181261
sI2
F0.986751
sI3
F0.893636
sI4
F0.994735
sI10
F1.0
ssbsg15
g0
(g16
g2
Ntp6169
Rp6170
(dp6171
g15
I1
sbsba(ics475_types
Instance
p6172
(dp6173
g10
(ics475_types
FeatureVector
p6174
(dp6175
g13
(dp6176
I1
F-2.175028
sI2
F-0.403748
sI3
F0.064987
sI4
F-0.159168
sI6
F1.0
ssbsg15
g0
(g16
g2
Ntp6177
Rp6178
(dp6179
g15
I0
sbsba(ics475_types
Instance
p6180
(dp6181
g10
(ics475_types
FeatureVector
p6182
(dp6183
g13
(dp6184
I1
F1.766061
sI2
F0.697618
sI3
F0.134404
sI4
F-0.05186
sI5
F1.0
ssbsg15
g0
(g16
g2
Ntp6185
Rp6186
(dp6187
g15
I0
sbsba(ics475_types
Instance
p6188
(dp6189
g10
(ics475_types
FeatureVector
p6190
(dp6191
g13
(dp6192
I1
F-0.046077
sI2
F-0.141092
sI3
F0.407623
sI4
F-0.339957
sI9
F1.0
ssbsg15
g0
(g16
g2
Ntp6193
Rp6194
(dp6195
g15
I1
sbsba(ics475_types
Instance
p6196
(dp6197
g10
(ics475_types
FeatureVector
p6198
(dp6199
g13
(dp6200
I1
F-0.100256
sI2
F0.475293
sI3
F-0.250147
sI4
F-0.922954
sI7
F1.0
ssbsg15
g0
(g16
g2
Ntp6201
Rp6202
(dp6203
g15
I0
sbsba(ics475_types
Instance
p6204
(dp6205
g10
(ics475_types
FeatureVector
p6206
(dp6207
g13
(dp6208
I8
F1.0
sI1
F-0.753832
sI2
F-1.616705
sI3
F-0.002873
sI4
F-1.933064
ssbsg15
g0
(g16
g2
Ntp6209
Rp6210
(dp6211
g15
I1
sbsba(ics475_types
Instance
p6212
(dp6213
g10
(ics475_types
FeatureVector
p6214
(dp6215
g13
(dp6216
I1
F-0.431013
sI2
F-2.178723
sI3
F0.464752
sI4
F-0.275947
sI7
F1.0
ssbsg15
g0
(g16
g2
Ntp6217
Rp6218
(dp6219
g15
I0
sbsba(ics475_types
Instance
p6220
(dp6221
g10
(ics475_types
FeatureVector
p6222
(dp6223
g13
(dp6224
I1
F0.254975
sI2
F0.241865
sI3
F-0.367937
sI4
F0.232541
sI5
F1.0
ssbsg15
g0
(g16
g2
Ntp6225
Rp6226
(dp6227
g15
I0
sbsba(ics475_types
Instance
p6228
(dp6229
g10
(ics475_types
FeatureVector
p6230
(dp6231
g13
(dp6232
I1
F0.610946
sI2
F0.073072
sI3
F-0.304683
sI4
F0.250382
sI10
F1.0
ssbsg15
g0
(g16
g2
Ntp6233
Rp6234
(dp6235
g15
I1
sbsba(ics475_types
Instance
p6236
(dp6237
g10
(ics475_types
FeatureVector
p6238
(dp6239
g13
(dp6240
I1
F0.065183
sI2
F0.097714
sI3
F0.394964
sI4
F0.81641
sI6
F1.0
ssbsg15
g0
(g16
g2
Ntp6241
Rp6242
(dp6243
g15
I0
sbsba(ics475_types
Instance
p6244
(dp6245
g10
(ics475_types
FeatureVector
p6246
(dp6247
g13
(dp6248
I1
F-0.328358
sI2
F-0.334053
sI3
F-0.330698
sI4
F-1.791339
sI7
F1.0
ssbsg15
g0
(g16
g2
Ntp6249
Rp6250
(dp6251
g15
I0
sbsba(ics475_types
Instance
p6252
(dp6253
g10
(ics475_types
FeatureVector
p6254
(dp6255
g13
(dp6256
I1
F1.611355
sI2
F0.187276
sI3
F-1.319376
sI4
F0.364516
sI7
F1.0
ssbsg15
g0
(g16
g2
Ntp6257
Rp6258
(dp6259
g15
I0
sbsba(ics475_types
Instance
p6260
(dp6261
g10
(ics475_types
FeatureVector
p6262
(dp6263
g13
(dp6264
I1
F1.574169
sI2
F2.329639
sI3
F2.555158
sI4
F1.175836
sI10
F1.0
ssbsg15
g0
(g16
g2
Ntp6265
Rp6266
(dp6267
g15
I1
sbsba(ics475_types
Instance
p6268
(dp6269
g10
(ics475_types
FeatureVector
p6270
(dp6271
g13
(dp6272
I1
F-0.083986
sI2
F-2.193992
sI3
F0.133911
sI4
F0.069842
sI7
F1.0
ssbsg15
g0
(g16
g2
Ntp6273
Rp6274
(dp6275
g15
I0
sbsba(ics475_types
Instance
p6276
(dp6277
g10
(ics475_types
FeatureVector
p6278
(dp6279
g13
(dp6280
I1
F-0.161329
sI2
F-2.304034
sI3
F0.459888
sI4
F1.836508
sI7
F1.0
ssbsg15
g0
(g16
g2
Ntp6281
Rp6282
(dp6283
g15
I0
sbsba(ics475_types
Instance
p6284
(dp6285
g10
(ics475_types
FeatureVector
p6286
(dp6287
g13
(dp6288
I1
F1.139297
sI2
F1.217385
sI3
F0.475696
sI4
F0.74147
sI6
F1.0
ssbsg15
g0
(g16
g2
Ntp6289
Rp6290
(dp6291
g15
I0
sbsba(ics475_types
Instance
p6292
(dp6293
g10
(ics475_types
FeatureVector
p6294
(dp6295
g13
(dp6296
I1
F0.497307
sI2
F0.657993
sI3
F-0.485506
sI4
F-0.867558
sI5
F1.0
ssbsg15
g0
(g16
g2
Ntp6297
Rp6298
(dp6299
g15
I0
sbsba(ics475_types
Instance
p6300
(dp6301
g10
(ics475_types
FeatureVector
p6302
(dp6303
g13
(dp6304
I1
F-0.425666
sI2
F-1.937544
sI3
F0.995424
sI4
F-0.496809
sI6
F1.0
ssbsg15
g0
(g16
g2
Ntp6305
Rp6306
(dp6307
g15
I0
sbsba(ics475_types
Instance
p6308
(dp6309
g10
(ics475_types
FeatureVector
p6310
(dp6311
g13
(dp6312
I1
F-0.697309
sI2
F0.928066
sI3
F-0.177466
sI4
F0.122503
sI7
F1.0
ssbsg15
g0
(g16
g2
Ntp6313
Rp6314
(dp6315
g15
I0
sbsba(ics475_types
Instance
p6316
(dp6317
g10
(ics475_types
FeatureVector
p6318
(dp6319
g13
(dp6320
I1
F0.637491
sI2
F0.15653
sI3
F0.105183
sI4
F-0.662894
sI5
F1.0
ssbsg15
g0
(g16
g2
Ntp6321
Rp6322
(dp6323
g15
I0
sbsba(ics475_types
Instance
p6324
(dp6325
g10
(ics475_types
FeatureVector
p6326
(dp6327
g13
(dp6328
I1
F-0.989459
sI2
F-0.693691
sI3
F-1.717076
sI4
F-0.540829
sI7
F1.0
ssbsg15
g0
(g16
g2
Ntp6329
Rp6330
(dp6331
g15
I0
sbsba(ics475_types
Instance
p6332
(dp6333
g10
(ics475_types
FeatureVector
p6334
(dp6335
g13
(dp6336
I1
F0.811965
sI2
F0.661544
sI3
F-0.884619
sI4
F-0.344964
sI10
F1.0
ssbsg15
g0
(g16
g2
Ntp6337
Rp6338
(dp6339
g15
I1
sbsba(ics475_types
Instance
p6340
(dp6341
g10
(ics475_types
FeatureVector
p6342
(dp6343
g13
(dp6344
I8
F1.0
sI1
F1.548816
sI2
F-0.889586
sI3
F0.276599
sI4
F-0.152543
ssbsg15
g0
(g16
g2
Ntp6345
Rp6346
(dp6347
g15
I1
sbsba(ics475_types
Instance
p6348
(dp6349
g10
(ics475_types
FeatureVector
p6350
(dp6351
g13
(dp6352
I1
F-1.34597
sI2
F-1.10394
sI3
F-0.864405
sI4
F-2.314459
sI6
F1.0
ssbsg15
g0
(g16
g2
Ntp6353
Rp6354
(dp6355
g15
I0
sbsba(ics475_types
Instance
p6356
(dp6357
g10
(ics475_types
FeatureVector
p6358
(dp6359
g13
(dp6360
I1
F1.075156
sI2
F-1.481816
sI3
F0.098269
sI4
F-0.539469
sI9
F1.0
ssbsg15
g0
(g16
g2
Ntp6361
Rp6362
(dp6363
g15
I1
sbsba(ics475_types
Instance
p6364
(dp6365
g10
(ics475_types
FeatureVector
p6366
(dp6367
g13
(dp6368
I8
F1.0
sI1
F-1.347346
sI2
F0.342174
sI3
F-0.606256
sI4
F-0.62978
ssbsg15
g0
(g16
g2
Ntp6369
Rp6370
(dp6371
g15
I1
sbsba(ics475_types
Instance
p6372
(dp6373
g10
(ics475_types
FeatureVector
p6374
(dp6375
g13
(dp6376
I1
F0.387722
sI2
F0.130468
sI3
F-0.409891
sI4
F-0.699486
sI10
F1.0
ssbsg15
g0
(g16
g2
Ntp6377
Rp6378
(dp6379
g15
I1
sbsba(ics475_types
Instance
p6380
(dp6381
g10
(ics475_types
FeatureVector
p6382
(dp6383
g13
(dp6384
I8
F1.0
sI1
F-0.375103
sI2
F1.212577
sI3
F0.800895
sI4
F-0.659392
ssbsg15
g0
(g16
g2
Ntp6385
Rp6386
(dp6387
g15
I1
sbsba(ics475_types
Instance
p6388
(dp6389
g10
(ics475_types
FeatureVector
p6390
(dp6391
g13
(dp6392
I1
F0.766184
sI2
F1.429601
sI3
F1.172027
sI4
F0.412581
sI10
F1.0
ssbsg15
g0
(g16
g2
Ntp6393
Rp6394
(dp6395
g15
I1
sbsba(ics475_types
Instance
p6396
(dp6397
g10
(ics475_types
FeatureVector
p6398
(dp6399
g13
(dp6400
I1
F-0.661633
sI2
F1.22606
sI3
F0.717335
sI4
F0.95689
sI7
F1.0
ssbsg15
g0
(g16
g2
Ntp6401
Rp6402
(dp6403
g15
I0
sbsba(ics475_types
Instance
p6404
(dp6405
g10
(ics475_types
FeatureVector
p6406
(dp6407
g13
(dp6408
I1
F0.076439
sI2
F0.621176
sI3
F-0.086392
sI4
F-1.008135
sI6
F1.0
ssbsg15
g0
(g16
g2
Ntp6409
Rp6410
(dp6411
g15
I0
sbsba(ics475_types
Instance
p6412
(dp6413
g10
(ics475_types
FeatureVector
p6414
(dp6415
g13
(dp6416
I8
F1.0
sI1
F0.0546
sI2
F0.108504
sI3
F0.3714
sI4
F-1.405677
ssbsg15
g0
(g16
g2
Ntp6417
Rp6418
(dp6419
g15
I1
sbsba(ics475_types
Instance
p6420
(dp6421
g10
(ics475_types
FeatureVector
p6422
(dp6423
g13
(dp6424
I1
F-0.617867
sI2
F-0.108138
sI3
F0.308113
sI4
F0.54109
sI5
F1.0
ssbsg15
g0
(g16
g2
Ntp6425
Rp6426
(dp6427
g15
I0
sbsba(ics475_types
Instance
p6428
(dp6429
g10
(ics475_types
FeatureVector
p6430
(dp6431
g13
(dp6432
I1
F1.059447
sI2
F-0.86985
sI3
F-0.275664
sI4
F0.412463
sI6
F1.0
ssbsg15
g0
(g16
g2
Ntp6433
Rp6434
(dp6435
g15
I0
sbsba(ics475_types
Instance
p6436
(dp6437
g10
(ics475_types
FeatureVector
p6438
(dp6439
g13
(dp6440
I1
F-0.568108
sI2
F-0.654938
sI3
F-1.12927
sI4
F1.81144
sI10
F1.0
ssbsg15
g0
(g16
g2
Ntp6441
Rp6442
(dp6443
g15
I1
sbsba(ics475_types
Instance
p6444
(dp6445
g10
(ics475_types
FeatureVector
p6446
(dp6447
g13
(dp6448
I8
F1.0
sI1
F-0.556078
sI2
F-2.484112
sI3
F0.383932
sI4
F0.332718
ssbsg15
g0
(g16
g2
Ntp6449
Rp6450
(dp6451
g15
I1
sbsba(ics475_types
Instance
p6452
(dp6453
g10
(ics475_types
FeatureVector
p6454
(dp6455
g13
(dp6456
I1
F-0.375792
sI2
F-1.19241
sI3
F0.280158
sI4
F-0.47598
sI5
F1.0
ssbsg15
g0
(g16
g2
Ntp6457
Rp6458
(dp6459
g15
I0
sbsba(ics475_types
Instance
p6460
(dp6461
g10
(ics475_types
FeatureVector
p6462
(dp6463
g13
(dp6464
I1
F-0.467167
sI2
F-1.347671
sI3
F-0.9291
sI4
F-1.364097
sI5
F1.0
ssbsg15
g0
(g16
g2
Ntp6465
Rp6466
(dp6467
g15
I0
sbsba(ics475_types
Instance
p6468
(dp6469
g10
(ics475_types
FeatureVector
p6470
(dp6471
g13
(dp6472
I1
F-0.125684
sI2
F-0.52353
sI3
F1.823408
sI4
F0.04806
sI10
F1.0
ssbsg15
g0
(g16
g2
Ntp6473
Rp6474
(dp6475
g15
I1
sbsba(ics475_types
Instance
p6476
(dp6477
g10
(ics475_types
FeatureVector
p6478
(dp6479
g13
(dp6480
I1
F-0.442981
sI2
F-0.208912
sI3
F-0.093474
sI4
F-1.540724
sI6
F1.0
ssbsg15
g0
(g16
g2
Ntp6481
Rp6482
(dp6483
g15
I0
sbsba(ics475_types
Instance
p6484
(dp6485
g10
(ics475_types
FeatureVector
p6486
(dp6487
g13
(dp6488
I1
F2.118582
sI2
F0.202727
sI3
F-0.748074
sI4
F-0.612991
sI6
F1.0
ssbsg15
g0
(g16
g2
Ntp6489
Rp6490
(dp6491
g15
I0
sbsba(ics475_types
Instance
p6492
(dp6493
g10
(ics475_types
FeatureVector
p6494
(dp6495
g13
(dp6496
I8
F1.0
sI1
F-0.72049
sI2
F1.341851
sI3
F-0.390361
sI4
F-0.497945
ssbsg15
g0
(g16
g2
Ntp6497
Rp6498
(dp6499
g15
I1
sbsba(ics475_types
Instance
p6500
(dp6501
g10
(ics475_types
FeatureVector
p6502
(dp6503
g13
(dp6504
I1
F0.630684
sI2
F-0.346228
sI3
F0.24733
sI4
F-0.259411
sI7
F1.0
ssbsg15
g0
(g16
g2
Ntp6505
Rp6506
(dp6507
g15
I0
sbsba(ics475_types
Instance
p6508
(dp6509
g10
(ics475_types
FeatureVector
p6510
(dp6511
g13
(dp6512
I1
F0.330001
sI2
F0.825777
sI3
F0.881559
sI4
F0.815285
sI9
F1.0
ssbsg15
g0
(g16
g2
Ntp6513
Rp6514
(dp6515
g15
I1
sbsba(ics475_types
Instance
p6516
(dp6517
g10
(ics475_types
FeatureVector
p6518
(dp6519
g13
(dp6520
I1
F0.059849
sI2
F-0.619191
sI3
F1.553188
sI4
F-0.431303
sI9
F1.0
ssbsg15
g0
(g16
g2
Ntp6521
Rp6522
(dp6523
g15
I1
sbsba(ics475_types
Instance
p6524
(dp6525
g10
(ics475_types
FeatureVector
p6526
(dp6527
g13
(dp6528
I1
F-0.393773
sI2
F-0.690265
sI3
F-0.431657
sI4
F0.844611
sI7
F1.0
ssbsg15
g0
(g16
g2
Ntp6529
Rp6530
(dp6531
g15
I0
sbsba(ics475_types
Instance
p6532
(dp6533
g10
(ics475_types
FeatureVector
p6534
(dp6535
g13
(dp6536
I8
F1.0
sI1
F1.658433
sI2
F-0.643128
sI3
F-1.03372
sI4
F0.742148
ssbsg15
g0
(g16
g2
Ntp6537
Rp6538
(dp6539
g15
I1
sbsba(ics475_types
Instance
p6540
(dp6541
g10
(ics475_types
FeatureVector
p6542
(dp6543
g13
(dp6544
I1
F-1.448048
sI2
F1.311017
sI3
F-0.899631
sI4
F-0.27765
sI7
F1.0
ssbsg15
g0
(g16
g2
Ntp6545
Rp6546
(dp6547
g15
I0
sbsba(ics475_types
Instance
p6548
(dp6549
g10
(ics475_types
FeatureVector
p6550
(dp6551
g13
(dp6552
I1
F0.996006
sI2
F-0.461191
sI3
F-0.802711
sI4
F1.208675
sI10
F1.0
ssbsg15
g0
(g16
g2
Ntp6553
Rp6554
(dp6555
g15
I1
sbsba(ics475_types
Instance
p6556
(dp6557
g10
(ics475_types
FeatureVector
p6558
(dp6559
g13
(dp6560
I1
F0.411084
sI2
F-0.313493
sI3
F0.914127
sI4
F-0.007615
sI9
F1.0
ssbsg15
g0
(g16
g2
Ntp6561
Rp6562
(dp6563
g15
I1
sbsba(ics475_types
Instance
p6564
(dp6565
g10
(ics475_types
FeatureVector
p6566
(dp6567
g13
(dp6568
I1
F0.082398
sI2
F-1.967409
sI3
F1.527436
sI4
F1.217827
sI10
F1.0
ssbsg15
g0
(g16
g2
Ntp6569
Rp6570
(dp6571
g15
I1
sbsba(ics475_types
Instance
p6572
(dp6573
g10
(ics475_types
FeatureVector
p6574
(dp6575
g13
(dp6576
I1
F-1.556224
sI2
F0.295728
sI3
F-0.434183
sI4
F-0.944481
sI6
F1.0
ssbsg15
g0
(g16
g2
Ntp6577
Rp6578
(dp6579
g15
I0
sbsba(ics475_types
Instance
p6580
(dp6581
g10
(ics475_types
FeatureVector
p6582
(dp6583
g13
(dp6584
I1
F-1.768291
sI2
F-1.550356
sI3
F0.072602
sI4
F0.21199
sI5
F1.0
ssbsg15
g0
(g16
g2
Ntp6585
Rp6586
(dp6587
g15
I0
sbsba(ics475_types
Instance
p6588
(dp6589
g10
(ics475_types
FeatureVector
p6590
(dp6591
g13
(dp6592
I1
F1.266198
sI2
F0.287867
sI3
F1.523862
sI4
F0.95775
sI10
F1.0
ssbsg15
g0
(g16
g2
Ntp6593
Rp6594
(dp6595
g15
I1
sbsba(ics475_types
Instance
p6596
(dp6597
g10
(ics475_types
FeatureVector
p6598
(dp6599
g13
(dp6600
I1
F0.84105
sI2
F2.352996
sI3
F0.718128
sI4
F0.702634
sI10
F1.0
ssbsg15
g0
(g16
g2
Ntp6601
Rp6602
(dp6603
g15
I1
sbsba(ics475_types
Instance
p6604
(dp6605
g10
(ics475_types
FeatureVector
p6606
(dp6607
g13
(dp6608
I8
F1.0
sI1
F-1.199314
sI2
F-0.934363
sI3
F1.072686
sI4
F0.382667
ssbsg15
g0
(g16
g2
Ntp6609
Rp6610
(dp6611
g15
I1
sbsba(ics475_types
Instance
p6612
(dp6613
g10
(ics475_types
FeatureVector
p6614
(dp6615
g13
(dp6616
I1
F0.621142
sI2
F-0.038477
sI3
F-0.113645
sI4
F-0.550614
sI10
F1.0
ssbsg15
g0
(g16
g2
Ntp6617
Rp6618
(dp6619
g15
I1
sbsba(ics475_types
Instance
p6620
(dp6621
g10
(ics475_types
FeatureVector
p6622
(dp6623
g13
(dp6624
I1
F-0.865098
sI2
F-0.275283
sI3
F-0.100158
sI4
F-0.704304
sI10
F1.0
ssbsg15
g0
(g16
g2
Ntp6625
Rp6626
(dp6627
g15
I1
sbsba(ics475_types
Instance
p6628
(dp6629
g10
(ics475_types
FeatureVector
p6630
(dp6631
g13
(dp6632
I8
F1.0
sI1
F0.690617
sI2
F-1.064108
sI3
F-0.375411
sI4
F0.180669
ssbsg15
g0
(g16
g2
Ntp6633
Rp6634
(dp6635
g15
I1
sbsba(ics475_types
Instance
p6636
(dp6637
g10
(ics475_types
FeatureVector
p6638
(dp6639
g13
(dp6640
I8
F1.0
sI1
F0.439296
sI2
F-0.195975
sI3
F0.753041
sI4
F-1.297466
ssbsg15
g0
(g16
g2
Ntp6641
Rp6642
(dp6643
g15
I1
sbsba(ics475_types
Instance
p6644
(dp6645
g10
(ics475_types
FeatureVector
p6646
(dp6647
g13
(dp6648
I1
F-1.335831
sI2
F-0.584441
sI3
F0.323075
sI4
F-0.922061
sI6
F1.0
ssbsg15
g0
(g16
g2
Ntp6649
Rp6650
(dp6651
g15
I0
sbsba(ics475_types
Instance
p6652
(dp6653
g10
(ics475_types
FeatureVector
p6654
(dp6655
g13
(dp6656
I1
F0.301277
sI2
F-0.042162
sI3
F-0.242183
sI4
F0.015224
sI10
F1.0
ssbsg15
g0
(g16
g2
Ntp6657
Rp6658
(dp6659
g15
I1
sbsba(ics475_types
Instance
p6660
(dp6661
g10
(ics475_types
FeatureVector
p6662
(dp6663
g13
(dp6664
I1
F0.007405
sI2
F0.371204
sI3
F-0.747913
sI4
F-0.770347
sI10
F1.0
ssbsg15
g0
(g16
g2
Ntp6665
Rp6666
(dp6667
g15
I1
sbsba(ics475_types
Instance
p6668
(dp6669
g10
(ics475_types
FeatureVector
p6670
(dp6671
g13
(dp6672
I1
F1.023246
sI2
F1.126487
sI3
F1.576849
sI4
F-0.59391
sI10
F1.0
ssbsg15
g0
(g16
g2
Ntp6673
Rp6674
(dp6675
g15
I1
sbsba(ics475_types
Instance
p6676
(dp6677
g10
(ics475_types
FeatureVector
p6678
(dp6679
g13
(dp6680
I8
F1.0
sI1
F0.813926
sI2
F1.617536
sI3
F-0.798929
sI4
F1.625701
ssbsg15
g0
(g16
g2
Ntp6681
Rp6682
(dp6683
g15
I1
sbsba(ics475_types
Instance
p6684
(dp6685
g10
(ics475_types
FeatureVector
p6686
(dp6687
g13
(dp6688
I1
F-0.664137
sI2
F0.138093
sI3
F-0.487603
sI4
F0.657531
sI9
F1.0
ssbsg15
g0
(g16
g2
Ntp6689
Rp6690
(dp6691
g15
I1
sbsba(ics475_types
Instance
p6692
(dp6693
g10
(ics475_types
FeatureVector
p6694
(dp6695
g13
(dp6696
I1
F0.611709
sI2
F-2.716133
sI3
F-0.077148
sI4
F-1.841818
sI10
F1.0
ssbsg15
g0
(g16
g2
Ntp6697
Rp6698
(dp6699
g15
I1
sbsba(ics475_types
Instance
p6700
(dp6701
g10
(ics475_types
FeatureVector
p6702
(dp6703
g13
(dp6704
I8
F1.0
sI1
F0.585776
sI2
F-0.840032
sI3
F-1.911036
sI4
F-0.966166
ssbsg15
g0
(g16
g2
Ntp6705
Rp6706
(dp6707
g15
I1
sbsba(ics475_types
Instance
p6708
(dp6709
g10
(ics475_types
FeatureVector
p6710
(dp6711
g13
(dp6712
I1
F-0.721022
sI2
F-1.400102
sI3
F-0.127489
sI4
F2.226691
sI9
F1.0
ssbsg15
g0
(g16
g2
Ntp6713
Rp6714
(dp6715
g15
I1
sbsba(ics475_types
Instance
p6716
(dp6717
g10
(ics475_types
FeatureVector
p6718
(dp6719
g13
(dp6720
I1
F1.610898
sI2
F-0.160807
sI3
F0.061358
sI4
F0.685719
sI7
F1.0
ssbsg15
g0
(g16
g2
Ntp6721
Rp6722
(dp6723
g15
I0
sbsba(ics475_types
Instance
p6724
(dp6725
g10
(ics475_types
FeatureVector
p6726
(dp6727
g13
(dp6728
I1
F0.588451
sI2
F-1.622086
sI3
F-1.597522
sI4
F-0.524117
sI7
F1.0
ssbsg15
g0
(g16
g2
Ntp6729
Rp6730
(dp6731
g15
I0
sbsba(ics475_types
Instance
p6732
(dp6733
g10
(ics475_types
FeatureVector
p6734
(dp6735
g13
(dp6736
I1
F-0.064277
sI2
F1.340607
sI3
F-0.345486
sI4
F-2.021005
sI10
F1.0
ssbsg15
g0
(g16
g2
Ntp6737
Rp6738
(dp6739
g15
I1
sbsba(ics475_types
Instance
p6740
(dp6741
g10
(ics475_types
FeatureVector
p6742
(dp6743
g13
(dp6744
I1
F0.192665
sI2
F1.426815
sI3
F0.887531
sI4
F1.424862
sI5
F1.0
ssbsg15
g0
(g16
g2
Ntp6745
Rp6746
(dp6747
g15
I0
sbsba(ics475_types
Instance
p6748
(dp6749
g10
(ics475_types
FeatureVector
p6750
(dp6751
g13
(dp6752
I1
F0.894539
sI2
F-1.579278
sI3
F-0.104796
sI4
F-0.386658
sI9
F1.0
ssbsg15
g0
(g16
g2
Ntp6753
Rp6754
(dp6755
g15
I1
sbsba(ics475_types
Instance
p6756
(dp6757
g10
(ics475_types
FeatureVector
p6758
(dp6759
g13
(dp6760
I1
F-0.717824
sI2
F-0.142992
sI3
F-2.403966
sI4
F1.691373
sI9
F1.0
ssbsg15
g0
(g16
g2
Ntp6761
Rp6762
(dp6763
g15
I1
sbsba(ics475_types
Instance
p6764
(dp6765
g10
(ics475_types
FeatureVector
p6766
(dp6767
g13
(dp6768
I1
F0.500435
sI2
F0.04215
sI3
F0.14244
sI4
F-0.759045
sI6
F1.0
ssbsg15
g0
(g16
g2
Ntp6769
Rp6770
(dp6771
g15
I0
sbsba(ics475_types
Instance
p6772
(dp6773
g10
(ics475_types
FeatureVector
p6774
(dp6775
g13
(dp6776
I1
F-0.848302
sI2
F1.918745
sI3
F-0.223409
sI4
F0.589152
sI5
F1.0
ssbsg15
g0
(g16
g2
Ntp6777
Rp6778
(dp6779
g15
I0
sbsba(ics475_types
Instance
p6780
(dp6781
g10
(ics475_types
FeatureVector
p6782
(dp6783
g13
(dp6784
I1
F-1.73617
sI2
F0.884465
sI3
F-1.450562
sI4
F0.320806
sI5
F1.0
ssbsg15
g0
(g16
g2
Ntp6785
Rp6786
(dp6787
g15
I0
sbsba(ics475_types
Instance
p6788
(dp6789
g10
(ics475_types
FeatureVector
p6790
(dp6791
g13
(dp6792
I1
F0.289045
sI2
F-1.744819
sI3
F0.043756
sI4
F-0.123885
sI9
F1.0
ssbsg15
g0
(g16
g2
Ntp6793
Rp6794
(dp6795
g15
I1
sbsba(ics475_types
Instance
p6796
(dp6797
g10
(ics475_types
FeatureVector
p6798
(dp6799
g13
(dp6800
I1
F-0.248744
sI2
F-1.074601
sI3
F0.977908
sI4
F-0.698032
sI6
F1.0
ssbsg15
g0
(g16
g2
Ntp6801
Rp6802
(dp6803
g15
I0
sbsba(ics475_types
Instance
p6804
(dp6805
g10
(ics475_types
FeatureVector
p6806
(dp6807
g13
(dp6808
I1
F-0.605279
sI2
F-1.948834
sI3
F-0.936294
sI4
F0.002047
sI7
F1.0
ssbsg15
g0
(g16
g2
Ntp6809
Rp6810
(dp6811
g15
I0
sbsba(ics475_types
Instance
p6812
(dp6813
g10
(ics475_types
FeatureVector
p6814
(dp6815
g13
(dp6816
I1
F-0.618737
sI2
F0.897711
sI3
F-1.461795
sI4
F-0.270193
sI5
F1.0
ssbsg15
g0
(g16
g2
Ntp6817
Rp6818
(dp6819
g15
I0
sbsba(ics475_types
Instance
p6820
(dp6821
g10
(ics475_types
FeatureVector
p6822
(dp6823
g13
(dp6824
I8
F1.0
sI1
F-0.432927
sI2
F0.508843
sI3
F-1.564025
sI4
F0.890961
ssbsg15
g0
(g16
g2
Ntp6825
Rp6826
(dp6827
g15
I1
sbsba(ics475_types
Instance
p6828
(dp6829
g10
(ics475_types
FeatureVector
p6830
(dp6831
g13
(dp6832
I1
F0.263463
sI2
F-0.206259
sI3
F0.341145
sI4
F0.77265
sI7
F1.0
ssbsg15
g0
(g16
g2
Ntp6833
Rp6834
(dp6835
g15
I0
sbsba(ics475_types
Instance
p6836
(dp6837
g10
(ics475_types
FeatureVector
p6838
(dp6839
g13
(dp6840
I1
F-0.337216
sI2
F-1.486374
sI3
F0.020715
sI4
F0.649023
sI6
F1.0
ssbsg15
g0
(g16
g2
Ntp6841
Rp6842
(dp6843
g15
I0
sbsba(ics475_types
Instance
p6844
(dp6845
g10
(ics475_types
FeatureVector
p6846
(dp6847
g13
(dp6848
I1
F0.254901
sI2
F-0.845497
sI3
F-0.400484
sI4
F-0.287754
sI10
F1.0
ssbsg15
g0
(g16
g2
Ntp6849
Rp6850
(dp6851
g15
I1
sbsba(ics475_types
Instance
p6852
(dp6853
g10
(ics475_types
FeatureVector
p6854
(dp6855
g13
(dp6856
I1
F-0.311208
sI2
F1.213711
sI3
F0.645398
sI4
F-0.164967
sI9
F1.0
ssbsg15
g0
(g16
g2
Ntp6857
Rp6858
(dp6859
g15
I1
sbsba(ics475_types
Instance
p6860
(dp6861
g10
(ics475_types
FeatureVector
p6862
(dp6863
g13
(dp6864
I8
F1.0
sI1
F1.454844
sI2
F-0.395072
sI3
F0.288405
sI4
F0.307511
ssbsg15
g0
(g16
g2
Ntp6865
Rp6866
(dp6867
g15
I1
sbsba(ics475_types
Instance
p6868
(dp6869
g10
(ics475_types
FeatureVector
p6870
(dp6871
g13
(dp6872
I1
F0.859829
sI2
F-2.579484
sI3
F-0.215555
sI4
F0.887669
sI7
F1.0
ssbsg15
g0
(g16
g2
Ntp6873
Rp6874
(dp6875
g15
I0
sbsba(ics475_types
Instance
p6876
(dp6877
g10
(ics475_types
FeatureVector
p6878
(dp6879
g13
(dp6880
I1
F-0.312466
sI2
F0.794523
sI3
F-0.45394
sI4
F0.8065
sI9
F1.0
ssbsg15
g0
(g16
g2
Ntp6881
Rp6882
(dp6883
g15
I1
sbsba(ics475_types
Instance
p6884
(dp6885
g10
(ics475_types
FeatureVector
p6886
(dp6887
g13
(dp6888
I1
F-1.68569
sI2
F1.39188
sI3
F-1.519395
sI4
F0.273106
sI7
F1.0
ssbsg15
g0
(g16
g2
Ntp6889
Rp6890
(dp6891
g15
I0
sbsba(ics475_types
Instance
p6892
(dp6893
g10
(ics475_types
FeatureVector
p6894
(dp6895
g13
(dp6896
I1
F1.137942
sI2
F-0.46026
sI3
F-0.249836
sI4
F1.620677
sI5
F1.0
ssbsg15
g0
(g16
g2
Ntp6897
Rp6898
(dp6899
g15
I0
sbsba(ics475_types
Instance
p6900
(dp6901
g10
(ics475_types
FeatureVector
p6902
(dp6903
g13
(dp6904
I1
F1.637832
sI2
F-0.003318
sI3
F1.070079
sI4
F-0.762862
sI7
F1.0
ssbsg15
g0
(g16
g2
Ntp6905
Rp6906
(dp6907
g15
I0
sbsba(ics475_types
Instance
p6908
(dp6909
g10
(ics475_types
FeatureVector
p6910
(dp6911
g13
(dp6912
I8
F1.0
sI1
F1.008446
sI2
F-1.07466
sI3
F-1.333657
sI4
F0.170358
ssbsg15
g0
(g16
g2
Ntp6913
Rp6914
(dp6915
g15
I1
sbsba(ics475_types
Instance
p6916
(dp6917
g10
(ics475_types
FeatureVector
p6918
(dp6919
g13
(dp6920
I1
F0.427719
sI2
F-1.158907
sI3
F-1.697013
sI4
F0.646371
sI5
F1.0
ssbsg15
g0
(g16
g2
Ntp6921
Rp6922
(dp6923
g15
I0
sbsba(ics475_types
Instance
p6924
(dp6925
g10
(ics475_types
FeatureVector
p6926
(dp6927
g13
(dp6928
I1
F-0.039423
sI2
F0.842336
sI3
F-0.691384
sI4
F-2.107616
sI6
F1.0
ssbsg15
g0
(g16
g2
Ntp6929
Rp6930
(dp6931
g15
I0
sbsba(ics475_types
Instance
p6932
(dp6933
g10
(ics475_types
FeatureVector
p6934
(dp6935
g13
(dp6936
I1
F-0.875328
sI2
F0.951693
sI3
F0.116581
sI4
F-0.539477
sI5
F1.0
ssbsg15
g0
(g16
g2
Ntp6937
Rp6938
(dp6939
g15
I0
sbsba(ics475_types
Instance
p6940
(dp6941
g10
(ics475_types
FeatureVector
p6942
(dp6943
g13
(dp6944
I1
F1.115019
sI2
F-0.704178
sI3
F-0.605872
sI4
F0.378726
sI6
F1.0
ssbsg15
g0
(g16
g2
Ntp6945
Rp6946
(dp6947
g15
I0
sbsba(ics475_types
Instance
p6948
(dp6949
g10
(ics475_types
FeatureVector
p6950
(dp6951
g13
(dp6952
I1
F0.018754
sI2
F0.31028
sI3
F-1.187808
sI4
F-1.661081
sI9
F1.0
ssbsg15
g0
(g16
g2
Ntp6953
Rp6954
(dp6955
g15
I1
sbsba(ics475_types
Instance
p6956
(dp6957
g10
(ics475_types
FeatureVector
p6958
(dp6959
g13
(dp6960
I1
F1.004843
sI2
F-0.410731
sI3
F-0.749455
sI4
F-0.039778
sI5
F1.0
ssbsg15
g0
(g16
g2
Ntp6961
Rp6962
(dp6963
g15
I0
sbsba(ics475_types
Instance
p6964
(dp6965
g10
(ics475_types
FeatureVector
p6966
(dp6967
g13
(dp6968
I8
F1.0
sI1
F-0.608764
sI2
F-1.3306
sI3
F-0.869013
sI4
F2.040152
ssbsg15
g0
(g16
g2
Ntp6969
Rp6970
(dp6971
g15
I1
sbsba(ics475_types
Instance
p6972
(dp6973
g10
(ics475_types
FeatureVector
p6974
(dp6975
g13
(dp6976
I1
F0.180116
sI2
F0.588889
sI3
F-0.079646
sI4
F-1.136689
sI7
F1.0
ssbsg15
g0
(g16
g2
Ntp6977
Rp6978
(dp6979
g15
I0
sbsba(ics475_types
Instance
p6980
(dp6981
g10
(ics475_types
FeatureVector
p6982
(dp6983
g13
(dp6984
I1
F-0.349587
sI2
F-1.410589
sI3
F0.244615
sI4
F0.197585
sI10
F1.0
ssbsg15
g0
(g16
g2
Ntp6985
Rp6986
(dp6987
g15
I1
sbsba(ics475_types
Instance
p6988
(dp6989
g10
(ics475_types
FeatureVector
p6990
(dp6991
g13
(dp6992
I8
F1.0
sI1
F0.871957
sI2
F0.111202
sI3
F2.024019
sI4
F-1.538448
ssbsg15
g0
(g16
g2
Ntp6993
Rp6994
(dp6995
g15
I1
sbsba(ics475_types
Instance
p6996
(dp6997
g10
(ics475_types
FeatureVector
p6998
(dp6999
g13
(dp7000
I1
F-0.021196
sI2
F-0.217394
sI3
F-1.917692
sI4
F-0.797905
sI10
F1.0
ssbsg15
g0
(g16
g2
Ntp7001
Rp7002
(dp7003
g15
I1
sbsba(ics475_types
Instance
p7004
(dp7005
g10
(ics475_types
FeatureVector
p7006
(dp7007
g13
(dp7008
I1
F0.762067
sI2
F0.02761
sI3
F1.544592
sI4
F-0.651187
sI5
F1.0
ssbsg15
g0
(g16
g2
Ntp7009
Rp7010
(dp7011
g15
I0
sbsba(ics475_types
Instance
p7012
(dp7013
g10
(ics475_types
FeatureVector
p7014
(dp7015
g13
(dp7016
I1
F-1.220006
sI2
F-0.031058
sI3
F1.61208
sI4
F0.62494
sI6
F1.0
ssbsg15
g0
(g16
g2
Ntp7017
Rp7018
(dp7019
g15
I0
sbsba(ics475_types
Instance
p7020
(dp7021
g10
(ics475_types
FeatureVector
p7022
(dp7023
g13
(dp7024
I8
F1.0
sI1
F-0.935183
sI2
F-1.404527
sI3
F-0.411079
sI4
F-1.352981
ssbsg15
g0
(g16
g2
Ntp7025
Rp7026
(dp7027
g15
I1
sbsba(ics475_types
Instance
p7028
(dp7029
g10
(ics475_types
FeatureVector
p7030
(dp7031
g13
(dp7032
I1
F0.644905
sI2
F0.283367
sI3
F-0.360947
sI4
F0.018331
sI6
F1.0
ssbsg15
g0
(g16
g2
Ntp7033
Rp7034
(dp7035
g15
I0
sbsba(ics475_types
Instance
p7036
(dp7037
g10
(ics475_types
FeatureVector
p7038
(dp7039
g13
(dp7040
I1
F0.998904
sI2
F-0.014027
sI3
F1.005596
sI4
F-0.800695
sI6
F1.0
ssbsg15
g0
(g16
g2
Ntp7041
Rp7042
(dp7043
g15
I0
sbsba(ics475_types
Instance
p7044
(dp7045
g10
(ics475_types
FeatureVector
p7046
(dp7047
g13
(dp7048
I8
F1.0
sI1
F0.377223
sI2
F1.289677
sI3
F-1.665667
sI4
F1.587663
ssbsg15
g0
(g16
g2
Ntp7049
Rp7050
(dp7051
g15
I1
sbsba(ics475_types
Instance
p7052
(dp7053
g10
(ics475_types
FeatureVector
p7054
(dp7055
g13
(dp7056
I1
F0.565651
sI2
F-0.672777
sI3
F1.018056
sI4
F-0.099146
sI9
F1.0
ssbsg15
g0
(g16
g2
Ntp7057
Rp7058
(dp7059
g15
I1
sbsba(ics475_types
Instance
p7060
(dp7061
g10
(ics475_types
FeatureVector
p7062
(dp7063
g13
(dp7064
I1
F-0.696434
sI2
F-0.123978
sI3
F1.077315
sI4
F0.184023
sI7
F1.0
ssbsg15
g0
(g16
g2
Ntp7065
Rp7066
(dp7067
g15
I0
sbsba(ics475_types
Instance
p7068
(dp7069
g10
(ics475_types
FeatureVector
p7070
(dp7071
g13
(dp7072
I1
F1.574221
sI2
F-0.002074
sI3
F-0.069594
sI4
F-1.062408
sI6
F1.0
ssbsg15
g0
(g16
g2
Ntp7073
Rp7074
(dp7075
g15
I0
sbsba(ics475_types
Instance
p7076
(dp7077
g10
(ics475_types
FeatureVector
p7078
(dp7079
g13
(dp7080
I1
F1.675077
sI2
F0.496042
sI3
F-0.450688
sI4
F-2.20559
sI10
F1.0
ssbsg15
g0
(g16
g2
Ntp7081
Rp7082
(dp7083
g15
I1
sbsba(ics475_types
Instance
p7084
(dp7085
g10
(ics475_types
FeatureVector
p7086
(dp7087
g13
(dp7088
I8
F1.0
sI1
F-0.885476
sI2
F-0.033291
sI3
F0.35623
sI4
F0.783397
ssbsg15
g0
(g16
g2
Ntp7089
Rp7090
(dp7091
g15
I1
sbsba(ics475_types
Instance
p7092
(dp7093
g10
(ics475_types
FeatureVector
p7094
(dp7095
g13
(dp7096
I1
F-0.197522
sI2
F-0.208085
sI3
F0.242044
sI4
F-0.584448
sI6
F1.0
ssbsg15
g0
(g16
g2
Ntp7097
Rp7098
(dp7099
g15
I0
sbsba(ics475_types
Instance
p7100
(dp7101
g10
(ics475_types
FeatureVector
p7102
(dp7103
g13
(dp7104
I1
F-0.681126
sI2
F0.953684
sI3
F1.179957
sI4
F0.068309
sI10
F1.0
ssbsg15
g0
(g16
g2
Ntp7105
Rp7106
(dp7107
g15
I1
sbsba(ics475_types
Instance
p7108
(dp7109
g10
(ics475_types
FeatureVector
p7110
(dp7111
g13
(dp7112
I1
F-0.781493
sI2
F0.041714
sI3
F1.859784
sI4
F-0.052643
sI10
F1.0
ssbsg15
g0
(g16
g2
Ntp7113
Rp7114
(dp7115
g15
I1
sbsba(ics475_types
Instance
p7116
(dp7117
g10
(ics475_types
FeatureVector
p7118
(dp7119
g13
(dp7120
I1
F0.398588
sI2
F-0.605888
sI3
F-0.180537
sI4
F-2.095867
sI5
F1.0
ssbsg15
g0
(g16
g2
Ntp7121
Rp7122
(dp7123
g15
I0
sbsba(ics475_types
Instance
p7124
(dp7125
g10
(ics475_types
FeatureVector
p7126
(dp7127
g13
(dp7128
I1
F1.098455
sI2
F1.941205
sI3
F-0.306633
sI4
F1.417736
sI10
F1.0
ssbsg15
g0
(g16
g2
Ntp7129
Rp7130
(dp7131
g15
I1
sbsba(ics475_types
Instance
p7132
(dp7133
g10
(ics475_types
FeatureVector
p7134
(dp7135
g13
(dp7136
I8
F1.0
sI1
F-1.405488
sI2
F-0.311167
sI3
F-0.497462
sI4
F-0.621657
ssbsg15
g0
(g16
g2
Ntp7137
Rp7138
(dp7139
g15
I1
sbsba(ics475_types
Instance
p7140
(dp7141
g10
(ics475_types
FeatureVector
p7142
(dp7143
g13
(dp7144
I8
F1.0
sI1
F0.234391
sI2
F0.336163
sI3
F-0.842309
sI4
F-1.183525
ssbsg15
g0
(g16
g2
Ntp7145
Rp7146
(dp7147
g15
I1
sbsba(ics475_types
Instance
p7148
(dp7149
g10
(ics475_types
FeatureVector
p7150
(dp7151
g13
(dp7152
I1
F-0.349941
sI2
F-1.889044
sI3
F0.471399
sI4
F-0.23574
sI6
F1.0
ssbsg15
g0
(g16
g2
Ntp7153
Rp7154
(dp7155
g15
I0
sbsba(ics475_types
Instance
p7156
(dp7157
g10
(ics475_types
FeatureVector
p7158
(dp7159
g13
(dp7160
I1
F0.424303
sI2
F0.646603
sI3
F2.0158
sI4
F0.487925
sI5
F1.0
ssbsg15
g0
(g16
g2
Ntp7161
Rp7162
(dp7163
g15
I0
sbsba(ics475_types
Instance
p7164
(dp7165
g10
(ics475_types
FeatureVector
p7166
(dp7167
g13
(dp7168
I1
F0.812564
sI2
F-0.918273
sI3
F0.36061
sI4
F1.129917
sI10
F1.0
ssbsg15
g0
(g16
g2
Ntp7169
Rp7170
(dp7171
g15
I1
sbsba(ics475_types
Instance
p7172
(dp7173
g10
(ics475_types
FeatureVector
p7174
(dp7175
g13
(dp7176
I1
F0.090495
sI2
F1.562944
sI3
F0.753801
sI4
F0.51175
sI6
F1.0
ssbsg15
g0
(g16
g2
Ntp7177
Rp7178
(dp7179
g15
I0
sbsba(ics475_types
Instance
p7180
(dp7181
g10
(ics475_types
FeatureVector
p7182
(dp7183
g13
(dp7184
I1
F-0.157625
sI2
F-0.95421
sI3
F0.68495
sI4
F-1.269349
sI10
F1.0
ssbsg15
g0
(g16
g2
Ntp7185
Rp7186
(dp7187
g15
I1
sbsba(ics475_types
Instance
p7188
(dp7189
g10
(ics475_types
FeatureVector
p7190
(dp7191
g13
(dp7192
I1
F-0.50208
sI2
F1.389379
sI3
F0.316174
sI4
F-1.409503
sI7
F1.0
ssbsg15
g0
(g16
g2
Ntp7193
Rp7194
(dp7195
g15
I0
sbsba(ics475_types
Instance
p7196
(dp7197
g10
(ics475_types
FeatureVector
p7198
(dp7199
g13
(dp7200
I1
F0.351844
sI2
F-0.030856
sI3
F1.339655
sI4
F0.389923
sI10
F1.0
ssbsg15
g0
(g16
g2
Ntp7201
Rp7202
(dp7203
g15
I1
sbsba(ics475_types
Instance
p7204
(dp7205
g10
(ics475_types
FeatureVector
p7206
(dp7207
g13
(dp7208
I1
F-0.223017
sI2
F-0.716249
sI3
F1.033376
sI4
F-0.5736
sI6
F1.0
ssbsg15
g0
(g16
g2
Ntp7209
Rp7210
(dp7211
g15
I0
sbsbasS'k'
p7212
I5
sS'possibility'
p7213
(dp7214
I1
I1
sI2
I1
sI3
I1
sI4
I1
sI5
I1
sI6
I1
sI7
I1
sI8
I1
sI9
I1
sI10
I1
ssb.