ccopy_reg
_reconstructor
p0
(cadaboost
ADABOOST
p1
c__builtin__
object
p2
Ntp3
Rp4
(dp5
S'alpha'
p6
(lp7
F0.38713636268615487
aF0.5645745062640952
asS'D'
p8
(lp9
F0.0016611295681063182
aF0.0016611295681063182
aF0.000537056928034374
aF0.0016611295681063182
aF0.0011648840410886374
aF0.0016611295681063182
aF0.000537056928034374
aF0.0016611295681063182
aF0.0016611295681063182
aF0.0011648840410886374
aF0.0011648840410886374
aF0.0011648840410886374
aF0.000537056928034374
aF0.000537056928034374
aF0.0011648840410886374
aF0.000537056928034374
aF0.000537056928034374
aF0.0016611295681063182
aF0.0011648840410886374
aF0.0016611295681063182
aF0.0011648840410886374
aF0.0011648840410886374
aF0.0011648840410886374
aF0.000537056928034374
aF0.0016611295681063182
aF0.0011648840410886374
aF0.0011648840410886374
aF0.000537056928034374
aF0.0011648840410886374
aF0.0016611295681063182
aF0.000537056928034374
aF0.000537056928034374
aF0.0016611295681063182
aF0.0011648840410886374
aF0.0011648840410886374
aF0.0016611295681063182
aF0.0011648840410886374
aF0.000537056928034374
aF0.000537056928034374
aF0.0011648840410886374
aF0.0011648840410886374
aF0.0016611295681063182
aF0.000537056928034374
aF0.0016611295681063182
aF0.0016611295681063182
aF0.0016611295681063182
aF0.0011648840410886374
aF0.0016611295681063182
aF0.0011648840410886374
aF0.0011648840410886374
aF0.000537056928034374
aF0.0011648840410886374
aF0.0011648840410886374
aF0.000537056928034374
aF0.000537056928034374
aF0.0011648840410886374
aF0.000537056928034374
aF0.0011648840410886374
aF0.0011648840410886374
aF0.000537056928034374
aF0.0011648840410886374
aF0.0016611295681063182
aF0.000537056928034374
aF0.0011648840410886374
aF0.000537056928034374
aF0.0011648840410886374
aF0.0016611295681063182
aF0.0011648840410886374
aF0.0016611295681063182
aF0.000537056928034374
aF0.000537056928034374
aF0.000537056928034374
aF0.000537056928034374
aF0.000537056928034374
aF0.0016611295681063182
aF0.0016611295681063182
aF0.000537056928034374
aF0.000537056928034374
aF0.0016611295681063182
aF0.0011648840410886374
aF0.000537056928034374
aF0.0011648840410886374
aF0.000537056928034374
aF0.0016611295681063182
aF0.000537056928034374
aF0.0011648840410886374
aF0.000537056928034374
aF0.0011648840410886374
aF0.000537056928034374
aF0.0016611295681063182
aF0.000537056928034374
aF0.000537056928034374
aF0.0011648840410886374
aF0.000537056928034374
aF0.0016611295681063182
aF0.0016611295681063182
aF0.000537056928034374
aF0.0016611295681063182
aF0.0016611295681063182
aF0.0011648840410886374
aF0.0016611295681063182
aF0.0011648840410886374
aF0.0016611295681063182
aF0.0011648840410886374
aF0.0016611295681063182
aF0.0016611295681063182
aF0.0016611295681063182
aF0.0016611295681063182
aF0.0011648840410886374
aF0.0011648840410886374
aF0.0016611295681063182
aF0.0011648840410886374
aF0.0016611295681063182
aF0.0011648840410886374
aF0.0011648840410886374
aF0.000537056928034374
aF0.000537056928034374
aF0.000537056928034374
aF0.0011648840410886374
aF0.0016611295681063182
aF0.0016611295681063182
aF0.0016611295681063182
aF0.000537056928034374
aF0.0016611295681063182
aF0.0011648840410886374
aF0.000537056928034374
aF0.0011648840410886374
aF0.000537056928034374
aF0.0016611295681063182
aF0.0016611295681063182
aF0.0011648840410886374
aF0.000537056928034374
aF0.0011648840410886374
aF0.0011648840410886374
aF0.0011648840410886374
aF0.0016611295681063182
aF0.0016611295681063182
aF0.0016611295681063182
aF0.0011648840410886374
aF0.000537056928034374
aF0.0011648840410886374
aF0.0011648840410886374
aF0.0016611295681063182
aF0.0011648840410886374
aF0.0016611295681063182
aF0.0016611295681063182
aF0.000537056928034374
aF0.0011648840410886374
aF0.000537056928034374
aF0.0016611295681063182
aF0.0011648840410886374
aF0.000537056928034374
aF0.0011648840410886374
aF0.000537056928034374
aF0.0016611295681063182
aF0.0011648840410886374
aF0.0011648840410886374
aF0.000537056928034374
aF0.0016611295681063182
aF0.0011648840410886374
aF0.0011648840410886374
aF0.0011648840410886374
aF0.0016611295681063182
aF0.000537056928034374
aF0.000537056928034374
aF0.0016611295681063182
aF0.000537056928034374
aF0.000537056928034374
aF0.000537056928034374
aF0.000537056928034374
aF0.0011648840410886374
aF0.0011648840410886374
aF0.0011648840410886374
aF0.0016611295681063182
aF0.000537056928034374
aF0.0011648840410886374
aF0.000537056928034374
aF0.0016611295681063182
aF0.0016611295681063182
aF0.0011648840410886374
aF0.000537056928034374
aF0.000537056928034374
aF0.000537056928034374
aF0.0016611295681063182
aF0.0011648840410886374
aF0.000537056928034374
aF0.0016611295681063182
aF0.000537056928034374
aF0.0011648840410886374
aF0.0016611295681063182
aF0.0016611295681063182
aF0.000537056928034374
aF0.0016611295681063182
aF0.000537056928034374
aF0.0016611295681063182
aF0.0016611295681063182
aF0.000537056928034374
aF0.0016611295681063182
aF0.0011648840410886374
aF0.0016611295681063182
aF0.0011648840410886374
aF0.000537056928034374
aF0.000537056928034374
aF0.000537056928034374
aF0.0016611295681063182
aF0.0011648840410886374
aF0.0016611295681063182
aF0.0011648840410886374
aF0.000537056928034374
aF0.0011648840410886374
aF0.000537056928034374
aF0.000537056928034374
aF0.0011648840410886374
aF0.000537056928034374
aF0.0016611295681063182
aF0.0016611295681063182
aF0.0016611295681063182
aF0.000537056928034374
aF0.000537056928034374
aF0.0016611295681063182
aF0.0016611295681063182
aF0.000537056928034374
aF0.000537056928034374
aF0.0011648840410886374
aF0.000537056928034374
aF0.000537056928034374
aF0.0011648840410886374
aF0.000537056928034374
aF0.0016611295681063182
aF0.0016611295681063182
aF0.0016611295681063182
aF0.0016611295681063182
aF0.0016611295681063182
aF0.000537056928034374
aF0.000537056928034374
aF0.000537056928034374
aF0.000537056928034374
aF0.0011648840410886374
aF0.000537056928034374
aF0.0016611295681063182
aF0.000537056928034374
aF0.000537056928034374
aF0.000537056928034374
aF0.000537056928034374
aF0.0011648840410886374
aF0.0011648840410886374
aF0.000537056928034374
aF0.0016611295681063182
aF0.0011648840410886374
aF0.000537056928034374
aF0.0016611295681063182
aF0.0016611295681063182
aF0.000537056928034374
aF0.000537056928034374
aF0.0016611295681063182
aF0.000537056928034374
aF0.000537056928034374
aF0.000537056928034374
aF0.000537056928034374
aF0.0016611295681063182
aF0.0011648840410886374
aF0.0016611295681063182
aF0.0016611295681063182
aF0.000537056928034374
aF0.0011648840410886374
aF0.0016611295681063182
aF0.0016611295681063182
aF0.0011648840410886374
aF0.0011648840410886374
aF0.0011648840410886374
aF0.000537056928034374
aF0.0016611295681063182
aF0.0016611295681063182
aF0.0011648840410886374
aF0.0016611295681063182
aF0.000537056928034374
aF0.000537056928034374
aF0.0016611295681063182
aF0.0016611295681063182
aF0.0011648840410886374
aF0.0011648840410886374
aF0.0016611295681063182
aF0.0016611295681063182
aF0.0011648840410886374
aF0.0011648840410886374
aF0.000537056928034374
aF0.000537056928034374
aF0.000537056928034374
aF0.000537056928034374
aF0.000537056928034374
aF0.0016611295681063182
aF0.000537056928034374
aF0.000537056928034374
aF0.0011648840410886374
aF0.0011648840410886374
aF0.0016611295681063182
aF0.0011648840410886374
aF0.0016611295681063182
aF0.0011648840410886374
aF0.0016611295681063182
aF0.0011648840410886374
aF0.000537056928034374
aF0.0016611295681063182
aF0.0011648840410886374
aF0.0016611295681063182
aF0.0016611295681063182
aF0.000537056928034374
aF0.0016611295681063182
aF0.000537056928034374
aF0.000537056928034374
aF0.0016611295681063182
aF0.0011648840410886374
aF0.0016611295681063182
aF0.000537056928034374
aF0.000537056928034374
aF0.000537056928034374
aF0.0011648840410886374
aF0.0016611295681063182
aF0.0011648840410886374
aF0.0016611295681063182
aF0.000537056928034374
aF0.0016611295681063182
aF0.0011648840410886374
aF0.0011648840410886374
aF0.0016611295681063182
aF0.0016611295681063182
aF0.000537056928034374
aF0.0011648840410886374
aF0.0016611295681063182
aF0.000537056928034374
aF0.000537056928034374
aF0.0016611295681063182
aF0.0011648840410886374
aF0.000537056928034374
aF0.0011648840410886374
aF0.0011648840410886374
aF0.000537056928034374
aF0.0011648840410886374
aF0.0016611295681063182
aF0.000537056928034374
aF0.000537056928034374
aF0.0011648840410886374
aF0.000537056928034374
aF0.0011648840410886374
aF0.000537056928034374
aF0.0016611295681063182
aF0.000537056928034374
aF0.000537056928034374
aF0.000537056928034374
aF0.000537056928034374
aF0.0011648840410886374
aF0.000537056928034374
aF0.0016611295681063182
aF0.0016611295681063182
aF0.000537056928034374
aF0.0016611295681063182
aF0.0011648840410886374
aF0.0011648840410886374
aF0.0016611295681063182
aF0.000537056928034374
aF0.0016611295681063182
aF0.0016611295681063182
aF0.0011648840410886374
aF0.000537056928034374
aF0.0016611295681063182
aF0.0011648840410886374
aF0.0011648840410886374
aF0.000537056928034374
aF0.000537056928034374
aF0.000537056928034374
aF0.0016611295681063182
aF0.0011648840410886374
aF0.0016611295681063182
aF0.000537056928034374
aF0.000537056928034374
aF0.0011648840410886374
aF0.0016611295681063182
aF0.0016611295681063182
aF0.000537056928034374
aF0.000537056928034374
aF0.0011648840410886374
aF0.000537056928034374
aF0.0016611295681063182
aF0.0016611295681063182
aF0.000537056928034374
aF0.0016611295681063182
aF0.0011648840410886374
aF0.0016611295681063182
aF0.000537056928034374
aF0.000537056928034374
aF0.0011648840410886374
aF0.000537056928034374
aF0.000537056928034374
aF0.0011648840410886374
aF0.000537056928034374
aF0.0016611295681063182
aF0.0016611295681063182
aF0.0011648840410886374
aF0.0016611295681063182
aF0.000537056928034374
aF0.000537056928034374
aF0.0016611295681063182
aF0.0011648840410886374
aF0.000537056928034374
aF0.0016611295681063182
aF0.0016611295681063182
aF0.000537056928034374
aF0.000537056928034374
aF0.000537056928034374
aF0.0016611295681063182
aF0.000537056928034374
aF0.0011648840410886374
aF0.0016611295681063182
aF0.000537056928034374
aF0.0011648840410886374
aF0.000537056928034374
aF0.0011648840410886374
aF0.000537056928034374
aF0.0011648840410886374
aF0.0011648840410886374
aF0.0016611295681063182
aF0.0011648840410886374
aF0.0016611295681063182
aF0.0016611295681063182
aF0.0011648840410886374
aF0.0016611295681063182
aF0.0011648840410886374
aF0.000537056928034374
aF0.0016611295681063182
aF0.0011648840410886374
aF0.000537056928034374
aF0.000537056928034374
aF0.000537056928034374
aF0.000537056928034374
aF0.0011648840410886374
aF0.000537056928034374
aF0.0016611295681063182
aF0.0016611295681063182
aF0.0016611295681063182
aF0.0011648840410886374
aF0.0016611295681063182
aF0.0016611295681063182
aF0.000537056928034374
aF0.000537056928034374
aF0.0016611295681063182
aF0.0011648840410886374
aF0.0016611295681063182
aF0.0016611295681063182
aF0.000537056928034374
aF0.0016611295681063182
aF0.000537056928034374
aF0.0011648840410886374
aF0.000537056928034374
aF0.0011648840410886374
aF0.0011648840410886374
aF0.000537056928034374
aF0.0016611295681063182
aF0.0016611295681063182
aF0.0011648840410886374
aF0.0016611295681063182
aF0.000537056928034374
aF0.0011648840410886374
aF0.0011648840410886374
aF0.0011648840410886374
aF0.0016611295681063182
aF0.000537056928034374
aF0.000537056928034374
aF0.0016611295681063182
aF0.0011648840410886374
aF0.0011648840410886374
aF0.000537056928034374
aF0.0016611295681063182
aF0.000537056928034374
aF0.000537056928034374
aF0.0016611295681063182
aF0.0011648840410886374
aF0.0011648840410886374
aF0.0011648840410886374
aF0.000537056928034374
aF0.000537056928034374
aF0.0016611295681063182
aF0.0011648840410886374
aF0.0011648840410886374
aF0.000537056928034374
aF0.0016611295681063182
aF0.0011648840410886374
aF0.0011648840410886374
aF0.000537056928034374
aF0.0011648840410886374
aF0.0011648840410886374
aF0.000537056928034374
aF0.000537056928034374
aF0.0011648840410886374
aF0.0011648840410886374
aF0.000537056928034374
aF0.000537056928034374
aF0.0016611295681063182
aF0.0016611295681063182
aF0.000537056928034374
aF0.0011648840410886374
aF0.000537056928034374
aF0.0016611295681063182
aF0.0011648840410886374
aF0.000537056928034374
aF0.0011648840410886374
aF0.0016611295681063182
aF0.000537056928034374
aF0.000537056928034374
aF0.0011648840410886374
aF0.0016611295681063182
aF0.000537056928034374
aF0.0011648840410886374
aF0.0016611295681063182
aF0.0011648840410886374
aF0.0016611295681063182
aF0.0016611295681063182
aF0.000537056928034374
aF0.0016611295681063182
aF0.0016611295681063182
aF0.0016611295681063182
aF0.0016611295681063182
aF0.000537056928034374
aF0.000537056928034374
aF0.000537056928034374
aF0.0011648840410886374
aF0.0011648840410886374
aF0.0011648840410886374
aF0.000537056928034374
aF0.000537056928034374
aF0.0011648840410886374
aF0.0016611295681063182
aF0.0016611295681063182
aF0.0011648840410886374
aF0.000537056928034374
aF0.0011648840410886374
aF0.000537056928034374
aF0.0011648840410886374
aF0.0016611295681063182
aF0.0011648840410886374
aF0.0016611295681063182
aF0.000537056928034374
aF0.0011648840410886374
aF0.0016611295681063182
aF0.000537056928034374
aF0.0016611295681063182
aF0.0016611295681063182
aF0.0011648840410886374
aF0.0016611295681063182
aF0.000537056928034374
aF0.0016611295681063182
aF0.0016611295681063182
aF0.0011648840410886374
aF0.0016611295681063182
aF0.0011648840410886374
aF0.000537056928034374
aF0.0016611295681063182
aF0.0011648840410886374
aF0.000537056928034374
aF0.0016611295681063182
aF0.0016611295681063182
aF0.0016611295681063182
aF0.000537056928034374
aF0.0016611295681063182
aF0.0016611295681063182
aF0.0016611295681063182
aF0.0016611295681063182
aF0.000537056928034374
aF0.000537056928034374
aF0.0016611295681063182
aF0.000537056928034374
aF0.0016611295681063182
aF0.0011648840410886374
aF0.0016611295681063182
aF0.0016611295681063182
aF0.000537056928034374
aF0.000537056928034374
aF0.0016611295681063182
aF0.0016611295681063182
aF0.000537056928034374
aF0.000537056928034374
aF0.000537056928034374
aF0.0011648840410886374
aF0.0011648840410886374
aF0.000537056928034374
aF0.0011648840410886374
aF0.0016611295681063182
aF0.0016611295681063182
aF0.000537056928034374
aF0.0011648840410886374
aF0.0016611295681063182
aF0.000537056928034374
aF0.0016611295681063182
aF0.000537056928034374
aF0.0011648840410886374
aF0.0011648840410886374
aF0.0011648840410886374
aF0.0016611295681063182
aF0.000537056928034374
aF0.0011648840410886374
aF0.0016611295681063182
aF0.0016611295681063182
aF0.0016611295681063182
aF0.0011648840410886374
aF0.000537056928034374
aF0.0011648840410886374
aF0.000537056928034374
aF0.000537056928034374
aF0.000537056928034374
aF0.0011648840410886374
aF0.0016611295681063182
aF0.0011648840410886374
aF0.0016611295681063182
aF0.000537056928034374
aF0.0016611295681063182
aF0.0011648840410886374
aF0.000537056928034374
aF0.0016611295681063182
aF0.0016611295681063182
aF0.0016611295681063182
aF0.0016611295681063182
aF0.0016611295681063182
aF0.0016611295681063182
aF0.0011648840410886374
aF0.0011648840410886374
aF0.0016611295681063182
aF0.0011648840410886374
aF0.0011648840410886374
aF0.0016611295681063182
aF0.0011648840410886374
aF0.000537056928034374
aF0.000537056928034374
aF0.000537056928034374
aF0.0016611295681063182
aF0.0011648840410886374
aF0.000537056928034374
aF0.000537056928034374
aF0.0011648840410886374
aF0.0011648840410886374
aF0.0016611295681063182
aF0.000537056928034374
aF0.0016611295681063182
aF0.0011648840410886374
aF0.0011648840410886374
aF0.000537056928034374
aF0.000537056928034374
aF0.0011648840410886374
aF0.0016611295681063182
aF0.0016611295681063182
aF0.000537056928034374
aF0.0011648840410886374
aF0.0011648840410886374
aF0.0016611295681063182
aF0.0016611295681063182
aF0.0016611295681063182
aF0.0016611295681063182
aF0.0016611295681063182
aF0.0011648840410886374
aF0.0011648840410886374
aF0.000537056928034374
aF0.0016611295681063182
aF0.0016611295681063182
aF0.000537056928034374
aF0.000537056928034374
aF0.0016611295681063182
aF0.0011648840410886374
aF0.000537056928034374
aF0.0011648840410886374
aF0.0011648840410886374
aF0.000537056928034374
aF0.0011648840410886374
aF0.0016611295681063182
aF0.0011648840410886374
aF0.000537056928034374
aF0.0016611295681063182
aF0.0016611295681063182
aF0.000537056928034374
aF0.0016611295681063182
aF0.0016611295681063182
aF0.0011648840410886374
aF0.0011648840410886374
aF0.000537056928034374
aF0.0016611295681063182
aF0.0011648840410886374
aF0.0016611295681063182
aF0.0016611295681063182
aF0.0016611295681063182
aF0.0011648840410886374
aF0.000537056928034374
aF0.0011648840410886374
aF0.000537056928034374
aF0.0011648840410886374
aF0.000537056928034374
aF0.0011648840410886374
aF0.0016611295681063182
aF0.0016611295681063182
aF0.0016611295681063182
aF0.0011648840410886374
aF0.000537056928034374
aF0.0016611295681063182
aF0.0016611295681063182
aF0.0011648840410886374
aF0.0011648840410886374
aF0.0016611295681063182
aF0.000537056928034374
aF0.0011648840410886374
aF0.0011648840410886374
aF0.0016611295681063182
aF0.000537056928034374
aF0.0011648840410886374
aF0.0011648840410886374
aF0.000537056928034374
aF0.000537056928034374
aF0.0016611295681063182
aF0.0011648840410886374
aF0.0011648840410886374
aF0.0011648840410886374
aF0.0016611295681063182
aF0.000537056928034374
aF0.0016611295681063182
aF0.0011648840410886374
aF0.0011648840410886374
aF0.0011648840410886374
aF0.000537056928034374
aF0.000537056928034374
aF0.0011648840410886374
aF0.0011648840410886374
aF0.0016611295681063182
aF0.0011648840410886374
aF0.000537056928034374
aF0.000537056928034374
aF0.0016611295681063182
aF0.0016611295681063182
aF0.0016611295681063182
aF0.0016611295681063182
aF0.0011648840410886374
aF0.0016611295681063182
aF0.0016611295681063182
aF0.000537056928034374
aF0.0011648840410886374
aF0.0016611295681063182
aF0.0016611295681063182
aF0.0016611295681063182
aF0.0011648840410886374
aF0.000537056928034374
aF0.000537056928034374
aF0.0016611295681063182
aF0.000537056928034374
aF0.0011648840410886374
aF0.0011648840410886374
aF0.0016611295681063182
aF0.0011648840410886374
aF0.0011648840410886374
aF0.0016611295681063182
aF0.0011648840410886374
aF0.0011648840410886374
aF0.000537056928034374
aF0.000537056928034374
aF0.000537056928034374
aF0.000537056928034374
aF0.0016611295681063182
aF0.0016611295681063182
aF0.0011648840410886374
aF0.0011648840410886374
aF0.000537056928034374
aF0.0011648840410886374
aF0.000537056928034374
aF0.0011648840410886374
aF0.000537056928034374
aF0.0016611295681063182
aF0.000537056928034374
aF0.000537056928034374
aF0.0011648840410886374
aF0.0016611295681063182
aF0.0011648840410886374
aF0.0016611295681063182
aF0.0011648840410886374
aF0.0011648840410886374
aF0.000537056928034374
aF0.000537056928034374
aF0.0011648840410886374
aF0.0011648840410886374
aF0.000537056928034374
aF0.0011648840410886374
aF0.0011648840410886374
aF0.000537056928034374
aF0.0011648840410886374
aF0.000537056928034374
aF0.0011648840410886374
aF0.0011648840410886374
aF0.0011648840410886374
aF0.000537056928034374
aF0.0016611295681063182
aF0.000537056928034374
aF0.0016611295681063182
aF0.0016611295681063182
aF0.000537056928034374
aF0.0016611295681063182
aF0.000537056928034374
aF0.0011648840410886374
aF0.000537056928034374
aF0.0016611295681063182
aF0.0011648840410886374
aF0.000537056928034374
aF0.000537056928034374
aF0.0016611295681063182
aF0.0011648840410886374
aF0.0011648840410886374
aF0.000537056928034374
aF0.000537056928034374
aF0.000537056928034374
aF0.0016611295681063182
aF0.0011648840410886374
aF0.0016611295681063182
aF0.0016611295681063182
aF0.0011648840410886374
aF0.0016611295681063182
aF0.0011648840410886374
aF0.000537056928034374
aF0.0016611295681063182
aF0.000537056928034374
aF0.000537056928034374
aF0.0011648840410886374
aF0.000537056928034374
aF0.000537056928034374
aF0.0016611295681063182
aF0.000537056928034374
aF0.000537056928034374
aF0.0016611295681063182
aF0.0016611295681063182
aF0.000537056928034374
aF0.000537056928034374
aF0.000537056928034374
aF0.000537056928034374
aF0.0016611295681063182
aF0.0016611295681063182
aF0.000537056928034374
aF0.0016611295681063182
aF0.0016611295681063182
aF0.0011648840410886374
aF0.0011648840410886374
aF0.000537056928034374
aF0.0011648840410886374
aF0.0016611295681063182
aF0.0016611295681063182
aF0.000537056928034374
aF0.0011648840410886374
aF0.0011648840410886374
aF0.0016611295681063182
aF0.000537056928034374
aF0.0011648840410886374
aF0.0011648840410886374
aF0.0016611295681063182
aF0.0011648840410886374
aF0.000537056928034374
aF0.000537056928034374
aF0.0016611295681063182
aF0.0016611295681063182
aF0.0011648840410886374
aF0.0016611295681063182
aF0.0011648840410886374
aF0.0011648840410886374
aF0.0011648840410886374
aF0.0016611295681063182
aF0.0011648840410886374
aF0.000537056928034374
aF0.0011648840410886374
aF0.000537056928034374
aF0.0016611295681063182
aF0.0011648840410886374
aF0.0016611295681063182
aF0.0011648840410886374
aF0.000537056928034374
aF0.0016611295681063182
aF0.000537056928034374
aF0.0011648840410886374
aF0.000537056928034374
aF0.0016611295681063182
aF0.000537056928034374
aF0.000537056928034374
aF0.0016611295681063182
aF0.0016611295681063182
aF0.0011648840410886374
aF0.000537056928034374
aF0.000537056928034374
aF0.0016611295681063182
aF0.000537056928034374
aF0.000537056928034374
aF0.000537056928034374
aF0.0011648840410886374
aF0.000537056928034374
aF0.0016611295681063182
aF0.0016611295681063182
aF0.000537056928034374
aF0.0011648840410886374
aF0.000537056928034374
aF0.000537056928034374
aF0.000537056928034374
aF0.0011648840410886374
aF0.000537056928034374
aF0.000537056928034374
asS'H'
p10
(lp11
(I6
I-1
I1
F0.5
F0.3155555555555564
tp12
a(I10
I1
I-1
F0.5
F0.244318181818182
tp13
asS'T'
p14
I2
sb.