ccopy_reg
_reconstructor
p0
(cknn
DISTANCE_KNN
p1
c__builtin__
object
p2
Ntp3
Rp4
(dp5
S'instances'
p6
(lp7
(ics475_types
Instance
p8
(dp9
S'_feature_vector'
p10
(ics475_types
FeatureVector
p11
(dp12
S'sparseVec'
p13
(dp14
I1
F1.0
sI2
F22.25
sI3
F1.25
sI8
F3.25
sI9
F1.0
sI13
F1.0
sI14
F280.0
sI17
F1.0
sI18
F1.0
sI20
F1.0
sI21
F1.0
sI23
F1.0
sI24
F1.0
ssbsS'_label'
p15
g0
(ccs475_types
ClassificationLabel
p16
g2
Ntp17
Rp18
(dp19
g15
I0
sbsba(ics475_types
Instance
p20
(dp21
g10
(ics475_types
FeatureVector
p22
(dp23
g13
(dp24
I33
F1.0
sI2
F16.25
sI3
F0.835
sI4
F1.0
sI5
F1.0
sI7
F1.0
sI8
F0.085
sI14
F200.0
sI16
F1.0
sI35
F1.0
sI20
F1.0
sI21
F1.0
sI22
F1.0
ssbsg15
g0
(g16
g2
Ntp25
Rp26
(dp27
g15
I0
sbsba(ics475_types
Instance
p28
(dp29
g10
(ics475_types
FeatureVector
p30
(dp31
g13
(dp32
I1
F1.0
sI2
F55.75
sI3
F7.08
sI4
F1.0
sI5
F1.0
sI33
F1.0
sI8
F6.75
sI10
F1.0
sI11
F3.0
sI12
F1.0
sI13
F1.0
sI14
F100.0
sI15
F50.0
sI19
F1.0
sI27
F1.0
ssbsg15
g0
(g16
g2
Ntp33
Rp34
(dp35
g15
I0
sbsba(ics475_types
Instance
p36
(dp37
g10
(ics475_types
FeatureVector
p38
(dp39
g13
(dp40
I2
F44.83
sI3
F7.0
sI6
F1.0
sI7
F1.0
sI8
F1.625
sI9
F1.0
sI13
F1.0
sI14
F160.0
sI15
F2.0
sI16
F1.0
sI17
F1.0
sI18
F1.0
sI20
F1.0
sI21
F1.0
ssbsg15
g0
(g16
g2
Ntp41
Rp42
(dp43
g15
I0
sbsba(ics475_types
Instance
p44
(dp45
g10
(ics475_types
FeatureVector
p46
(dp47
g13
(dp48
I1
F1.0
sI2
F24.08
sI3
F0.5
sI4
F1.0
sI5
F1.0
sI33
F1.0
sI8
F1.25
sI10
F1.0
sI11
F1.0
sI13
F1.0
sI15
F678.0
sI21
F1.0
sI27
F1.0
sI30
F1.0
ssbsg15
g0
(g16
g2
Ntp49
Rp50
(dp51
g15
I1
sbsba(ics475_types
Instance
p52
(dp53
g10
(ics475_types
FeatureVector
p54
(dp55
g13
(dp56
I33
F1.0
sI2
F40.58
sI3
F5.0
sI4
F1.0
sI5
F1.0
sI6
F1.0
sI7
F1.0
sI8
F5.0
sI10
F1.0
sI11
F7.0
sI13
F1.0
sI15
F3065.0
sI16
F1.0
sI21
F1.0
ssbsg15
g0
(g16
g2
Ntp57
Rp58
(dp59
g15
I1
sbsba(ics475_types
Instance
p60
(dp61
g10
(ics475_types
FeatureVector
p62
(dp63
g13
(dp64
I33
F1.0
sI2
F25.0
sI3
F12.5
sI4
F1.0
sI5
F1.0
sI7
F1.0
sI8
F3.0
sI12
F1.0
sI14
F20.0
sI16
F1.0
sI20
F1.0
sI22
F1.0
sI37
F1.0
ssbsg15
g0
(g16
g2
Ntp65
Rp66
(dp67
g15
I1
sbsba(ics475_types
Instance
p68
(dp69
g10
(ics475_types
FeatureVector
p70
(dp71
g13
(dp72
I2
F29.83
sI3
F1.25
sI7
F1.0
sI8
F0.25
sI9
F1.0
sI13
F1.0
sI14
F224.0
sI16
F1.0
sI17
F1.0
sI18
F1.0
sI19
F1.0
sI20
F1.0
sI21
F1.0
ssbsg15
g0
(g16
g2
Ntp73
Rp74
(dp75
g15
I0
sbsba(ics475_types
Instance
p76
(dp77
g10
(ics475_types
FeatureVector
p78
(dp79
g13
(dp80
I2
F23.58
sI3
F1.79
sI4
F1.0
sI5
F1.0
sI6
F1.0
sI7
F1.0
sI8
F0.54
sI9
F1.0
sI12
F1.0
sI13
F1.0
sI14
F136.0
sI15
F1.0
sI16
F1.0
sI20
F1.0
ssbsg15
g0
(g16
g2
Ntp81
Rp82
(dp83
g15
I0
sbsba(ics475_types
Instance
p84
(dp85
g10
(ics475_types
FeatureVector
p86
(dp87
g13
(dp88
I33
F1.0
sI2
F27.58
sI3
F2.04
sI37
F1.0
sI7
F1.0
sI8
F2.0
sI10
F1.0
sI11
F3.0
sI12
F1.0
sI13
F1.0
sI14
F370.0
sI15
F560.0
sI16
F1.0
sI17
F1.0
sI18
F1.0
ssbsg15
g0
(g16
g2
Ntp89
Rp90
(dp91
g15
I1
sbsba(ics475_types
Instance
p92
(dp93
g10
(ics475_types
FeatureVector
p94
(dp95
g13
(dp96
I33
F1.0
sI2
F18.42
sI3
F10.415
sI37
F1.0
sI7
F1.0
sI8
F0.125
sI13
F1.0
sI14
F120.0
sI15
F375.0
sI16
F1.0
sI17
F1.0
sI18
F1.0
sI20
F1.0
sI21
F1.0
ssbsg15
g0
(g16
g2
Ntp97
Rp98
(dp99
g15
I0
sbsba(ics475_types
Instance
p100
(dp101
g10
(ics475_types
FeatureVector
p102
(dp103
g13
(dp104
I33
F1.0
sI2
F32.08
sI3
F4.0
sI4
F1.0
sI5
F1.0
sI7
F1.0
sI8
F2.5
sI12
F1.0
sI13
F1.0
sI14
F360.0
sI16
F1.0
sI35
F1.0
sI20
F1.0
ssbsg15
g0
(g16
g2
Ntp105
Rp106
(dp107
g15
I1
sbsba(ics475_types
Instance
p108
(dp109
g10
(ics475_types
FeatureVector
p110
(dp111
g13
(dp112
I33
F1.0
sI2
F44.25
sI3
F11.0
sI7
F1.0
sI8
F1.5
sI34
F1.0
sI16
F1.0
sI17
F1.0
sI18
F1.0
sI20
F1.0
sI21
F1.0
sI22
F1.0
ssbsg15
g0
(g16
g2
Ntp113
Rp114
(dp115
g15
I0
sbsba(ics475_types
Instance
p116
(dp117
g10
(ics475_types
FeatureVector
p118
(dp119
g13
(dp120
I2
F24.5
sI3
F13.335
sI37
F1.0
sI7
F1.0
sI8
F0.04
sI9
F1.0
sI12
F1.0
sI13
F1.0
sI14
F120.0
sI15
F475.0
sI16
F1.0
sI17
F1.0
sI18
F1.0
sI20
F1.0
ssbsg15
g0
(g16
g2
Ntp121
Rp122
(dp123
g15
I0
sbsba(ics475_types
Instance
p124
(dp125
g10
(ics475_types
FeatureVector
p126
(dp127
g13
(dp128
I33
F1.0
sI2
F42.0
sI3
F9.79
sI4
F1.0
sI5
F1.0
sI39
F1.0
sI8
F7.96
sI10
F1.0
sI11
F8.0
sI13
F1.0
sI16
F1.0
sI21
F1.0
sI27
F1.0
ssbsg15
g0
(g16
g2
Ntp129
Rp130
(dp131
g15
I1
sbsba(ics475_types
Instance
p132
(dp133
g10
(ics475_types
FeatureVector
p134
(dp135
g13
(dp136
I32
F1.0
sI33
F1.0
sI2
F36.25
sI3
F5.0
sI4
F1.0
sI5
F1.0
sI6
F1.0
sI8
F2.5
sI10
F1.0
sI11
F6.0
sI13
F1.0
sI15
F367.0
sI16
F1.0
sI21
F1.0
ssbsg15
g0
(g16
g2
Ntp137
Rp138
(dp139
g15
I1
sbsba(ics475_types
Instance
p140
(dp141
g10
(ics475_types
FeatureVector
p142
(dp143
g13
(dp144
I33
F1.0
sI2
F23.17
sI4
F1.0
sI5
F1.0
sI7
F1.0
sI8
F0.085
sI13
F1.0
sI16
F1.0
sI20
F1.0
sI21
F1.0
sI36
F1.0
ssbsg15
g0
(g16
g2
Ntp145
Rp146
(dp147
g15
I1
sbsba(ics475_types
Instance
p148
(dp149
g10
(ics475_types
FeatureVector
p150
(dp151
g13
(dp152
I2
F34.17
sI3
F5.25
sI4
F1.0
sI5
F1.0
sI7
F1.0
sI8
F0.085
sI9
F1.0
sI12
F1.0
sI13
F1.0
sI14
F290.0
sI15
F6.0
sI16
F1.0
sI20
F1.0
sI31
F1.0
ssbsg15
g0
(g16
g2
Ntp153
Rp154
(dp155
g15
I1
sbsba(ics475_types
Instance
p156
(dp157
g10
(ics475_types
FeatureVector
p158
(dp159
g13
(dp160
I33
F1.0
sI2
F26.67
sI3
F2.71
sI36
F1.0
sI7
F1.0
sI8
F5.25
sI10
F1.0
sI11
F1.0
sI13
F1.0
sI14
F211.0
sI16
F1.0
sI17
F1.0
sI18
F1.0
sI21
F1.0
ssbsg15
g0
(g16
g2
Ntp161
Rp162
(dp163
g15
I1
sbsba(ics475_types
Instance
p164
(dp165
g10
(ics475_types
FeatureVector
p166
(dp167
g13
(dp168
I2
F25.42
sI3
F0.54
sI4
F1.0
sI5
F1.0
sI7
F1.0
sI8
F0.165
sI9
F1.0
sI10
F1.0
sI11
F1.0
sI13
F1.0
sI14
F272.0
sI15
F444.0
sI16
F1.0
sI21
F1.0
sI31
F1.0
ssbsg15
g0
(g16
g2
Ntp169
Rp170
(dp171
g15
I0
sbsba(ics475_types
Instance
p172
(dp173
g10
(ics475_types
FeatureVector
p174
(dp175
g13
(dp176
I1
F1.0
sI2
F19.58
sI3
F0.665
sI6
F1.0
sI7
F1.0
sI8
F1.0
sI9
F1.0
sI10
F1.0
sI11
F1.0
sI13
F1.0
sI14
F2000.0
sI15
F2.0
sI17
F1.0
sI18
F1.0
sI21
F1.0
ssbsg15
g0
(g16
g2
Ntp177
Rp178
(dp179
g15
I0
sbsba(ics475_types
Instance
p180
(dp181
g10
(ics475_types
FeatureVector
p182
(dp183
g13
(dp184
I33
F1.0
sI2
F39.0
sI3
F5.0
sI4
F1.0
sI5
F1.0
sI7
F1.0
sI8
F3.5
sI10
F1.0
sI11
F10.0
sI12
F1.0
sI13
F1.0
sI16
F1.0
sI36
F1.0
ssbsg15
g0
(g16
g2
Ntp185
Rp186
(dp187
g15
I1
sbsba(ics475_types
Instance
p188
(dp189
g10
(ics475_types
FeatureVector
p190
(dp191
g13
(dp192
I1
F1.0
sI2
F30.67
sI3
F12.0
sI4
F1.0
sI5
F1.0
sI6
F1.0
sI7
F1.0
sI8
F2.0
sI10
F1.0
sI11
F1.0
sI13
F1.0
sI14
F220.0
sI15
F19.0
sI21
F1.0
sI33
F1.0
ssbsg15
g0
(g16
g2
Ntp193
Rp194
(dp195
g15
I1
sbsba(ics475_types
Instance
p196
(dp197
g10
(ics475_types
FeatureVector
p198
(dp199
g13
(dp200
I1
F1.0
sI2
F19.17
sI3
F5.415
sI4
F1.0
sI5
F1.0
sI8
F0.29
sI9
F1.0
sI13
F1.0
sI14
F80.0
sI15
F484.0
sI20
F1.0
sI21
F1.0
sI25
F1.0
sI27
F1.0
ssbsg15
g0
(g16
g2
Ntp201
Rp202
(dp203
g15
I0
sbsba(ics475_types
Instance
p204
(dp205
g10
(ics475_types
FeatureVector
p206
(dp207
g13
(dp208
I1
F1.0
sI2
F49.83
sI3
F13.585
sI4
F1.0
sI5
F1.0
sI33
F1.0
sI8
F8.5
sI12
F1.0
sI13
F1.0
sI19
F1.0
sI20
F1.0
sI27
F1.0
ssbsg15
g0
(g16
g2
Ntp209
Rp210
(dp211
g15
I1
sbsba(ics475_types
Instance
p212
(dp213
g10
(ics475_types
FeatureVector
p214
(dp215
g13
(dp216
I1
F1.0
sI2
F18.83
sI3
F9.5
sI4
F1.0
sI5
F1.0
sI7
F1.0
sI8
F1.625
sI10
F1.0
sI11
F6.0
sI12
F1.0
sI13
F1.0
sI14
F40.0
sI15
F600.0
sI33
F1.0
sI31
F1.0
ssbsg15
g0
(g16
g2
Ntp217
Rp218
(dp219
g15
I1
sbsba(ics475_types
Instance
p220
(dp221
g10
(ics475_types
FeatureVector
p222
(dp223
g13
(dp224
I2
F38.42
sI3
F0.705
sI4
F1.0
sI5
F1.0
sI6
F1.0
sI7
F1.0
sI8
F0.375
sI9
F1.0
sI10
F1.0
sI11
F2.0
sI13
F1.0
sI14
F225.0
sI15
F500.0
sI16
F1.0
sI21
F1.0
ssbsg15
g0
(g16
g2
Ntp225
Rp226
(dp227
g15
I0
sbsba(ics475_types
Instance
p228
(dp229
g10
(ics475_types
FeatureVector
p230
(dp231
g13
(dp232
I33
F1.0
sI2
F31.92
sI3
F4.46
sI4
F1.0
sI5
F1.0
sI8
F6.04
sI10
F1.0
sI11
F3.0
sI13
F1.0
sI14
F311.0
sI15
F300.0
sI16
F1.0
sI21
F1.0
sI36
F1.0
sI27
F1.0
ssbsg15
g0
(g16
g2
Ntp233
Rp234
(dp235
g15
I1
sbsba(ics475_types
Instance
p236
(dp237
g10
(ics475_types
FeatureVector
p238
(dp239
g13
(dp240
I1
F1.0
sI2
F22.5
sI3
F8.46
sI7
F1.0
sI8
F2.46
sI9
F1.0
sI39
F1.0
sI13
F1.0
sI14
F164.0
sI17
F1.0
sI18
F1.0
sI20
F1.0
sI21
F1.0
ssbsg15
g0
(g16
g2
Ntp241
Rp242
(dp243
g15
I1
sbsba(ics475_types
Instance
p244
(dp245
g10
(ics475_types
FeatureVector
p246
(dp247
g13
(dp248
I1
F1.0
sI2
F17.58
sI3
F9.0
sI4
F1.0
sI5
F1.0
sI7
F1.0
sI8
F1.375
sI12
F1.0
sI13
F1.0
sI20
F1.0
sI33
F1.0
sI37
F1.0
ssbsg15
g0
(g16
g2
Ntp249
Rp250
(dp251
g15
I1
sbsba(ics475_types
Instance
p252
(dp253
g10
(ics475_types
FeatureVector
p254
(dp255
g13
(dp256
I33
F1.0
sI2
F57.83
sI3
F7.04
sI4
F1.0
sI5
F1.0
sI7
F1.0
sI8
F14.0
sI10
F1.0
sI11
F6.0
sI12
F1.0
sI13
F1.0
sI14
F360.0
sI15
F1332.0
sI16
F1.0
sI35
F1.0
ssbsg15
g0
(g16
g2
Ntp257
Rp258
(dp259
g15
I1
sbsba(ics475_types
Instance
p260
(dp261
g10
(ics475_types
FeatureVector
p262
(dp263
g13
(dp264
I1
F1.0
sI2
F25.17
sI3
F2.875
sI4
F1.0
sI5
F1.0
sI33
F1.0
sI8
F0.875
sI39
F1.0
sI13
F1.0
sI14
F360.0
sI20
F1.0
sI21
F1.0
sI27
F1.0
ssbsg15
g0
(g16
g2
Ntp265
Rp266
(dp267
g15
I1
sbsba(ics475_types
Instance
p268
(dp269
g10
(ics475_types
FeatureVector
p270
(dp271
g13
(dp272
I2
F36.08
sI3
F2.54
sI4
F1.0
sI5
F1.0
sI9
F1.0
sI13
F1.0
sI15
F1000.0
sI16
F1.0
sI20
F1.0
sI21
F1.0
sI23
F1.0
sI24
F1.0
ssbsg15
g0
(g16
g2
Ntp273
Rp274
(dp275
g15
I0
sbsba(ics475_types
Instance
p276
(dp277
g10
(ics475_types
FeatureVector
p278
(dp279
g13
(dp280
I2
F26.25
sI3
F1.54
sI4
F1.0
sI5
F1.0
sI7
F1.0
sI8
F0.125
sI9
F1.0
sI13
F1.0
sI14
F100.0
sI16
F1.0
sI20
F1.0
sI21
F1.0
sI31
F1.0
ssbsg15
g0
(g16
g2
Ntp281
Rp282
(dp283
g15
I0
sbsba(ics475_types
Instance
p284
(dp285
g10
(ics475_types
FeatureVector
p286
(dp287
g13
(dp288
I1
F1.0
sI2
F20.83
sI3
F3.0
sI4
F1.0
sI5
F1.0
sI7
F1.0
sI8
F0.04
sI13
F1.0
sI14
F100.0
sI20
F1.0
sI21
F1.0
sI33
F1.0
sI37
F1.0
ssbsg15
g0
(g16
g2
Ntp289
Rp290
(dp291
g15
I1
sbsba(ics475_types
Instance
p292
(dp293
g10
(ics475_types
FeatureVector
p294
(dp295
g13
(dp296
I33
F1.0
sI2
F48.5
sI3
F4.25
sI4
F1.0
sI5
F1.0
sI7
F1.0
sI8
F0.125
sI12
F1.0
sI13
F1.0
sI14
F225.0
sI16
F1.0
sI35
F1.0
sI20
F1.0
ssbsg15
g0
(g16
g2
Ntp297
Rp298
(dp299
g15
I1
sbsba(ics475_types
Instance
p300
(dp301
g10
(ics475_types
FeatureVector
p302
(dp303
g13
(dp304
I1
F1.0
sI2
F32.17
sI3
F1.46
sI4
F1.0
sI5
F1.0
sI7
F1.0
sI8
F1.085
sI10
F1.0
sI11
F16.0
sI13
F1.0
sI14
F120.0
sI15
F2079.0
sI21
F1.0
sI33
F1.0
sI31
F1.0
ssbsg15
g0
(g16
g2
Ntp305
Rp306
(dp307
g15
I1
sbsba(ics475_types
Instance
p308
(dp309
g10
(ics475_types
FeatureVector
p310
(dp311
g13
(dp312
I1
F1.0
sI2
F25.08
sI3
F2.54
sI33
F1.0
sI7
F1.0
sI8
F0.25
sI12
F1.0
sI13
F1.0
sI14
F370.0
sI17
F1.0
sI18
F1.0
sI20
F1.0
sI37
F1.0
ssbsg15
g0
(g16
g2
Ntp313
Rp314
(dp315
g15
I1
sbsba(ics475_types
Instance
p316
(dp317
g10
(ics475_types
FeatureVector
p318
(dp319
g13
(dp320
I33
F1.0
sI2
F33.5
sI3
F1.75
sI4
F1.0
sI5
F1.0
sI39
F1.0
sI8
F4.5
sI10
F1.0
sI11
F4.0
sI12
F1.0
sI13
F1.0
sI14
F253.0
sI15
F857.0
sI16
F1.0
sI27
F1.0
ssbsg15
g0
(g16
g2
Ntp321
Rp322
(dp323
g15
I1
sbsba(ics475_types
Instance
p324
(dp325
g10
(ics475_types
FeatureVector
p326
(dp327
g13
(dp328
I33
F1.0
sI2
F19.17
sI3
F9.5
sI4
F1.0
sI5
F1.0
sI7
F1.0
sI8
F1.5
sI13
F1.0
sI14
F120.0
sI15
F2206.0
sI16
F1.0
sI20
F1.0
sI21
F1.0
sI31
F1.0
ssbsg15
g0
(g16
g2
Ntp329
Rp330
(dp331
g15
I1
sbsba(ics475_types
Instance
p332
(dp333
g10
(ics475_types
FeatureVector
p334
(dp335
g13
(dp336
I33
F1.0
sI2
F26.67
sI3
F1.75
sI6
F1.0
sI7
F1.0
sI8
F1.0
sI10
F1.0
sI11
F5.0
sI12
F1.0
sI13
F1.0
sI14
F160.0
sI15
F5777.0
sI16
F1.0
sI17
F1.0
sI18
F1.0
ssbsg15
g0
(g16
g2
Ntp337
Rp338
(dp339
g15
I1
sbsba(ics475_types
Instance
p340
(dp341
g10
(ics475_types
FeatureVector
p342
(dp343
g13
(dp344
I33
F1.0
sI2
F23.0
sI3
F0.75
sI4
F1.0
sI5
F1.0
sI7
F1.0
sI8
F0.5
sI12
F1.0
sI14
F320.0
sI16
F1.0
sI35
F1.0
sI20
F1.0
sI22
F1.0
ssbsg15
g0
(g16
g2
Ntp345
Rp346
(dp347
g15
I0
sbsba(ics475_types
Instance
p348
(dp349
g10
(ics475_types
FeatureVector
p350
(dp351
g13
(dp352
I33
F1.0
sI2
F57.42
sI3
F8.5
sI4
F1.0
sI5
F1.0
sI8
F7.0
sI41
F1.0
sI10
F1.0
sI11
F3.0
sI13
F1.0
sI16
F1.0
sI21
F1.0
sI27
F1.0
ssbsg15
g0
(g16
g2
Ntp353
Rp354
(dp355
g15
I1
sbsba(ics475_types
Instance
p356
(dp357
g10
(ics475_types
FeatureVector
p358
(dp359
g13
(dp360
I33
F1.0
sI2
F20.67
sI3
F5.29
sI4
F1.0
sI5
F1.0
sI7
F1.0
sI8
F0.375
sI10
F1.0
sI11
F1.0
sI13
F1.0
sI14
F160.0
sI16
F1.0
sI21
F1.0
sI30
F1.0
ssbsg15
g0
(g16
g2
Ntp361
Rp362
(dp363
g15
I0
sbsba(ics475_types
Instance
p364
(dp365
g10
(ics475_types
FeatureVector
p366
(dp367
g13
(dp368
I33
F1.0
sI2
F21.83
sI3
F11.0
sI4
F1.0
sI5
F1.0
sI7
F1.0
sI8
F0.29
sI10
F1.0
sI11
F6.0
sI13
F1.0
sI14
F121.0
sI16
F1.0
sI21
F1.0
sI39
F1.0
ssbsg15
g0
(g16
g2
Ntp369
Rp370
(dp371
g15
I1
sbsba(ics475_types
Instance
p372
(dp373
g10
(ics475_types
FeatureVector
p374
(dp375
g13
(dp376
I2
F15.17
sI3
F7.0
sI4
F1.0
sI5
F1.0
sI7
F1.0
sI8
F1.0
sI9
F1.0
sI13
F1.0
sI14
F600.0
sI16
F1.0
sI20
F1.0
sI21
F1.0
sI41
F1.0
ssbsg15
g0
(g16
g2
Ntp377
Rp378
(dp379
g15
I0
sbsba(ics475_types
Instance
p380
(dp381
g10
(ics475_types
FeatureVector
p382
(dp383
g13
(dp384
I2
F22.25
sI3
F9.0
sI4
F1.0
sI5
F1.0
sI7
F1.0
sI8
F0.085
sI9
F1.0
sI13
F1.0
sI16
F1.0
sI20
F1.0
sI21
F1.0
sI37
F1.0
ssbsg15
g0
(g16
g2
Ntp385
Rp386
(dp387
g15
I0
sbsba(ics475_types
Instance
p388
(dp389
g10
(ics475_types
FeatureVector
p390
(dp391
g13
(dp392
I33
F1.0
sI2
F25.17
sI3
F6.0
sI4
F1.0
sI5
F1.0
sI6
F1.0
sI7
F1.0
sI8
F1.0
sI10
F1.0
sI11
F3.0
sI13
F1.0
sI16
F1.0
sI21
F1.0
ssbsg15
g0
(g16
g2
Ntp393
Rp394
(dp395
g15
I1
sbsba(ics475_types
Instance
p396
(dp397
g10
(ics475_types
FeatureVector
p398
(dp399
g13
(dp400
I2
F38.92
sI3
F1.75
sI4
F1.0
sI5
F1.0
sI7
F1.0
sI8
F0.5
sI9
F1.0
sI12
F1.0
sI13
F1.0
sI14
F300.0
sI15
F2.0
sI16
F1.0
sI19
F1.0
sI20
F1.0
ssbsg15
g0
(g16
g2
Ntp401
Rp402
(dp403
g15
I0
sbsba(ics475_types
Instance
p404
(dp405
g10
(ics475_types
FeatureVector
p406
(dp407
g13
(dp408
I2
F20.08
sI3
F0.25
sI4
F1.0
sI5
F1.0
sI7
F1.0
sI8
F0.125
sI9
F1.0
sI13
F1.0
sI14
F200.0
sI16
F1.0
sI20
F1.0
sI21
F1.0
sI30
F1.0
ssbsg15
g0
(g16
g2
Ntp409
Rp410
(dp411
g15
I0
sbsba(ics475_types
Instance
p412
(dp413
g10
(ics475_types
FeatureVector
p414
(dp415
g13
(dp416
I2
F22.08
sI3
F11.46
sI4
F1.0
sI5
F1.0
sI7
F1.0
sI8
F1.585
sI9
F1.0
sI12
F1.0
sI13
F1.0
sI14
F100.0
sI15
F1212.0
sI16
F1.0
sI19
F1.0
sI20
F1.0
ssbsg15
g0
(g16
g2
Ntp417
Rp418
(dp419
g15
I0
sbsba(ics475_types
Instance
p420
(dp421
g10
(ics475_types
FeatureVector
p422
(dp423
g13
(dp424
I33
F1.0
sI2
F42.0
sI3
F0.205
sI4
F1.0
sI5
F1.0
sI8
F5.125
sI13
F1.0
sI14
F400.0
sI16
F1.0
sI20
F1.0
sI21
F1.0
sI25
F1.0
sI27
F1.0
ssbsg15
g0
(g16
g2
Ntp425
Rp426
(dp427
g15
I1
sbsba(ics475_types
Instance
p428
(dp429
g10
(ics475_types
FeatureVector
p430
(dp431
g13
(dp432
I2
F26.83
sI3
F0.54
sI4
F1.0
sI5
F1.0
sI9
F1.0
sI13
F1.0
sI14
F100.0
sI16
F1.0
sI19
F1.0
sI20
F1.0
sI21
F1.0
sI24
F1.0
ssbsg15
g0
(g16
g2
Ntp433
Rp434
(dp435
g15
I0
sbsba(ics475_types
Instance
p436
(dp437
g10
(ics475_types
FeatureVector
p438
(dp439
g13
(dp440
I32
F1.0
sI2
F27.42
sI3
F12.5
sI4
F1.0
sI5
F1.0
sI8
F0.25
sI9
F1.0
sI12
F1.0
sI13
F1.0
sI14
F720.0
sI16
F1.0
sI20
F1.0
sI37
F1.0
ssbsg15
g0
(g16
g2
Ntp441
Rp442
(dp443
g15
I0
sbsba(ics475_types
Instance
p444
(dp445
g10
(ics475_types
FeatureVector
p446
(dp447
g13
(dp448
I33
F1.0
sI2
F41.58
sI3
F1.75
sI4
F1.0
sI5
F1.0
sI7
F1.0
sI8
F0.21
sI13
F1.0
sI14
F160.0
sI16
F1.0
sI19
F1.0
sI20
F1.0
sI21
F1.0
ssbsg15
g0
(g16
g2
Ntp449
Rp450
(dp451
g15
I0
sbsba(ics475_types
Instance
p452
(dp453
g10
(ics475_types
FeatureVector
p454
(dp455
g13
(dp456
I1
F1.0
sI2
F39.08
sI3
F4.0
sI4
F1.0
sI5
F1.0
sI6
F1.0
sI7
F1.0
sI8
F3.0
sI9
F1.0
sI13
F1.0
sI14
F480.0
sI20
F1.0
sI21
F1.0
ssbsg15
g0
(g16
g2
Ntp457
Rp458
(dp459
g15
I0
sbsba(ics475_types
Instance
p460
(dp461
g10
(ics475_types
FeatureVector
p462
(dp463
g13
(dp464
I1
F1.0
sI2
F33.25
sI3
F2.5
sI6
F1.0
sI7
F1.0
sI8
F2.5
sI9
F1.0
sI12
F1.0
sI13
F1.0
sI15
F2.0
sI17
F1.0
sI18
F1.0
sI20
F1.0
ssbsg15
g0
(g16
g2
Ntp465
Rp466
(dp467
g15
I0
sbsba(ics475_types
Instance
p468
(dp469
g10
(ics475_types
FeatureVector
p470
(dp471
g13
(dp472
I33
F1.0
sI2
F32.0
sI3
F1.75
sI8
F0.04
sI41
F1.0
sI12
F1.0
sI13
F1.0
sI14
F393.0
sI16
F1.0
sI17
F1.0
sI18
F1.0
sI20
F1.0
sI27
F1.0
ssbsg15
g0
(g16
g2
Ntp473
Rp474
(dp475
g15
I1
sbsba(ics475_types
Instance
p476
(dp477
g10
(ics475_types
FeatureVector
p478
(dp479
g13
(dp480
I1
F1.0
sI2
F36.75
sI3
F4.71
sI4
F1.0
sI5
F1.0
sI9
F1.0
sI13
F1.0
sI14
F160.0
sI20
F1.0
sI21
F1.0
sI23
F1.0
sI24
F1.0
ssbsg15
g0
(g16
g2
Ntp481
Rp482
(dp483
g15
I0
sbsba(ics475_types
Instance
p484
(dp485
g10
(ics475_types
FeatureVector
p486
(dp487
g13
(dp488
I1
F1.0
sI2
F35.42
sI3
F12.0
sI4
F1.0
sI5
F1.0
sI33
F1.0
sI8
F14.0
sI10
F1.0
sI11
F8.0
sI13
F1.0
sI15
F6590.0
sI21
F1.0
sI27
F1.0
sI30
F1.0
ssbsg15
g0
(g16
g2
Ntp489
Rp490
(dp491
g15
I1
sbsba(ics475_types
Instance
p492
(dp493
g10
(ics475_types
FeatureVector
p494
(dp495
g13
(dp496
I1
F1.0
sI2
F26.17
sI3
F2.0
sI4
F1.0
sI5
F1.0
sI9
F1.0
sI12
F1.0
sI13
F1.0
sI14
F276.0
sI15
F1.0
sI20
F1.0
sI28
F1.0
sI29
F1.0
ssbsg15
g0
(g16
g2
Ntp497
Rp498
(dp499
g15
I0
sbsba(ics475_types
Instance
p500
(dp501
g10
(ics475_types
FeatureVector
p502
(dp503
g13
(dp504
I2
F25.83
sI3
F12.835
sI4
F1.0
sI5
F1.0
sI7
F1.0
sI8
F0.5
sI9
F1.0
sI13
F1.0
sI15
F2.0
sI16
F1.0
sI20
F1.0
sI21
F1.0
sI36
F1.0
ssbsg15
g0
(g16
g2
Ntp505
Rp506
(dp507
g15
I0
sbsba(ics475_types
Instance
p508
(dp509
g10
(ics475_types
FeatureVector
p510
(dp511
g13
(dp512
I2
F22.58
sI3
F1.5
sI37
F1.0
sI7
F1.0
sI8
F0.54
sI9
F1.0
sI12
F1.0
sI13
F1.0
sI14
F120.0
sI15
F67.0
sI16
F1.0
sI17
F1.0
sI18
F1.0
sI20
F1.0
ssbsg15
g0
(g16
g2
Ntp513
Rp514
(dp515
g15
I0
sbsba(ics475_types
Instance
p516
(dp517
g10
(ics475_types
FeatureVector
p518
(dp519
g13
(dp520
I33
F1.0
sI2
F22.67
sI3
F10.5
sI4
F1.0
sI5
F1.0
sI8
F1.335
sI13
F1.0
sI14
F100.0
sI16
F1.0
sI20
F1.0
sI21
F1.0
sI27
F1.0
sI30
F1.0
ssbsg15
g0
(g16
g2
Ntp521
Rp522
(dp523
g15
I1
sbsba(ics475_types
Instance
p524
(dp525
g10
(ics475_types
FeatureVector
p526
(dp527
g13
(dp528
I32
F1.0
sI2
F34.17
sI3
F2.75
sI4
F1.0
sI5
F1.0
sI8
F2.5
sI9
F1.0
sI12
F1.0
sI13
F1.0
sI14
F232.0
sI15
F200.0
sI16
F1.0
sI20
F1.0
sI25
F1.0
ssbsg15
g0
(g16
g2
Ntp529
Rp530
(dp531
g15
I0
sbsba(ics475_types
Instance
p532
(dp533
g10
(ics475_types
FeatureVector
p534
(dp535
g13
(dp536
I1
F1.0
sI2
F28.08
sI3
F15.0
sI33
F1.0
sI41
F1.0
sI42
F1.0
sI13
F1.0
sI15
F13212.0
sI17
F1.0
sI18
F1.0
sI20
F1.0
sI21
F1.0
ssbsg15
g0
(g16
g2
Ntp537
Rp538
(dp539
g15
I1
sbsba(ics475_types
Instance
p540
(dp541
g10
(ics475_types
FeatureVector
p542
(dp543
g13
(dp544
I33
F1.0
sI2
F25.5
sI3
F0.375
sI4
F1.0
sI5
F1.0
sI7
F1.0
sI8
F0.25
sI10
F1.0
sI11
F3.0
sI13
F1.0
sI14
F260.0
sI15
F15108.0
sI16
F1.0
sI35
F1.0
sI21
F1.0
ssbsg15
g0
(g16
g2
Ntp545
Rp546
(dp547
g15
I1
sbsba(ics475_types
Instance
p548
(dp549
g10
(ics475_types
FeatureVector
p550
(dp551
g13
(dp552
I2
F17.08
sI3
F0.085
sI6
F1.0
sI7
F1.0
sI8
F0.04
sI9
F1.0
sI13
F1.0
sI14
F140.0
sI15
F722.0
sI16
F1.0
sI17
F1.0
sI18
F1.0
sI20
F1.0
sI21
F1.0
ssbsg15
g0
(g16
g2
Ntp553
Rp554
(dp555
g15
I0
sbsba(ics475_types
Instance
p556
(dp557
g10
(ics475_types
FeatureVector
p558
(dp559
g13
(dp560
I32
F1.0
sI33
F1.0
sI2
F41.33
sI4
F1.0
sI5
F1.0
sI6
F1.0
sI8
F15.0
sI13
F1.0
sI16
F1.0
sI20
F1.0
sI21
F1.0
ssbsg15
g0
(g16
g2
Ntp561
Rp562
(dp563
g15
I1
sbsba(ics475_types
Instance
p564
(dp565
g10
(ics475_types
FeatureVector
p566
(dp567
g13
(dp568
I2
F31.25
sI3
F2.835
sI4
F1.0
sI5
F1.0
sI9
F1.0
sI10
F1.0
sI11
F5.0
sI13
F1.0
sI14
F176.0
sI15
F146.0
sI16
F1.0
sI21
F1.0
sI23
F1.0
sI24
F1.0
ssbsg15
g0
(g16
g2
Ntp569
Rp570
(dp571
g15
I0
sbsba(ics475_types
Instance
p572
(dp573
g10
(ics475_types
FeatureVector
p574
(dp575
g13
(dp576
I33
F1.0
sI2
F31.42
sI3
F15.5
sI4
F1.0
sI5
F1.0
sI6
F1.0
sI7
F1.0
sI8
F0.5
sI13
F1.0
sI14
F120.0
sI16
F1.0
sI20
F1.0
sI21
F1.0
ssbsg15
g0
(g16
g2
Ntp577
Rp578
(dp579
g15
I0
sbsba(ics475_types
Instance
p580
(dp581
g10
(ics475_types
FeatureVector
p582
(dp583
g13
(dp584
I1
F1.0
sI2
F32.0
sI3
F6.0
sI4
F1.0
sI5
F1.0
sI7
F1.0
sI8
F1.25
sI9
F1.0
sI13
F1.0
sI14
F272.0
sI34
F1.0
sI20
F1.0
sI21
F1.0
ssbsg15
g0
(g16
g2
Ntp585
Rp586
(dp587
g15
I0
sbsba(ics475_types
Instance
p588
(dp589
g10
(ics475_types
FeatureVector
p590
(dp591
g13
(dp592
I33
F1.0
sI2
F22.83
sI3
F3.0
sI4
F1.0
sI5
F1.0
sI7
F1.0
sI8
F1.29
sI10
F1.0
sI11
F1.0
sI13
F1.0
sI14
F260.0
sI15
F800.0
sI16
F1.0
sI35
F1.0
sI21
F1.0
ssbsg15
g0
(g16
g2
Ntp593
Rp594
(dp595
g15
I1
sbsba(ics475_types
Instance
p596
(dp597
g10
(ics475_types
FeatureVector
p598
(dp599
g13
(dp600
I33
F1.0
sI2
F23.25
sI3
F1.0
sI4
F1.0
sI5
F1.0
sI6
F1.0
sI7
F1.0
sI8
F0.835
sI14
F300.0
sI16
F1.0
sI20
F1.0
sI21
F1.0
sI22
F1.0
ssbsg15
g0
(g16
g2
Ntp601
Rp602
(dp603
g15
I1
sbsba(ics475_types
Instance
p604
(dp605
g10
(ics475_types
FeatureVector
p606
(dp607
g13
(dp608
I1
F1.0
sI2
F31.25
sI3
F3.75
sI4
F1.0
sI5
F1.0
sI33
F1.0
sI8
F0.625
sI10
F1.0
sI11
F9.0
sI12
F1.0
sI13
F1.0
sI14
F181.0
sI36
F1.0
sI27
F1.0
ssbsg15
g0
(g16
g2
Ntp609
Rp610
(dp611
g15
I1
sbsba(ics475_types
Instance
p612
(dp613
g10
(ics475_types
FeatureVector
p614
(dp615
g13
(dp616
I33
F1.0
sI2
F37.42
sI3
F2.04
sI4
F1.0
sI5
F1.0
sI7
F1.0
sI8
F0.04
sI12
F1.0
sI13
F1.0
sI14
F400.0
sI15
F5800.0
sI16
F1.0
sI20
F1.0
sI31
F1.0
ssbsg15
g0
(g16
g2
Ntp617
Rp618
(dp619
g15
I1
sbsba(ics475_types
Instance
p620
(dp621
g10
(ics475_types
FeatureVector
p622
(dp623
g13
(dp624
I33
F1.0
sI2
F36.67
sI3
F3.25
sI4
F1.0
sI5
F1.0
sI8
F9.0
sI12
F1.0
sI13
F1.0
sI14
F102.0
sI15
F639.0
sI16
F1.0
sI20
F1.0
sI27
F1.0
sI30
F1.0
ssbsg15
g0
(g16
g2
Ntp625
Rp626
(dp627
g15
I1
sbsba(ics475_types
Instance
p628
(dp629
g10
(ics475_types
FeatureVector
p630
(dp631
g13
(dp632
I2
F34.67
sI3
F1.08
sI4
F1.0
sI5
F1.0
sI7
F1.0
sI8
F1.165
sI9
F1.0
sI14
F28.0
sI16
F1.0
sI35
F1.0
sI20
F1.0
sI21
F1.0
sI22
F1.0
ssbsg15
g0
(g16
g2
Ntp633
Rp634
(dp635
g15
I0
sbsba(ics475_types
Instance
p636
(dp637
g10
(ics475_types
FeatureVector
p638
(dp639
g13
(dp640
I1
F1.0
sI2
F33.08
sI3
F4.625
sI4
F1.0
sI5
F1.0
sI33
F1.0
sI8
F1.625
sI10
F1.0
sI11
F2.0
sI13
F1.0
sI21
F1.0
sI27
F1.0
sI30
F1.0
ssbsg15
g0
(g16
g2
Ntp641
Rp642
(dp643
g15
I1
sbsba(ics475_types
Instance
p644
(dp645
g10
(ics475_types
FeatureVector
p646
(dp647
g13
(dp648
I1
F1.0
sI2
F53.33
sI3
F0.165
sI4
F1.0
sI5
F1.0
sI9
F1.0
sI12
F1.0
sI14
F62.0
sI15
F27.0
sI20
F1.0
sI22
F1.0
sI23
F1.0
sI24
F1.0
ssbsg15
g0
(g16
g2
Ntp649
Rp650
(dp651
g15
I0
sbsba(ics475_types
Instance
p652
(dp653
g10
(ics475_types
FeatureVector
p654
(dp655
g13
(dp656
I2
F25.67
sI3
F0.29
sI6
F1.0
sI7
F1.0
sI8
F1.5
sI9
F1.0
sI12
F1.0
sI13
F1.0
sI14
F160.0
sI16
F1.0
sI17
F1.0
sI18
F1.0
sI20
F1.0
ssbsg15
g0
(g16
g2
Ntp657
Rp658
(dp659
g15
I0
sbsba(ics475_types
Instance
p660
(dp661
g10
(ics475_types
FeatureVector
p662
(dp663
g13
(dp664
I33
F1.0
sI2
F22.67
sI3
F1.585
sI7
F1.0
sI8
F3.085
sI10
F1.0
sI11
F6.0
sI13
F1.0
sI14
F80.0
sI16
F1.0
sI17
F1.0
sI18
F1.0
sI21
F1.0
sI31
F1.0
ssbsg15
g0
(g16
g2
Ntp665
Rp666
(dp667
g15
I1
sbsba(ics475_types
Instance
p668
(dp669
g10
(ics475_types
FeatureVector
p670
(dp671
g13
(dp672
I33
F1.0
sI2
F28.25
sI3
F0.875
sI4
F1.0
sI5
F1.0
sI7
F1.0
sI8
F0.96
sI10
F1.0
sI11
F3.0
sI12
F1.0
sI13
F1.0
sI14
F396.0
sI16
F1.0
sI35
F1.0
ssbsg15
g0
(g16
g2
Ntp673
Rp674
(dp675
g15
I1
sbsba(ics475_types
Instance
p676
(dp677
g10
(ics475_types
FeatureVector
p678
(dp679
g13
(dp680
I33
F1.0
sI2
F35.25
sI3
F16.5
sI6
F1.0
sI7
F1.0
sI8
F4.0
sI13
F1.0
sI14
F80.0
sI16
F1.0
sI17
F1.0
sI18
F1.0
sI20
F1.0
sI21
F1.0
ssbsg15
g0
(g16
g2
Ntp681
Rp682
(dp683
g15
I0
sbsba(ics475_types
Instance
p684
(dp685
g10
(ics475_types
FeatureVector
p686
(dp687
g13
(dp688
I2
F51.83
sI3
F2.04
sI8
F1.5
sI9
F1.0
sI13
F1.0
sI14
F120.0
sI15
F1.0
sI16
F1.0
sI17
F1.0
sI18
F1.0
sI20
F1.0
sI21
F1.0
sI23
F1.0
sI24
F1.0
ssbsg15
g0
(g16
g2
Ntp689
Rp690
(dp691
g15
I0
sbsba(ics475_types
Instance
p692
(dp693
g10
(ics475_types
FeatureVector
p694
(dp695
g13
(dp696
I1
F1.0
sI2
F22.83
sI3
F2.29
sI4
F1.0
sI5
F1.0
sI33
F1.0
sI8
F2.29
sI10
F1.0
sI11
F7.0
sI12
F1.0
sI13
F1.0
sI14
F140.0
sI15
F2384.0
sI27
F1.0
sI30
F1.0
ssbsg15
g0
(g16
g2
Ntp697
Rp698
(dp699
g15
I1
sbsba(ics475_types
Instance
p700
(dp701
g10
(ics475_types
FeatureVector
p702
(dp703
g13
(dp704
I2
F36.67
sI3
F2.0
sI4
F1.0
sI5
F1.0
sI7
F1.0
sI8
F0.25
sI9
F1.0
sI12
F1.0
sI13
F1.0
sI14
F221.0
sI16
F1.0
sI20
F1.0
sI25
F1.0
ssbsg15
g0
(g16
g2
Ntp705
Rp706
(dp707
g15
I0
sbsba(ics475_types
Instance
p708
(dp709
g10
(ics475_types
FeatureVector
p710
(dp711
g13
(dp712
I33
F1.0
sI2
F18.08
sI3
F5.5
sI4
F1.0
sI5
F1.0
sI7
F1.0
sI8
F0.5
sI13
F1.0
sI14
F80.0
sI16
F1.0
sI19
F1.0
sI20
F1.0
sI21
F1.0
ssbsg15
g0
(g16
g2
Ntp713
Rp714
(dp715
g15
I1
sbsba(ics475_types
Instance
p716
(dp717
g10
(ics475_types
FeatureVector
p718
(dp719
g13
(dp720
I33
F1.0
sI2
F54.42
sI3
F0.5
sI8
F3.96
sI13
F1.0
sI14
F180.0
sI15
F314.0
sI16
F1.0
sI17
F1.0
sI18
F1.0
sI19
F1.0
sI20
F1.0
sI21
F1.0
sI27
F1.0
ssbsg15
g0
(g16
g2
Ntp721
Rp722
(dp723
g15
I1
sbsba(ics475_types
Instance
p724
(dp725
g10
(ics475_types
FeatureVector
p726
(dp727
g13
(dp728
I2
F35.58
sI3
F0.75
sI4
F1.0
sI5
F1.0
sI7
F1.0
sI8
F1.5
sI9
F1.0
sI12
F1.0
sI13
F1.0
sI14
F231.0
sI16
F1.0
sI19
F1.0
sI20
F1.0
ssbsg15
g0
(g16
g2
Ntp729
Rp730
(dp731
g15
I0
sbsba(ics475_types
Instance
p732
(dp733
g10
(ics475_types
FeatureVector
p734
(dp735
g13
(dp736
I1
F1.0
sI2
F20.42
sI3
F0.835
sI4
F1.0
sI5
F1.0
sI7
F1.0
sI8
F1.585
sI10
F1.0
sI11
F1.0
sI13
F1.0
sI21
F1.0
sI33
F1.0
sI30
F1.0
ssbsg15
g0
(g16
g2
Ntp737
Rp738
(dp739
g15
I1
sbsba(ics475_types
Instance
p740
(dp741
g10
(ics475_types
FeatureVector
p742
(dp743
g13
(dp744
I1
F1.0
sI2
F38.75
sI3
F1.5
sI4
F1.0
sI5
F1.0
sI9
F1.0
sI13
F1.0
sI14
F76.0
sI20
F1.0
sI21
F1.0
sI23
F1.0
sI24
F1.0
ssbsg15
g0
(g16
g2
Ntp745
Rp746
(dp747
g15
I0
sbsba(ics475_types
Instance
p748
(dp749
g10
(ics475_types
FeatureVector
p750
(dp751
g13
(dp752
I1
F1.0
sI2
F25.42
sI3
F1.125
sI4
F1.0
sI5
F1.0
sI7
F1.0
sI8
F1.29
sI10
F1.0
sI11
F2.0
sI13
F1.0
sI14
F200.0
sI21
F1.0
sI33
F1.0
sI30
F1.0
ssbsg15
g0
(g16
g2
Ntp753
Rp754
(dp755
g15
I0
sbsba(ics475_types
Instance
p756
(dp757
g10
(ics475_types
FeatureVector
p758
(dp759
g13
(dp760
I32
F1.0
sI1
F1.0
sI2
F47.42
sI3
F8.0
sI4
F1.0
sI5
F1.0
sI33
F1.0
sI8
F6.5
sI41
F1.0
sI10
F1.0
sI11
F6.0
sI13
F1.0
sI14
F375.0
sI15
F51100.0
sI21
F1.0
ssbsg15
g0
(g16
g2
Ntp761
Rp762
(dp763
g15
I1
sbsba(ics475_types
Instance
p764
(dp765
g10
(ics475_types
FeatureVector
p766
(dp767
g13
(dp768
I33
F1.0
sI2
F36.33
sI3
F3.79
sI4
F1.0
sI5
F1.0
sI7
F1.0
sI8
F1.165
sI12
F1.0
sI13
F1.0
sI14
F200.0
sI16
F1.0
sI20
F1.0
sI31
F1.0
ssbsg15
g0
(g16
g2
Ntp769
Rp770
(dp771
g15
I0
sbsba(ics475_types
Instance
p772
(dp773
g10
(ics475_types
FeatureVector
p774
(dp775
g13
(dp776
I2
F20.42
sI3
F1.085
sI4
F1.0
sI5
F1.0
sI7
F1.0
sI8
F1.5
sI9
F1.0
sI13
F1.0
sI14
F108.0
sI15
F7.0
sI16
F1.0
sI20
F1.0
sI21
F1.0
sI30
F1.0
ssbsg15
g0
(g16
g2
Ntp777
Rp778
(dp779
g15
I0
sbsba(ics475_types
Instance
p780
(dp781
g10
(ics475_types
FeatureVector
p782
(dp783
g13
(dp784
I2
F17.92
sI3
F0.205
sI4
F1.0
sI5
F1.0
sI7
F1.0
sI8
F0.04
sI9
F1.0
sI13
F1.0
sI14
F280.0
sI15
F750.0
sI16
F1.0
sI20
F1.0
sI21
F1.0
sI37
F1.0
ssbsg15
g0
(g16
g2
Ntp785
Rp786
(dp787
g15
I0
sbsba(ics475_types
Instance
p788
(dp789
g10
(ics475_types
FeatureVector
p790
(dp791
g13
(dp792
I2
F35.0
sI3
F2.5
sI4
F1.0
sI5
F1.0
sI7
F1.0
sI8
F1.0
sI9
F1.0
sI12
F1.0
sI13
F1.0
sI14
F210.0
sI16
F1.0
sI20
F1.0
sI25
F1.0
ssbsg15
g0
(g16
g2
Ntp793
Rp794
(dp795
g15
I0
sbsba(ics475_types
Instance
p796
(dp797
g10
(ics475_types
FeatureVector
p798
(dp799
g13
(dp800
I33
F1.0
sI2
F34.92
sI3
F5.0
sI4
F1.0
sI5
F1.0
sI39
F1.0
sI8
F7.5
sI10
F1.0
sI11
F6.0
sI12
F1.0
sI13
F1.0
sI15
F1000.0
sI16
F1.0
sI27
F1.0
ssbsg15
g0
(g16
g2
Ntp801
Rp802
(dp803
g15
I1
sbsba(ics475_types
Instance
p804
(dp805
g10
(ics475_types
FeatureVector
p806
(dp807
g13
(dp808
I1
F1.0
sI2
F18.83
sI3
F9.54
sI4
F1.0
sI5
F1.0
sI7
F1.0
sI8
F0.085
sI13
F1.0
sI14
F100.0
sI20
F1.0
sI21
F1.0
sI33
F1.0
sI37
F1.0
ssbsg15
g0
(g16
g2
Ntp809
Rp810
(dp811
g15
I1
sbsba(ics475_types
Instance
p812
(dp813
g10
(ics475_types
FeatureVector
p814
(dp815
g13
(dp816
I2
F22.67
sI3
F0.75
sI4
F1.0
sI5
F1.0
sI7
F1.0
sI8
F1.585
sI9
F1.0
sI10
F1.0
sI11
F1.0
sI12
F1.0
sI13
F1.0
sI14
F400.0
sI15
F9.0
sI16
F1.0
sI25
F1.0
ssbsg15
g0
(g16
g2
Ntp817
Rp818
(dp819
g15
I0
sbsba(ics475_types
Instance
p820
(dp821
g10
(ics475_types
FeatureVector
p822
(dp823
g13
(dp824
I33
F1.0
sI2
F31.83
sI3
F2.5
sI4
F1.0
sI5
F1.0
sI7
F1.0
sI8
F7.5
sI12
F1.0
sI13
F1.0
sI14
F523.0
sI16
F1.0
sI20
F1.0
sI37
F1.0
ssbsg15
g0
(g16
g2
Ntp825
Rp826
(dp827
g15
I0
sbsba(ics475_types
Instance
p828
(dp829
g10
(ics475_types
FeatureVector
p830
(dp831
g13
(dp832
I33
F1.0
sI2
F23.17
sI3
F11.125
sI4
F1.0
sI5
F1.0
sI39
F1.0
sI8
F0.46
sI10
F1.0
sI11
F1.0
sI13
F1.0
sI14
F100.0
sI16
F1.0
sI21
F1.0
sI27
F1.0
ssbsg15
g0
(g16
g2
Ntp833
Rp834
(dp835
g15
I1
sbsba(ics475_types
Instance
p836
(dp837
g10
(ics475_types
FeatureVector
p838
(dp839
g13
(dp840
I33
F1.0
sI2
F41.92
sI3
F0.42
sI4
F1.0
sI5
F1.0
sI6
F1.0
sI8
F0.21
sI10
F1.0
sI11
F6.0
sI13
F1.0
sI14
F220.0
sI15
F948.0
sI16
F1.0
sI21
F1.0
sI27
F1.0
ssbsg15
g0
(g16
g2
Ntp841
Rp842
(dp843
g15
I1
sbsba(ics475_types
Instance
p844
(dp845
g10
(ics475_types
FeatureVector
p846
(dp847
g13
(dp848
I33
F1.0
sI2
F48.75
sI3
F8.5
sI4
F1.0
sI5
F1.0
sI6
F1.0
sI8
F12.5
sI10
F1.0
sI11
F9.0
sI13
F1.0
sI14
F181.0
sI15
F1655.0
sI16
F1.0
sI21
F1.0
sI27
F1.0
ssbsg15
g0
(g16
g2
Ntp849
Rp850
(dp851
g15
I1
sbsba(ics475_types
Instance
p852
(dp853
g10
(ics475_types
FeatureVector
p854
(dp855
g13
(dp856
I1
F1.0
sI2
F47.25
sI3
F0.75
sI4
F1.0
sI5
F1.0
sI33
F1.0
sI8
F2.75
sI10
F1.0
sI11
F1.0
sI13
F1.0
sI14
F333.0
sI15
F892.0
sI21
F1.0
sI27
F1.0
sI30
F1.0
ssbsg15
g0
(g16
g2
Ntp857
Rp858
(dp859
g15
I1
sbsba(ics475_types
Instance
p860
(dp861
g10
(ics475_types
FeatureVector
p862
(dp863
g13
(dp864
I33
F1.0
sI2
F18.67
sI3
F5.0
sI4
F1.0
sI5
F1.0
sI7
F1.0
sI8
F0.375
sI10
F1.0
sI11
F2.0
sI13
F1.0
sI15
F38.0
sI16
F1.0
sI21
F1.0
sI30
F1.0
ssbsg15
g0
(g16
g2
Ntp865
Rp866
(dp867
g15
I0
sbsba(ics475_types
Instance
p868
(dp869
g10
(ics475_types
FeatureVector
p870
(dp871
g13
(dp872
I1
F1.0
sI2
F29.58
sI3
F1.75
sI7
F1.0
sI8
F1.25
sI9
F1.0
sI12
F1.0
sI13
F1.0
sI14
F280.0
sI17
F1.0
sI18
F1.0
sI19
F1.0
sI20
F1.0
ssbsg15
g0
(g16
g2
Ntp873
Rp874
(dp875
g15
I0
sbsba(ics475_types
Instance
p876
(dp877
g10
(ics475_types
FeatureVector
p878
(dp879
g13
(dp880
I33
F1.0
sI2
F35.17
sI3
F25.125
sI4
F1.0
sI5
F1.0
sI39
F1.0
sI8
F1.625
sI10
F1.0
sI11
F1.0
sI12
F1.0
sI13
F1.0
sI14
F515.0
sI15
F500.0
sI16
F1.0
sI27
F1.0
ssbsg15
g0
(g16
g2
Ntp881
Rp882
(dp883
g15
I1
sbsba(ics475_types
Instance
p884
(dp885
g10
(ics475_types
FeatureVector
p886
(dp887
g13
(dp888
I2
F26.17
sI3
F12.5
sI8
F1.25
sI9
F1.0
sI12
F1.0
sI13
F1.0
sI15
F17.0
sI16
F1.0
sI17
F1.0
sI18
F1.0
sI19
F1.0
sI20
F1.0
sI27
F1.0
ssbsg15
g0
(g16
g2
Ntp889
Rp890
(dp891
g15
I0
sbsba(ics475_types
Instance
p892
(dp893
g10
(ics475_types
FeatureVector
p894
(dp895
g13
(dp896
I1
F1.0
sI2
F32.33
sI3
F0.54
sI4
F1.0
sI5
F1.0
sI7
F1.0
sI8
F0.04
sI13
F1.0
sI14
F440.0
sI15
F11177.0
sI20
F1.0
sI21
F1.0
sI36
F1.0
sI33
F1.0
ssbsg15
g0
(g16
g2
Ntp897
Rp898
(dp899
g15
I1
sbsba(ics475_types
Instance
p900
(dp901
g10
(ics475_types
FeatureVector
p902
(dp903
g13
(dp904
I33
F1.0
sI2
F40.92
sI3
F0.835
sI4
F1.0
sI5
F1.0
sI13
F1.0
sI14
F130.0
sI15
F1.0
sI16
F1.0
sI20
F1.0
sI21
F1.0
sI23
F1.0
sI24
F1.0
ssbsg15
g0
(g16
g2
Ntp905
Rp906
(dp907
g15
I0
sbsba(ics475_types
Instance
p908
(dp909
g10
(ics475_types
FeatureVector
p910
(dp911
g13
(dp912
I33
F1.0
sI2
F21.5
sI3
F11.5
sI4
F1.0
sI5
F1.0
sI7
F1.0
sI8
F0.5
sI12
F1.0
sI13
F1.0
sI14
F100.0
sI15
F68.0
sI16
F1.0
sI20
F1.0
sI25
F1.0
ssbsg15
g0
(g16
g2
Ntp913
Rp914
(dp915
g15
I0
sbsba(ics475_types
Instance
p916
(dp917
g10
(ics475_types
FeatureVector
p918
(dp919
g13
(dp920
I32
F1.0
sI33
F1.0
sI2
F34.5
sI3
F4.04
sI8
F8.5
sI10
F1.0
sI11
F7.0
sI12
F1.0
sI13
F1.0
sI14
F195.0
sI16
F1.0
sI17
F1.0
sI18
F1.0
sI25
F1.0
ssbsg15
g0
(g16
g2
Ntp921
Rp922
(dp923
g15
I1
sbsba(ics475_types
Instance
p924
(dp925
g10
(ics475_types
FeatureVector
p926
(dp927
g13
(dp928
I1
F1.0
sI2
F60.92
sI3
F5.0
sI4
F1.0
sI5
F1.0
sI7
F1.0
sI8
F4.0
sI10
F1.0
sI11
F4.0
sI13
F1.0
sI15
F99.0
sI21
F1.0
sI33
F1.0
sI37
F1.0
ssbsg15
g0
(g16
g2
Ntp929
Rp930
(dp931
g15
I1
sbsba(ics475_types
Instance
p932
(dp933
g10
(ics475_types
FeatureVector
p934
(dp935
g13
(dp936
I33
F1.0
sI2
F67.75
sI3
F5.5
sI4
F1.0
sI5
F1.0
sI8
F13.0
sI41
F1.0
sI10
F1.0
sI11
F1.0
sI12
F1.0
sI13
F1.0
sI16
F1.0
sI42
F1.0
ssbsg15
g0
(g16
g2
Ntp937
Rp938
(dp939
g15
I1
sbsba(ics475_types
Instance
p940
(dp941
g10
(ics475_types
FeatureVector
p942
(dp943
g13
(dp944
I1
F1.0
sI2
F41.17
sI3
F6.5
sI4
F1.0
sI5
F1.0
sI7
F1.0
sI8
F0.5
sI10
F1.0
sI11
F3.0
sI12
F1.0
sI13
F1.0
sI14
F145.0
sI33
F1.0
sI30
F1.0
ssbsg15
g0
(g16
g2
Ntp945
Rp946
(dp947
g15
I1
sbsba(ics475_types
Instance
p948
(dp949
g10
(ics475_types
FeatureVector
p950
(dp951
g13
(dp952
I33
F1.0
sI2
F39.92
sI3
F0.54
sI37
F1.0
sI7
F1.0
sI8
F0.5
sI10
F1.0
sI11
F3.0
sI13
F1.0
sI14
F200.0
sI15
F1000.0
sI16
F1.0
sI17
F1.0
sI18
F1.0
sI21
F1.0
ssbsg15
g0
(g16
g2
Ntp953
Rp954
(dp955
g15
I1
sbsba(ics475_types
Instance
p956
(dp957
g10
(ics475_types
FeatureVector
p958
(dp959
g13
(dp960
I33
F1.0
sI2
F48.25
sI3
F25.085
sI4
F1.0
sI5
F1.0
sI7
F1.0
sI8
F1.75
sI10
F1.0
sI11
F3.0
sI13
F1.0
sI14
F120.0
sI15
F14.0
sI16
F1.0
sI21
F1.0
sI31
F1.0
ssbsg15
g0
(g16
g2
Ntp961
Rp962
(dp963
g15
I1
sbsba(ics475_types
Instance
p964
(dp965
g10
(ics475_types
FeatureVector
p966
(dp967
g13
(dp968
I33
F1.0
sI2
F27.0
sI3
F1.5
sI7
F1.0
sI8
F0.375
sI12
F1.0
sI13
F1.0
sI14
F260.0
sI15
F1065.0
sI16
F1.0
sI17
F1.0
sI18
F1.0
sI20
F1.0
sI31
F1.0
ssbsg15
g0
(g16
g2
Ntp969
Rp970
(dp971
g15
I1
sbsba(ics475_types
Instance
p972
(dp973
g10
(ics475_types
FeatureVector
p974
(dp975
g13
(dp976
I2
F31.08
sI3
F1.5
sI7
F1.0
sI8
F0.04
sI9
F1.0
sI14
F160.0
sI16
F1.0
sI17
F1.0
sI18
F1.0
sI20
F1.0
sI21
F1.0
sI22
F1.0
sI31
F1.0
ssbsg15
g0
(g16
g2
Ntp977
Rp978
(dp979
g15
I0
sbsba(ics475_types
Instance
p980
(dp981
g10
(ics475_types
FeatureVector
p982
(dp983
g13
(dp984
I1
F1.0
sI2
F22.58
sI3
F10.75
sI4
F1.0
sI5
F1.0
sI7
F1.0
sI8
F0.415
sI10
F1.0
sI11
F5.0
sI12
F1.0
sI13
F1.0
sI15
F560.0
sI33
F1.0
sI30
F1.0
ssbsg15
g0
(g16
g2
Ntp985
Rp986
(dp987
g15
I1
sbsba(ics475_types
Instance
p988
(dp989
g10
(ics475_types
FeatureVector
p990
(dp991
g13
(dp992
I2
F17.08
sI3
F3.29
sI4
F1.0
sI5
F1.0
sI7
F1.0
sI8
F0.335
sI9
F1.0
sI12
F1.0
sI13
F1.0
sI14
F140.0
sI15
F2.0
sI16
F1.0
sI20
F1.0
sI25
F1.0
ssbsg15
g0
(g16
g2
Ntp993
Rp994
(dp995
g15
I0
sbsba(ics475_types
Instance
p996
(dp997
g10
(ics475_types
FeatureVector
p998
(dp999
g13
(dp1000
I1
F1.0
sI2
F69.5
sI3
F6.0
sI4
F1.0
sI5
F1.0
sI9
F1.0
sI20
F1.0
sI21
F1.0
sI22
F1.0
sI23
F1.0
sI24
F1.0
ssbsg15
g0
(g16
g2
Ntp1001
Rp1002
(dp1003
g15
I0
sbsba(ics475_types
Instance
p1004
(dp1005
g10
(ics475_types
FeatureVector
p1006
(dp1007
g13
(dp1008
I1
F1.0
sI2
F47.42
sI3
F3.0
sI4
F1.0
sI5
F1.0
sI7
F1.0
sI8
F13.875
sI10
F1.0
sI11
F2.0
sI12
F1.0
sI13
F1.0
sI14
F519.0
sI15
F1704.0
sI39
F1.0
sI33
F1.0
ssbsg15
g0
(g16
g2
Ntp1009
Rp1010
(dp1011
g15
I1
sbsba(ics475_types
Instance
p1012
(dp1013
g10
(ics475_types
FeatureVector
p1014
(dp1015
g13
(dp1016
I2
F22.17
sI3
F0.585
sI9
F1.0
sI13
F1.0
sI14
F100.0
sI16
F1.0
sI17
F1.0
sI18
F1.0
sI20
F1.0
sI21
F1.0
sI23
F1.0
sI24
F1.0
ssbsg15
g0
(g16
g2
Ntp1017
Rp1018
(dp1019
g15
I0
sbsba(ics475_types
Instance
p1020
(dp1021
g10
(ics475_types
FeatureVector
p1022
(dp1023
g13
(dp1024
I32
F1.0
sI2
F26.67
sI3
F14.585
sI4
F1.0
sI5
F1.0
sI9
F1.0
sI12
F1.0
sI13
F1.0
sI14
F178.0
sI16
F1.0
sI20
F1.0
sI25
F1.0
ssbsg15
g0
(g16
g2
Ntp1025
Rp1026
(dp1027
g15
I0
sbsba(ics475_types
Instance
p1028
(dp1029
g10
(ics475_types
FeatureVector
p1030
(dp1031
g13
(dp1032
I33
F1.0
sI2
F25.33
sI3
F0.58
sI4
F1.0
sI5
F1.0
sI6
F1.0
sI7
F1.0
sI8
F0.29
sI10
F1.0
sI11
F7.0
sI12
F1.0
sI13
F1.0
sI14
F96.0
sI15
F5124.0
sI16
F1.0
ssbsg15
g0
(g16
g2
Ntp1033
Rp1034
(dp1035
g15
I1
sbsba(ics475_types
Instance
p1036
(dp1037
g10
(ics475_types
FeatureVector
p1038
(dp1039
g13
(dp1040
I33
F1.0
sI2
F18.5
sI3
F2.0
sI4
F1.0
sI5
F1.0
sI7
F1.0
sI8
F1.5
sI10
F1.0
sI11
F2.0
sI13
F1.0
sI14
F120.0
sI15
F300.0
sI16
F1.0
sI21
F1.0
sI25
F1.0
ssbsg15
g0
(g16
g2
Ntp1041
Rp1042
(dp1043
g15
I1
sbsba(ics475_types
Instance
p1044
(dp1045
g10
(ics475_types
FeatureVector
p1046
(dp1047
g13
(dp1048
I2
F17.42
sI3
F6.5
sI4
F1.0
sI5
F1.0
sI7
F1.0
sI8
F0.125
sI9
F1.0
sI13
F1.0
sI14
F60.0
sI15
F100.0
sI16
F1.0
sI20
F1.0
sI21
F1.0
sI25
F1.0
ssbsg15
g0
(g16
g2
Ntp1049
Rp1050
(dp1051
g15
I0
sbsba(ics475_types
Instance
p1052
(dp1053
g10
(ics475_types
FeatureVector
p1054
(dp1055
g13
(dp1056
I1
F1.0
sI2
F20.83
sI3
F8.5
sI4
F1.0
sI5
F1.0
sI6
F1.0
sI7
F1.0
sI8
F0.165
sI9
F1.0
sI13
F1.0
sI15
F351.0
sI20
F1.0
sI21
F1.0
ssbsg15
g0
(g16
g2
Ntp1057
Rp1058
(dp1059
g15
I0
sbsba(ics475_types
Instance
p1060
(dp1061
g10
(ics475_types
FeatureVector
p1062
(dp1063
g13
(dp1064
I1
F1.0
sI2
F27.42
sI3
F14.5
sI4
F1.0
sI5
F1.0
sI33
F1.0
sI8
F3.085
sI10
F1.0
sI11
F1.0
sI13
F1.0
sI14
F120.0
sI15
F11.0
sI21
F1.0
sI39
F1.0
sI27
F1.0
ssbsg15
g0
(g16
g2
Ntp1065
Rp1066
(dp1067
g15
I1
sbsba(ics475_types
Instance
p1068
(dp1069
g10
(ics475_types
FeatureVector
p1070
(dp1071
g13
(dp1072
I1
F1.0
sI2
F17.83
sI3
F11.0
sI4
F1.0
sI5
F1.0
sI33
F1.0
sI8
F1.0
sI10
F1.0
sI11
F11.0
sI13
F1.0
sI15
F3000.0
sI21
F1.0
sI39
F1.0
sI27
F1.0
ssbsg15
g0
(g16
g2
Ntp1073
Rp1074
(dp1075
g15
I1
sbsba(ics475_types
Instance
p1076
(dp1077
g10
(ics475_types
FeatureVector
p1078
(dp1079
g13
(dp1080
I1
F1.0
sI2
F24.58
sI3
F0.67
sI4
F1.0
sI5
F1.0
sI33
F1.0
sI8
F1.75
sI13
F1.0
sI14
F400.0
sI20
F1.0
sI21
F1.0
sI27
F1.0
sI37
F1.0
ssbsg15
g0
(g16
g2
Ntp1081
Rp1082
(dp1083
g15
I0
sbsba(ics475_types
Instance
p1084
(dp1085
g10
(ics475_types
FeatureVector
p1086
(dp1087
g13
(dp1088
I33
F1.0
sI2
F29.58
sI3
F4.5
sI4
F1.0
sI5
F1.0
sI7
F1.0
sI8
F7.5
sI10
F1.0
sI11
F2.0
sI12
F1.0
sI13
F1.0
sI14
F330.0
sI16
F1.0
sI31
F1.0
ssbsg15
g0
(g16
g2
Ntp1089
Rp1090
(dp1091
g15
I1
sbsba(ics475_types
Instance
p1092
(dp1093
g10
(ics475_types
FeatureVector
p1094
(dp1095
g13
(dp1096
I1
F1.0
sI2
F24.92
sI3
F1.25
sI4
F1.0
sI5
F1.0
sI33
F1.0
sI13
F1.0
sI14
F80.0
sI20
F1.0
sI21
F1.0
sI23
F1.0
sI24
F1.0
ssbsg15
g0
(g16
g2
Ntp1097
Rp1098
(dp1099
g15
I0
sbsba(ics475_types
Instance
p1100
(dp1101
g10
(ics475_types
FeatureVector
p1102
(dp1103
g13
(dp1104
I1
F1.0
sI2
F57.08
sI3
F19.5
sI4
F1.0
sI5
F1.0
sI6
F1.0
sI7
F1.0
sI8
F5.5
sI10
F1.0
sI11
F7.0
sI13
F1.0
sI15
F3000.0
sI21
F1.0
sI33
F1.0
ssbsg15
g0
(g16
g2
Ntp1105
Rp1106
(dp1107
g15
I1
sbsba(ics475_types
Instance
p1108
(dp1109
g10
(ics475_types
FeatureVector
p1110
(dp1111
g13
(dp1112
I33
F1.0
sI2
F34.17
sI3
F1.54
sI4
F1.0
sI5
F1.0
sI7
F1.0
sI8
F1.54
sI10
F1.0
sI11
F1.0
sI12
F1.0
sI13
F1.0
sI14
F520.0
sI15
F50000.0
sI16
F1.0
sI36
F1.0
ssbsg15
g0
(g16
g2
Ntp1113
Rp1114
(dp1115
g15
I1
sbsba(ics475_types
Instance
p1116
(dp1117
g10
(ics475_types
FeatureVector
p1118
(dp1119
g13
(dp1120
I1
F1.0
sI2
F24.5
sI3
F1.04
sI33
F1.0
sI8
F0.5
sI10
F1.0
sI11
F3.0
sI13
F1.0
sI14
F180.0
sI15
F147.0
sI17
F1.0
sI18
F1.0
sI21
F1.0
sI23
F1.0
sI24
F1.0
ssbsg15
g0
(g16
g2
Ntp1121
Rp1122
(dp1123
g15
I0
sbsba(ics475_types
Instance
p1124
(dp1125
g10
(ics475_types
FeatureVector
p1126
(dp1127
g13
(dp1128
I2
F32.08
sI3
F4.0
sI36
F1.0
sI7
F1.0
sI8
F1.5
sI9
F1.0
sI12
F1.0
sI13
F1.0
sI14
F120.0
sI16
F1.0
sI17
F1.0
sI18
F1.0
sI20
F1.0
ssbsg15
g0
(g16
g2
Ntp1129
Rp1130
(dp1131
g15
I0
sbsba(ics475_types
Instance
p1132
(dp1133
g10
(ics475_types
FeatureVector
p1134
(dp1135
g13
(dp1136
I33
F1.0
sI2
F28.0
sI3
F2.0
sI4
F1.0
sI5
F1.0
sI8
F4.165
sI10
F1.0
sI11
F2.0
sI12
F1.0
sI13
F1.0
sI14
F181.0
sI16
F1.0
sI19
F1.0
sI27
F1.0
ssbsg15
g0
(g16
g2
Ntp1137
Rp1138
(dp1139
g15
I1
sbsba(ics475_types
Instance
p1140
(dp1141
g10
(ics475_types
FeatureVector
p1142
(dp1143
g13
(dp1144
I33
F1.0
sI2
F32.67
sI3
F9.0
sI8
F5.25
sI12
F1.0
sI13
F1.0
sI14
F154.0
sI16
F1.0
sI17
F1.0
sI18
F1.0
sI20
F1.0
sI27
F1.0
sI31
F1.0
ssbsg15
g0
(g16
g2
Ntp1145
Rp1146
(dp1147
g15
I1
sbsba(ics475_types
Instance
p1148
(dp1149
g10
(ics475_types
FeatureVector
p1150
(dp1151
g13
(dp1152
I32
F1.0
sI33
F1.0
sI2
F37.5
sI3
F1.75
sI6
F1.0
sI8
F0.25
sI12
F1.0
sI13
F1.0
sI14
F164.0
sI15
F400.0
sI16
F1.0
sI17
F1.0
sI18
F1.0
sI20
F1.0
ssbsg15
g0
(g16
g2
Ntp1153
Rp1154
(dp1155
g15
I0
sbsba(ics475_types
Instance
p1156
(dp1157
g10
(ics475_types
FeatureVector
p1158
(dp1159
g13
(dp1160
I33
F1.0
sI2
F33.58
sI3
F2.75
sI4
F1.0
sI5
F1.0
sI7
F1.0
sI8
F4.25
sI10
F1.0
sI11
F6.0
sI13
F1.0
sI14
F204.0
sI16
F1.0
sI35
F1.0
sI21
F1.0
ssbsg15
g0
(g16
g2
Ntp1161
Rp1162
(dp1163
g15
I1
sbsba(ics475_types
Instance
p1164
(dp1165
g10
(ics475_types
FeatureVector
p1166
(dp1167
g13
(dp1168
I1
F1.0
sI2
F25.0
sI3
F0.875
sI4
F1.0
sI5
F1.0
sI33
F1.0
sI8
F1.04
sI39
F1.0
sI12
F1.0
sI13
F1.0
sI14
F160.0
sI15
F5860.0
sI20
F1.0
sI27
F1.0
ssbsg15
g0
(g16
g2
Ntp1169
Rp1170
(dp1171
g15
I1
sbsba(ics475_types
Instance
p1172
(dp1173
g10
(ics475_types
FeatureVector
p1174
(dp1175
g13
(dp1176
I1
F1.0
sI2
F23.58
sI3
F0.83
sI4
F1.0
sI5
F1.0
sI7
F1.0
sI8
F0.415
sI9
F1.0
sI10
F1.0
sI11
F1.0
sI12
F1.0
sI13
F1.0
sI14
F200.0
sI15
F11.0
sI30
F1.0
ssbsg15
g0
(g16
g2
Ntp1177
Rp1178
(dp1179
g15
I0
sbsba(ics475_types
Instance
p1180
(dp1181
g10
(ics475_types
FeatureVector
p1182
(dp1183
g13
(dp1184
I33
F1.0
sI2
F27.25
sI3
F1.665
sI4
F1.0
sI5
F1.0
sI8
F5.085
sI10
F1.0
sI11
F9.0
sI13
F1.0
sI14
F399.0
sI15
F827.0
sI16
F1.0
sI21
F1.0
sI36
F1.0
sI27
F1.0
ssbsg15
g0
(g16
g2
Ntp1185
Rp1186
(dp1187
g15
I1
sbsba(ics475_types
Instance
p1188
(dp1189
g10
(ics475_types
FeatureVector
p1190
(dp1191
g13
(dp1192
I33
F1.0
sI2
F23.33
sI3
F11.625
sI7
F1.0
sI8
F0.835
sI12
F1.0
sI13
F1.0
sI14
F160.0
sI15
F300.0
sI16
F1.0
sI17
F1.0
sI18
F1.0
sI20
F1.0
sI31
F1.0
ssbsg15
g0
(g16
g2
Ntp1193
Rp1194
(dp1195
g15
I1
sbsba(ics475_types
Instance
p1196
(dp1197
g10
(ics475_types
FeatureVector
p1198
(dp1199
g13
(dp1200
I33
F1.0
sI2
F27.67
sI3
F13.75
sI4
F1.0
sI5
F1.0
sI7
F1.0
sI8
F5.75
sI12
F1.0
sI13
F1.0
sI14
F487.0
sI15
F500.0
sI16
F1.0
sI20
F1.0
sI31
F1.0
ssbsg15
g0
(g16
g2
Ntp1201
Rp1202
(dp1203
g15
I1
sbsba(ics475_types
Instance
p1204
(dp1205
g10
(ics475_types
FeatureVector
p1206
(dp1207
g13
(dp1208
I33
F1.0
sI2
F34.92
sI3
F2.5
sI4
F1.0
sI5
F1.0
sI7
F1.0
sI12
F1.0
sI13
F1.0
sI14
F239.0
sI15
F200.0
sI16
F1.0
sI20
F1.0
sI31
F1.0
ssbsg15
g0
(g16
g2
Ntp1209
Rp1210
(dp1211
g15
I1
sbsba(ics475_types
Instance
p1212
(dp1213
g10
(ics475_types
FeatureVector
p1214
(dp1215
g13
(dp1216
I2
F18.83
sI3
F0.415
sI6
F1.0
sI7
F1.0
sI8
F0.165
sI9
F1.0
sI10
F1.0
sI11
F1.0
sI13
F1.0
sI14
F200.0
sI15
F1.0
sI16
F1.0
sI17
F1.0
sI18
F1.0
sI21
F1.0
ssbsg15
g0
(g16
g2
Ntp1217
Rp1218
(dp1219
g15
I0
sbsba(ics475_types
Instance
p1220
(dp1221
g10
(ics475_types
FeatureVector
p1222
(dp1223
g13
(dp1224
I1
F1.0
sI2
F20.67
sI3
F3.0
sI4
F1.0
sI5
F1.0
sI7
F1.0
sI8
F0.165
sI10
F1.0
sI11
F3.0
sI13
F1.0
sI14
F100.0
sI15
F6.0
sI21
F1.0
sI33
F1.0
sI30
F1.0
ssbsg15
g0
(g16
g2
Ntp1225
Rp1226
(dp1227
g15
I1
sbsba(ics475_types
Instance
p1228
(dp1229
g10
(ics475_types
FeatureVector
p1230
(dp1231
g13
(dp1232
I33
F1.0
sI2
F39.92
sI3
F6.21
sI4
F1.0
sI5
F1.0
sI7
F1.0
sI8
F0.04
sI10
F1.0
sI11
F1.0
sI13
F1.0
sI14
F200.0
sI15
F300.0
sI16
F1.0
sI21
F1.0
sI30
F1.0
ssbsg15
g0
(g16
g2
Ntp1233
Rp1234
(dp1235
g15
I1
sbsba(ics475_types
Instance
p1236
(dp1237
g10
(ics475_types
FeatureVector
p1238
(dp1239
g13
(dp1240
I32
F1.0
sI2
F33.75
sI3
F2.75
sI4
F1.0
sI5
F1.0
sI9
F1.0
sI13
F1.0
sI14
F180.0
sI16
F1.0
sI20
F1.0
sI21
F1.0
sI25
F1.0
ssbsg15
g0
(g16
g2
Ntp1241
Rp1242
(dp1243
g15
I0
sbsba(ics475_types
Instance
p1244
(dp1245
g10
(ics475_types
FeatureVector
p1246
(dp1247
g13
(dp1248
I2
F16.0
sI3
F3.125
sI4
F1.0
sI5
F1.0
sI7
F1.0
sI8
F0.085
sI9
F1.0
sI10
F1.0
sI11
F1.0
sI13
F1.0
sI15
F6.0
sI16
F1.0
sI21
F1.0
sI31
F1.0
ssbsg15
g0
(g16
g2
Ntp1249
Rp1250
(dp1251
g15
I0
sbsba(ics475_types
Instance
p1252
(dp1253
g10
(ics475_types
FeatureVector
p1254
(dp1255
g13
(dp1256
I2
F23.92
sI3
F0.665
sI4
F1.0
sI5
F1.0
sI6
F1.0
sI7
F1.0
sI8
F0.165
sI9
F1.0
sI13
F1.0
sI14
F100.0
sI16
F1.0
sI20
F1.0
sI21
F1.0
ssbsg15
g0
(g16
g2
Ntp1257
Rp1258
(dp1259
g15
I1
sbsba(ics475_types
Instance
p1260
(dp1261
g10
(ics475_types
FeatureVector
p1262
(dp1263
g13
(dp1264
I1
F1.0
sI2
F58.33
sI3
F10.0
sI4
F1.0
sI5
F1.0
sI7
F1.0
sI8
F4.0
sI10
F1.0
sI11
F14.0
sI13
F1.0
sI15
F1602.0
sI21
F1.0
sI33
F1.0
sI30
F1.0
ssbsg15
g0
(g16
g2
Ntp1265
Rp1266
(dp1267
g15
I1
sbsba(ics475_types
Instance
p1268
(dp1269
g10
(ics475_types
FeatureVector
p1270
(dp1271
g13
(dp1272
I33
F1.0
sI2
F28.75
sI3
F1.5
sI6
F1.0
sI7
F1.0
sI8
F1.5
sI12
F1.0
sI13
F1.0
sI15
F225.0
sI16
F1.0
sI17
F1.0
sI18
F1.0
sI20
F1.0
ssbsg15
g0
(g16
g2
Ntp1273
Rp1274
(dp1275
g15
I0
sbsba(ics475_types
Instance
p1276
(dp1277
g10
(ics475_types
FeatureVector
p1278
(dp1279
g13
(dp1280
I33
F1.0
sI2
F40.92
sI3
F2.25
sI39
F1.0
sI8
F10.0
sI12
F1.0
sI13
F1.0
sI14
F176.0
sI16
F1.0
sI17
F1.0
sI18
F1.0
sI20
F1.0
sI27
F1.0
ssbsg15
g0
(g16
g2
Ntp1281
Rp1282
(dp1283
g15
I0
sbsba(ics475_types
Instance
p1284
(dp1285
g10
(ics475_types
FeatureVector
p1286
(dp1287
g13
(dp1288
I1
F1.0
sI2
F22.67
sI3
F0.335
sI4
F1.0
sI5
F1.0
sI7
F1.0
sI8
F0.75
sI9
F1.0
sI14
F160.0
sI20
F1.0
sI21
F1.0
sI22
F1.0
sI30
F1.0
ssbsg15
g0
(g16
g2
Ntp1289
Rp1290
(dp1291
g15
I0
sbsba(ics475_types
Instance
p1292
(dp1293
g10
(ics475_types
FeatureVector
p1294
(dp1295
g13
(dp1296
I33
F1.0
sI2
F43.0
sI3
F0.29
sI36
F1.0
sI8
F1.75
sI10
F1.0
sI11
F8.0
sI13
F1.0
sI14
F100.0
sI15
F375.0
sI16
F1.0
sI17
F1.0
sI18
F1.0
sI21
F1.0
sI27
F1.0
ssbsg15
g0
(g16
g2
Ntp1297
Rp1298
(dp1299
g15
I1
sbsba(ics475_types
Instance
p1300
(dp1301
g10
(ics475_types
FeatureVector
p1302
(dp1303
g13
(dp1304
I33
F1.0
sI2
F22.75
sI3
F11.0
sI4
F1.0
sI5
F1.0
sI7
F1.0
sI8
F2.5
sI10
F1.0
sI11
F7.0
sI12
F1.0
sI13
F1.0
sI14
F100.0
sI15
F809.0
sI16
F1.0
sI30
F1.0
ssbsg15
g0
(g16
g2
Ntp1305
Rp1306
(dp1307
g15
I1
sbsba(ics475_types
Instance
p1308
(dp1309
g10
(ics475_types
FeatureVector
p1310
(dp1311
g13
(dp1312
I1
F1.0
sI2
F18.42
sI3
F9.25
sI4
F1.0
sI5
F1.0
sI7
F1.0
sI8
F1.21
sI10
F1.0
sI11
F4.0
sI13
F1.0
sI14
F60.0
sI15
F540.0
sI21
F1.0
sI33
F1.0
sI30
F1.0
ssbsg15
g0
(g16
g2
Ntp1313
Rp1314
(dp1315
g15
I1
sbsba(ics475_types
Instance
p1316
(dp1317
g10
(ics475_types
FeatureVector
p1318
(dp1319
g13
(dp1320
I1
F1.0
sI2
F15.83
sI3
F0.585
sI4
F1.0
sI5
F1.0
sI6
F1.0
sI33
F1.0
sI8
F1.5
sI10
F1.0
sI11
F2.0
sI13
F1.0
sI14
F100.0
sI21
F1.0
sI27
F1.0
ssbsg15
g0
(g16
g2
Ntp1321
Rp1322
(dp1323
g15
I1
sbsba(ics475_types
Instance
p1324
(dp1325
g10
(ics475_types
FeatureVector
p1326
(dp1327
g13
(dp1328
I33
F1.0
sI2
F54.33
sI3
F6.75
sI4
F1.0
sI5
F1.0
sI6
F1.0
sI8
F2.625
sI10
F1.0
sI11
F11.0
sI12
F1.0
sI13
F1.0
sI15
F284.0
sI16
F1.0
sI27
F1.0
ssbsg15
g0
(g16
g2
Ntp1329
Rp1330
(dp1331
g15
I1
sbsba(ics475_types
Instance
p1332
(dp1333
g10
(ics475_types
FeatureVector
p1334
(dp1335
g13
(dp1336
I33
F1.0
sI2
F22.58
sI3
F10.04
sI4
F1.0
sI5
F1.0
sI7
F1.0
sI8
F0.04
sI10
F1.0
sI11
F9.0
sI13
F1.0
sI14
F60.0
sI15
F396.0
sI16
F1.0
sI21
F1.0
sI39
F1.0
ssbsg15
g0
(g16
g2
Ntp1337
Rp1338
(dp1339
g15
I1
sbsba(ics475_types
Instance
p1340
(dp1341
g10
(ics475_types
FeatureVector
p1342
(dp1343
g13
(dp1344
I1
F1.0
sI2
F52.83
sI3
F15.0
sI4
F1.0
sI5
F1.0
sI6
F1.0
sI7
F1.0
sI8
F5.5
sI10
F1.0
sI11
F14.0
sI13
F1.0
sI15
F2200.0
sI21
F1.0
sI33
F1.0
ssbsg15
g0
(g16
g2
Ntp1345
Rp1346
(dp1347
g15
I1
sbsba(ics475_types
Instance
p1348
(dp1349
g10
(ics475_types
FeatureVector
p1350
(dp1351
g13
(dp1352
I1
F1.0
sI2
F20.75
sI3
F10.335
sI4
F1.0
sI5
F1.0
sI33
F1.0
sI8
F0.335
sI10
F1.0
sI11
F1.0
sI12
F1.0
sI13
F1.0
sI14
F80.0
sI15
F50.0
sI36
F1.0
sI27
F1.0
ssbsg15
g0
(g16
g2
Ntp1353
Rp1354
(dp1355
g15
I1
sbsba(ics475_types
Instance
p1356
(dp1357
g10
(ics475_types
FeatureVector
p1358
(dp1359
g13
(dp1360
I1
F1.0
sI2
F26.08
sI3
F8.665
sI4
F1.0
sI5
F1.0
sI7
F1.0
sI8
F1.415
sI13
F1.0
sI14
F160.0
sI15
F150.0
sI20
F1.0
sI21
F1.0
sI33
F1.0
sI37
F1.0
ssbsg15
g0
(g16
g2
Ntp1361
Rp1362
(dp1363
g15
I1
sbsba(ics475_types
Instance
p1364
(dp1365
g10
(ics475_types
FeatureVector
p1366
(dp1367
g13
(dp1368
I1
F1.0
sI2
F17.33
sI3
F9.5
sI4
F1.0
sI5
F1.0
sI7
F1.0
sI8
F1.75
sI9
F1.0
sI10
F1.0
sI11
F10.0
sI12
F1.0
sI13
F1.0
sI15
F10.0
sI37
F1.0
ssbsg15
g0
(g16
g2
Ntp1369
Rp1370
(dp1371
g15
I0
sbsba(ics475_types
Instance
p1372
(dp1373
g10
(ics475_types
FeatureVector
p1374
(dp1375
g13
(dp1376
I1
F1.0
sI2
F24.5
sI3
F2.415
sI6
F1.0
sI7
F1.0
sI9
F1.0
sI13
F1.0
sI14
F120.0
sI17
F1.0
sI18
F1.0
sI20
F1.0
sI21
F1.0
ssbsg15
g0
(g16
g2
Ntp1377
Rp1378
(dp1379
g15
I0
sbsba(ics475_types
Instance
p1380
(dp1381
g10
(ics475_types
FeatureVector
p1382
(dp1383
g13
(dp1384
I1
F1.0
sI2
F27.25
sI3
F0.29
sI4
F1.0
sI5
F1.0
sI8
F0.125
sI9
F1.0
sI10
F1.0
sI11
F1.0
sI12
F1.0
sI13
F1.0
sI14
F272.0
sI15
F108.0
sI35
F1.0
sI27
F1.0
ssbsg15
g0
(g16
g2
Ntp1385
Rp1386
(dp1387
g15
I0
sbsba(ics475_types
Instance
p1388
(dp1389
g10
(ics475_types
FeatureVector
p1390
(dp1391
g13
(dp1392
I2
F28.58
sI3
F3.625
sI4
F1.0
sI5
F1.0
sI7
F1.0
sI8
F0.25
sI9
F1.0
sI12
F1.0
sI13
F1.0
sI14
F100.0
sI16
F1.0
sI20
F1.0
sI37
F1.0
ssbsg15
g0
(g16
g2
Ntp1393
Rp1394
(dp1395
g15
I0
sbsba(ics475_types
Instance
p1396
(dp1397
g10
(ics475_types
FeatureVector
p1398
(dp1399
g13
(dp1400
I32
F1.0
sI1
F1.0
sI2
F41.33
sI3
F1.0
sI4
F1.0
sI5
F1.0
sI33
F1.0
sI8
F2.25
sI12
F1.0
sI13
F1.0
sI15
F300.0
sI20
F1.0
sI25
F1.0
ssbsg15
g0
(g16
g2
Ntp1401
Rp1402
(dp1403
g15
I1
sbsba(ics475_types
Instance
p1404
(dp1405
g10
(ics475_types
FeatureVector
p1406
(dp1407
g13
(dp1408
I32
F1.0
sI2
F19.33
sI3
F10.915
sI4
F1.0
sI5
F1.0
sI6
F1.0
sI8
F0.585
sI9
F1.0
sI10
F1.0
sI11
F2.0
sI12
F1.0
sI13
F1.0
sI14
F200.0
sI15
F7.0
sI16
F1.0
ssbsg15
g0
(g16
g2
Ntp1409
Rp1410
(dp1411
g15
I0
sbsba(ics475_types
Instance
p1412
(dp1413
g10
(ics475_types
FeatureVector
p1414
(dp1415
g13
(dp1416
I1
F1.0
sI2
F24.83
sI3
F4.5
sI4
F1.0
sI5
F1.0
sI7
F1.0
sI8
F1.0
sI9
F1.0
sI12
F1.0
sI13
F1.0
sI14
F360.0
sI15
F6.0
sI20
F1.0
sI31
F1.0
ssbsg15
g0
(g16
g2
Ntp1417
Rp1418
(dp1419
g15
I0
sbsba(ics475_types
Instance
p1420
(dp1421
g10
(ics475_types
FeatureVector
p1422
(dp1423
g13
(dp1424
I32
F1.0
sI2
F26.92
sI3
F2.25
sI4
F1.0
sI5
F1.0
sI8
F0.5
sI9
F1.0
sI12
F1.0
sI13
F1.0
sI14
F640.0
sI15
F4000.0
sI16
F1.0
sI20
F1.0
sI25
F1.0
ssbsg15
g0
(g16
g2
Ntp1425
Rp1426
(dp1427
g15
I0
sbsba(ics475_types
Instance
p1428
(dp1429
g10
(ics475_types
FeatureVector
p1430
(dp1431
g13
(dp1432
I33
F1.0
sI2
F27.83
sI3
F4.0
sI8
F5.75
sI10
F1.0
sI11
F2.0
sI12
F1.0
sI13
F1.0
sI14
F75.0
sI16
F1.0
sI17
F1.0
sI18
F1.0
sI25
F1.0
sI27
F1.0
ssbsg15
g0
(g16
g2
Ntp1433
Rp1434
(dp1435
g15
I0
sbsba(ics475_types
Instance
p1436
(dp1437
g10
(ics475_types
FeatureVector
p1438
(dp1439
g13
(dp1440
I2
F29.42
sI3
F1.25
sI4
F1.0
sI5
F1.0
sI7
F1.0
sI8
F1.75
sI9
F1.0
sI13
F1.0
sI14
F200.0
sI16
F1.0
sI20
F1.0
sI21
F1.0
sI31
F1.0
ssbsg15
g0
(g16
g2
Ntp1441
Rp1442
(dp1443
g15
I0
sbsba(ics475_types
Instance
p1444
(dp1445
g10
(ics475_types
FeatureVector
p1446
(dp1447
g13
(dp1448
I2
F41.17
sI3
F1.335
sI4
F1.0
sI5
F1.0
sI7
F1.0
sI8
F0.165
sI9
F1.0
sI13
F1.0
sI14
F168.0
sI16
F1.0
sI34
F1.0
sI20
F1.0
sI21
F1.0
ssbsg15
g0
(g16
g2
Ntp1449
Rp1450
(dp1451
g15
I0
sbsba(ics475_types
Instance
p1452
(dp1453
g10
(ics475_types
FeatureVector
p1454
(dp1455
g13
(dp1456
I2
F20.0
sI34
F1.0
sI4
F1.0
sI5
F1.0
sI7
F1.0
sI8
F0.5
sI9
F1.0
sI13
F1.0
sI14
F144.0
sI16
F1.0
sI20
F1.0
sI21
F1.0
ssbsg15
g0
(g16
g2
Ntp1457
Rp1458
(dp1459
g15
I0
sbsba(ics475_types
Instance
p1460
(dp1461
g10
(ics475_types
FeatureVector
p1462
(dp1463
g13
(dp1464
I1
F1.0
sI2
F28.5
sI3
F1.0
sI4
F1.0
sI5
F1.0
sI7
F1.0
sI8
F1.0
sI10
F1.0
sI11
F2.0
sI12
F1.0
sI13
F1.0
sI14
F167.0
sI15
F500.0
sI33
F1.0
sI30
F1.0
ssbsg15
g0
(g16
g2
Ntp1465
Rp1466
(dp1467
g15
I0
sbsba(ics475_types
Instance
p1468
(dp1469
g10
(ics475_types
FeatureVector
p1470
(dp1471
g13
(dp1472
I1
F1.0
sI2
F22.92
sI3
F1.25
sI4
F1.0
sI5
F1.0
sI7
F1.0
sI8
F0.25
sI9
F1.0
sI12
F1.0
sI13
F1.0
sI14
F120.0
sI15
F809.0
sI20
F1.0
sI30
F1.0
ssbsg15
g0
(g16
g2
Ntp1473
Rp1474
(dp1475
g15
I0
sbsba(ics475_types
Instance
p1476
(dp1477
g10
(ics475_types
FeatureVector
p1478
(dp1479
g13
(dp1480
I1
F1.0
sI2
F58.67
sI3
F4.46
sI4
F1.0
sI5
F1.0
sI33
F1.0
sI8
F3.04
sI10
F1.0
sI11
F6.0
sI13
F1.0
sI14
F43.0
sI15
F560.0
sI21
F1.0
sI27
F1.0
sI30
F1.0
ssbsg15
g0
(g16
g2
Ntp1481
Rp1482
(dp1483
g15
I1
sbsba(ics475_types
Instance
p1484
(dp1485
g10
(ics475_types
FeatureVector
p1486
(dp1487
g13
(dp1488
I33
F1.0
sI2
F23.42
sI3
F0.585
sI4
F1.0
sI5
F1.0
sI6
F1.0
sI8
F0.085
sI13
F1.0
sI14
F180.0
sI16
F1.0
sI20
F1.0
sI21
F1.0
sI27
F1.0
ssbsg15
g0
(g16
g2
Ntp1489
Rp1490
(dp1491
g15
I0
sbsba(ics475_types
Instance
p1492
(dp1493
g10
(ics475_types
FeatureVector
p1494
(dp1495
g13
(dp1496
I1
F1.0
sI2
F16.5
sI3
F1.25
sI4
F1.0
sI5
F1.0
sI7
F1.0
sI8
F0.25
sI9
F1.0
sI10
F1.0
sI11
F1.0
sI13
F1.0
sI14
F108.0
sI15
F98.0
sI21
F1.0
sI30
F1.0
ssbsg15
g0
(g16
g2
Ntp1497
Rp1498
(dp1499
g15
I0
sbsba(ics475_types
Instance
p1500
(dp1501
g10
(ics475_types
FeatureVector
p1502
(dp1503
g13
(dp1504
I1
F1.0
sI2
F21.67
sI3
F11.5
sI33
F1.0
sI10
F1.0
sI11
F11.0
sI12
F1.0
sI13
F1.0
sI17
F1.0
sI18
F1.0
sI28
F1.0
sI29
F1.0
ssbsg15
g0
(g16
g2
Ntp1505
Rp1506
(dp1507
g15
I1
sbsba(ics475_types
Instance
p1508
(dp1509
g10
(ics475_types
FeatureVector
p1510
(dp1511
g13
(dp1512
I1
F1.0
sI2
F22.92
sI3
F11.585
sI4
F1.0
sI5
F1.0
sI7
F1.0
sI8
F0.04
sI13
F1.0
sI14
F80.0
sI15
F1349.0
sI20
F1.0
sI21
F1.0
sI36
F1.0
sI33
F1.0
ssbsg15
g0
(g16
g2
Ntp1513
Rp1514
(dp1515
g15
I1
sbsba(ics475_types
Instance
p1516
(dp1517
g10
(ics475_types
FeatureVector
p1518
(dp1519
g13
(dp1520
I33
F1.0
sI2
F42.5
sI3
F4.915
sI7
F1.0
sI8
F3.165
sI12
F1.0
sI13
F1.0
sI14
F52.0
sI15
F1442.0
sI16
F1.0
sI17
F1.0
sI18
F1.0
sI20
F1.0
sI31
F1.0
ssbsg15
g0
(g16
g2
Ntp1521
Rp1522
(dp1523
g15
I1
sbsba(ics475_types
Instance
p1524
(dp1525
g10
(ics475_types
FeatureVector
p1526
(dp1527
g13
(dp1528
I2
F30.58
sI3
F2.71
sI7
F1.0
sI8
F0.125
sI9
F1.0
sI12
F1.0
sI14
F80.0
sI16
F1.0
sI17
F1.0
sI18
F1.0
sI35
F1.0
sI20
F1.0
sI22
F1.0
ssbsg15
g0
(g16
g2
Ntp1529
Rp1530
(dp1531
g15
I0
sbsba(ics475_types
Instance
p1532
(dp1533
g10
(ics475_types
FeatureVector
p1534
(dp1535
g13
(dp1536
I33
F1.0
sI2
F39.83
sI3
F0.5
sI4
F1.0
sI5
F1.0
sI7
F1.0
sI8
F0.25
sI14
F288.0
sI16
F1.0
sI35
F1.0
sI20
F1.0
sI21
F1.0
sI22
F1.0
ssbsg15
g0
(g16
g2
Ntp1537
Rp1538
(dp1539
g15
I0
sbsba(ics475_types
Instance
p1540
(dp1541
g10
(ics475_types
FeatureVector
p1542
(dp1543
g13
(dp1544
I32
F1.0
sI1
F1.0
sI2
F24.33
sI3
F2.5
sI8
F4.5
sI9
F1.0
sI13
F1.0
sI14
F200.0
sI15
F456.0
sI17
F1.0
sI18
F1.0
sI20
F1.0
sI21
F1.0
sI25
F1.0
ssbsg15
g0
(g16
g2
Ntp1545
Rp1546
(dp1547
g15
I0
sbsba(ics475_types
Instance
p1548
(dp1549
g10
(ics475_types
FeatureVector
p1550
(dp1551
g13
(dp1552
I2
F28.17
sI3
F0.125
sI7
F1.0
sI8
F0.085
sI9
F1.0
sI13
F1.0
sI14
F216.0
sI15
F2100.0
sI16
F1.0
sI17
F1.0
sI18
F1.0
sI19
F1.0
sI20
F1.0
sI21
F1.0
ssbsg15
g0
(g16
g2
Ntp1553
Rp1554
(dp1555
g15
I0
sbsba(ics475_types
Instance
p1556
(dp1557
g10
(ics475_types
FeatureVector
p1558
(dp1559
g13
(dp1560
I2
F23.08
sI3
F2.5
sI4
F1.0
sI5
F1.0
sI8
F0.085
sI9
F1.0
sI12
F1.0
sI13
F1.0
sI14
F100.0
sI15
F4208.0
sI16
F1.0
sI20
F1.0
sI23
F1.0
sI24
F1.0
ssbsg15
g0
(g16
g2
Ntp1561
Rp1562
(dp1563
g15
I0
sbsba(ics475_types
Instance
p1564
(dp1565
g10
(ics475_types
FeatureVector
p1566
(dp1567
g13
(dp1568
I1
F1.0
sI2
F19.5
sI3
F0.165
sI4
F1.0
sI5
F1.0
sI7
F1.0
sI8
F0.04
sI9
F1.0
sI12
F1.0
sI13
F1.0
sI14
F380.0
sI20
F1.0
sI30
F1.0
ssbsg15
g0
(g16
g2
Ntp1569
Rp1570
(dp1571
g15
I0
sbsba(ics475_types
Instance
p1572
(dp1573
g10
(ics475_types
FeatureVector
p1574
(dp1575
g13
(dp1576
I1
F1.0
sI2
F52.5
sI3
F7.0
sI4
F1.0
sI5
F1.0
sI8
F3.0
sI9
F1.0
sI13
F1.0
sI20
F1.0
sI21
F1.0
sI27
F1.0
sI37
F1.0
ssbsg15
g0
(g16
g2
Ntp1577
Rp1578
(dp1579
g15
I0
sbsba(ics475_types
Instance
p1580
(dp1581
g10
(ics475_types
FeatureVector
p1582
(dp1583
g13
(dp1584
I33
F1.0
sI2
F29.25
sI3
F14.79
sI4
F1.0
sI5
F1.0
sI7
F1.0
sI8
F5.04
sI10
F1.0
sI11
F5.0
sI12
F1.0
sI13
F1.0
sI14
F168.0
sI16
F1.0
sI37
F1.0
ssbsg15
g0
(g16
g2
Ntp1585
Rp1586
(dp1587
g15
I1
sbsba(ics475_types
Instance
p1588
(dp1589
g10
(ics475_types
FeatureVector
p1590
(dp1591
g13
(dp1592
I2
F26.17
sI3
F0.835
sI4
F1.0
sI5
F1.0
sI7
F1.0
sI8
F1.165
sI9
F1.0
sI13
F1.0
sI14
F100.0
sI16
F1.0
sI20
F1.0
sI21
F1.0
sI36
F1.0
ssbsg15
g0
(g16
g2
Ntp1593
Rp1594
(dp1595
g15
I0
sbsba(ics475_types
Instance
p1596
(dp1597
g10
(ics475_types
FeatureVector
p1598
(dp1599
g13
(dp1600
I33
F1.0
sI2
F38.58
sI3
F3.335
sI4
F1.0
sI5
F1.0
sI7
F1.0
sI8
F4.0
sI10
F1.0
sI11
F14.0
sI13
F1.0
sI14
F383.0
sI15
F1344.0
sI16
F1.0
sI21
F1.0
sI31
F1.0
ssbsg15
g0
(g16
g2
Ntp1601
Rp1602
(dp1603
g15
I1
sbsba(ics475_types
Instance
p1604
(dp1605
g10
(ics475_types
FeatureVector
p1606
(dp1607
g13
(dp1608
I33
F1.0
sI2
F32.25
sI3
F0.165
sI6
F1.0
sI8
F3.25
sI10
F1.0
sI11
F1.0
sI12
F1.0
sI13
F1.0
sI14
F432.0
sI15
F8000.0
sI16
F1.0
sI17
F1.0
sI18
F1.0
sI27
F1.0
ssbsg15
g0
(g16
g2
Ntp1609
Rp1610
(dp1611
g15
I1
sbsba(ics475_types
Instance
p1612
(dp1613
g10
(ics475_types
FeatureVector
p1614
(dp1615
g13
(dp1616
I2
F32.42
sI3
F2.165
sI9
F1.0
sI13
F1.0
sI14
F120.0
sI16
F1.0
sI17
F1.0
sI18
F1.0
sI19
F1.0
sI20
F1.0
sI21
F1.0
sI24
F1.0
ssbsg15
g0
(g16
g2
Ntp1617
Rp1618
(dp1619
g15
I0
sbsba(ics475_types
Instance
p1620
(dp1621
g10
(ics475_types
FeatureVector
p1622
(dp1623
g13
(dp1624
I33
F1.0
sI2
F20.67
sI3
F1.25
sI6
F1.0
sI8
F1.375
sI10
F1.0
sI11
F3.0
sI12
F1.0
sI13
F1.0
sI14
F140.0
sI15
F210.0
sI16
F1.0
sI17
F1.0
sI18
F1.0
sI27
F1.0
ssbsg15
g0
(g16
g2
Ntp1625
Rp1626
(dp1627
g15
I0
sbsba(ics475_types
Instance
p1628
(dp1629
g10
(ics475_types
FeatureVector
p1630
(dp1631
g13
(dp1632
I33
F1.0
sI2
F39.17
sI3
F1.625
sI4
F1.0
sI5
F1.0
sI6
F1.0
sI7
F1.0
sI8
F1.5
sI10
F1.0
sI11
F10.0
sI13
F1.0
sI14
F186.0
sI15
F4700.0
sI16
F1.0
sI21
F1.0
ssbsg15
g0
(g16
g2
Ntp1633
Rp1634
(dp1635
g15
I1
sbsba(ics475_types
Instance
p1636
(dp1637
g10
(ics475_types
FeatureVector
p1638
(dp1639
g13
(dp1640
I2
F21.17
sI3
F0.25
sI6
F1.0
sI8
F0.25
sI9
F1.0
sI13
F1.0
sI14
F280.0
sI15
F204.0
sI16
F1.0
sI17
F1.0
sI18
F1.0
sI20
F1.0
sI21
F1.0
sI27
F1.0
ssbsg15
g0
(g16
g2
Ntp1641
Rp1642
(dp1643
g15
I0
sbsba(ics475_types
Instance
p1644
(dp1645
g10
(ics475_types
FeatureVector
p1646
(dp1647
g13
(dp1648
I2
F17.08
sI3
F0.25
sI4
F1.0
sI5
F1.0
sI7
F1.0
sI8
F0.335
sI9
F1.0
sI10
F1.0
sI11
F4.0
sI13
F1.0
sI14
F160.0
sI15
F8.0
sI16
F1.0
sI21
F1.0
sI30
F1.0
ssbsg15
g0
(g16
g2
Ntp1649
Rp1650
(dp1651
g15
I0
sbsba(ics475_types
Instance
p1652
(dp1653
g10
(ics475_types
FeatureVector
p1654
(dp1655
g13
(dp1656
I33
F1.0
sI2
F33.17
sI3
F3.04
sI6
F1.0
sI8
F2.04
sI10
F1.0
sI11
F1.0
sI12
F1.0
sI13
F1.0
sI14
F180.0
sI15
F18027.0
sI16
F1.0
sI17
F1.0
sI18
F1.0
sI27
F1.0
ssbsg15
g0
(g16
g2
Ntp1657
Rp1658
(dp1659
g15
I1
sbsba(ics475_types
Instance
p1660
(dp1661
g10
(ics475_types
FeatureVector
p1662
(dp1663
g13
(dp1664
I1
F1.0
sI2
F38.33
sI3
F4.415
sI4
F1.0
sI5
F1.0
sI6
F1.0
sI7
F1.0
sI8
F0.125
sI9
F1.0
sI13
F1.0
sI14
F160.0
sI20
F1.0
sI21
F1.0
ssbsg15
g0
(g16
g2
Ntp1665
Rp1666
(dp1667
g15
I0
sbsba(ics475_types
Instance
p1668
(dp1669
g10
(ics475_types
FeatureVector
p1670
(dp1671
g13
(dp1672
I1
F1.0
sI2
F33.25
sI3
F3.0
sI37
F1.0
sI7
F1.0
sI8
F2.0
sI9
F1.0
sI13
F1.0
sI14
F180.0
sI17
F1.0
sI18
F1.0
sI20
F1.0
sI21
F1.0
ssbsg15
g0
(g16
g2
Ntp1673
Rp1674
(dp1675
g15
I0
sbsba(ics475_types
Instance
p1676
(dp1677
g10
(ics475_types
FeatureVector
p1678
(dp1679
g13
(dp1680
I2
F19.5
sI3
F9.585
sI4
F1.0
sI5
F1.0
sI7
F1.0
sI8
F0.79
sI9
F1.0
sI13
F1.0
sI14
F80.0
sI15
F350.0
sI16
F1.0
sI20
F1.0
sI21
F1.0
sI37
F1.0
ssbsg15
g0
(g16
g2
Ntp1681
Rp1682
(dp1683
g15
I0
sbsba(ics475_types
Instance
p1684
(dp1685
g10
(ics475_types
FeatureVector
p1686
(dp1687
g13
(dp1688
I1
F1.0
sI2
F37.75
sI3
F5.5
sI4
F1.0
sI5
F1.0
sI7
F1.0
sI8
F0.125
sI12
F1.0
sI13
F1.0
sI14
F228.0
sI20
F1.0
sI33
F1.0
sI30
F1.0
ssbsg15
g0
(g16
g2
Ntp1689
Rp1690
(dp1691
g15
I1
sbsba(ics475_types
Instance
p1692
(dp1693
g10
(ics475_types
FeatureVector
p1694
(dp1695
g13
(dp1696
I2
F29.25
sI3
F13.0
sI4
F1.0
sI5
F1.0
sI8
F0.5
sI9
F1.0
sI13
F1.0
sI14
F228.0
sI16
F1.0
sI34
F1.0
sI20
F1.0
sI21
F1.0
sI27
F1.0
ssbsg15
g0
(g16
g2
Ntp1697
Rp1698
(dp1699
g15
I0
sbsba(ics475_types
Instance
p1700
(dp1701
g10
(ics475_types
FeatureVector
p1702
(dp1703
g13
(dp1704
I1
F1.0
sI2
F19.17
sI3
F8.585
sI4
F1.0
sI5
F1.0
sI33
F1.0
sI8
F0.75
sI10
F1.0
sI11
F7.0
sI13
F1.0
sI14
F96.0
sI21
F1.0
sI36
F1.0
sI27
F1.0
ssbsg15
g0
(g16
g2
Ntp1705
Rp1706
(dp1707
g15
I1
sbsba(ics475_types
Instance
p1708
(dp1709
g10
(ics475_types
FeatureVector
p1710
(dp1711
g13
(dp1712
I2
F20.75
sI3
F5.085
sI7
F1.0
sI8
F0.29
sI9
F1.0
sI13
F1.0
sI14
F140.0
sI15
F184.0
sI16
F1.0
sI17
F1.0
sI18
F1.0
sI20
F1.0
sI21
F1.0
sI28
F1.0
ssbsg15
g0
(g16
g2
Ntp1713
Rp1714
(dp1715
g15
I0
sbsba(ics475_types
Instance
p1716
(dp1717
g10
(ics475_types
FeatureVector
p1718
(dp1719
g13
(dp1720
I1
F1.0
sI2
F27.67
sI3
F1.5
sI4
F1.0
sI5
F1.0
sI7
F1.0
sI8
F2.0
sI14
F368.0
sI35
F1.0
sI20
F1.0
sI21
F1.0
sI22
F1.0
sI33
F1.0
ssbsg15
g0
(g16
g2
Ntp1721
Rp1722
(dp1723
g15
I0
sbsba(ics475_types
Instance
p1724
(dp1725
g10
(ics475_types
FeatureVector
p1726
(dp1727
g13
(dp1728
I33
F1.0
sI2
F39.08
sI3
F6.0
sI4
F1.0
sI5
F1.0
sI7
F1.0
sI8
F1.29
sI10
F1.0
sI11
F5.0
sI12
F1.0
sI13
F1.0
sI14
F108.0
sI15
F1097.0
sI16
F1.0
sI35
F1.0
ssbsg15
g0
(g16
g2
Ntp1729
Rp1730
(dp1731
g15
I1
sbsba(ics475_types
Instance
p1732
(dp1733
g10
(ics475_types
FeatureVector
p1734
(dp1735
g13
(dp1736
I33
F1.0
sI2
F52.5
sI3
F6.5
sI4
F1.0
sI5
F1.0
sI7
F1.0
sI8
F6.29
sI10
F1.0
sI11
F15.0
sI13
F1.0
sI15
F11202.0
sI16
F1.0
sI19
F1.0
sI21
F1.0
ssbsg15
g0
(g16
g2
Ntp1737
Rp1738
(dp1739
g15
I1
sbsba(ics475_types
Instance
p1740
(dp1741
g10
(ics475_types
FeatureVector
p1742
(dp1743
g13
(dp1744
I1
F1.0
sI2
F46.67
sI3
F0.46
sI4
F1.0
sI5
F1.0
sI33
F1.0
sI8
F0.415
sI10
F1.0
sI11
F11.0
sI12
F1.0
sI13
F1.0
sI14
F440.0
sI15
F6.0
sI36
F1.0
sI27
F1.0
ssbsg15
g0
(g16
g2
Ntp1745
Rp1746
(dp1747
g15
I1
sbsba(ics475_types
Instance
p1748
(dp1749
g10
(ics475_types
FeatureVector
p1750
(dp1751
g13
(dp1752
I2
F29.83
sI3
F2.04
sI39
F1.0
sI8
F0.04
sI9
F1.0
sI13
F1.0
sI14
F128.0
sI15
F1.0
sI16
F1.0
sI17
F1.0
sI18
F1.0
sI20
F1.0
sI21
F1.0
sI27
F1.0
ssbsg15
g0
(g16
g2
Ntp1753
Rp1754
(dp1755
g15
I0
sbsba(ics475_types
Instance
p1756
(dp1757
g10
(ics475_types
FeatureVector
p1758
(dp1759
g13
(dp1760
I1
F1.0
sI2
F38.25
sI3
F6.0
sI4
F1.0
sI5
F1.0
sI7
F1.0
sI8
F1.0
sI12
F1.0
sI13
F1.0
sI19
F1.0
sI20
F1.0
sI33
F1.0
ssbsg15
g0
(g16
g2
Ntp1761
Rp1762
(dp1763
g15
I1
sbsba(ics475_types
Instance
p1764
(dp1765
g10
(ics475_types
FeatureVector
p1766
(dp1767
g13
(dp1768
I1
F1.0
sI2
F34.83
sI3
F1.25
sI8
F0.5
sI9
F1.0
sI12
F1.0
sI13
F1.0
sI14
F160.0
sI17
F1.0
sI18
F1.0
sI20
F1.0
sI25
F1.0
sI27
F1.0
ssbsg15
g0
(g16
g2
Ntp1769
Rp1770
(dp1771
g15
I0
sbsba(ics475_types
Instance
p1772
(dp1773
g10
(ics475_types
FeatureVector
p1774
(dp1775
g13
(dp1776
I1
F1.0
sI2
F44.33
sI4
F1.0
sI5
F1.0
sI6
F1.0
sI7
F1.0
sI8
F2.5
sI13
F1.0
sI20
F1.0
sI21
F1.0
sI33
F1.0
ssbsg15
g0
(g16
g2
Ntp1777
Rp1778
(dp1779
g15
I1
sbsba(ics475_types
Instance
p1780
(dp1781
g10
(ics475_types
FeatureVector
p1782
(dp1783
g13
(dp1784
I33
F1.0
sI2
F26.75
sI3
F1.125
sI4
F1.0
sI5
F1.0
sI39
F1.0
sI8
F1.25
sI13
F1.0
sI15
F5298.0
sI16
F1.0
sI20
F1.0
sI21
F1.0
sI27
F1.0
ssbsg15
g0
(g16
g2
Ntp1785
Rp1786
(dp1787
g15
I1
sbsba(ics475_types
Instance
p1788
(dp1789
g10
(ics475_types
FeatureVector
p1790
(dp1791
g13
(dp1792
I33
F1.0
sI2
F23.0
sI3
F0.625
sI37
F1.0
sI7
F1.0
sI8
F0.125
sI13
F1.0
sI14
F180.0
sI15
F1.0
sI16
F1.0
sI17
F1.0
sI18
F1.0
sI20
F1.0
sI21
F1.0
ssbsg15
g0
(g16
g2
Ntp1793
Rp1794
(dp1795
g15
I0
sbsba(ics475_types
Instance
p1796
(dp1797
g10
(ics475_types
FeatureVector
p1798
(dp1799
g13
(dp1800
I32
F1.0
sI1
F1.0
sI2
F58.42
sI3
F21.0
sI4
F1.0
sI5
F1.0
sI33
F1.0
sI8
F10.0
sI10
F1.0
sI11
F13.0
sI13
F1.0
sI15
F6700.0
sI21
F1.0
sI25
F1.0
ssbsg15
g0
(g16
g2
Ntp1801
Rp1802
(dp1803
g15
I1
sbsba(ics475_types
Instance
p1804
(dp1805
g10
(ics475_types
FeatureVector
p1806
(dp1807
g13
(dp1808
I1
F1.0
sI2
F28.58
sI3
F1.665
sI4
F1.0
sI5
F1.0
sI7
F1.0
sI8
F2.415
sI12
F1.0
sI13
F1.0
sI14
F440.0
sI20
F1.0
sI33
F1.0
sI30
F1.0
ssbsg15
g0
(g16
g2
Ntp1809
Rp1810
(dp1811
g15
I0
sbsba(ics475_types
Instance
p1812
(dp1813
g10
(ics475_types
FeatureVector
p1814
(dp1815
g13
(dp1816
I2
F20.0
sI3
F7.0
sI4
F1.0
sI5
F1.0
sI6
F1.0
sI7
F1.0
sI8
F0.5
sI9
F1.0
sI13
F1.0
sI16
F1.0
sI20
F1.0
sI21
F1.0
ssbsg15
g0
(g16
g2
Ntp1817
Rp1818
(dp1819
g15
I0
sbsba(ics475_types
Instance
p1820
(dp1821
g10
(ics475_types
FeatureVector
p1822
(dp1823
g13
(dp1824
I1
F1.0
sI2
F48.17
sI3
F1.335
sI4
F1.0
sI5
F1.0
sI8
F0.335
sI9
F1.0
sI13
F1.0
sI15
F120.0
sI20
F1.0
sI21
F1.0
sI25
F1.0
sI26
F1.0
ssbsg15
g0
(g16
g2
Ntp1825
Rp1826
(dp1827
g15
I0
sbsba(ics475_types
Instance
p1828
(dp1829
g10
(ics475_types
FeatureVector
p1830
(dp1831
g13
(dp1832
I33
F1.0
sI2
F22.33
sI3
F11.0
sI4
F1.0
sI5
F1.0
sI7
F1.0
sI8
F2.0
sI10
F1.0
sI11
F1.0
sI13
F1.0
sI14
F80.0
sI15
F278.0
sI16
F1.0
sI21
F1.0
sI31
F1.0
ssbsg15
g0
(g16
g2
Ntp1833
Rp1834
(dp1835
g15
I1
sbsba(ics475_types
Instance
p1836
(dp1837
g10
(ics475_types
FeatureVector
p1838
(dp1839
g13
(dp1840
I2
F21.92
sI3
F0.5
sI4
F1.0
sI5
F1.0
sI6
F1.0
sI7
F1.0
sI8
F0.125
sI9
F1.0
sI13
F1.0
sI14
F360.0
sI16
F1.0
sI20
F1.0
sI21
F1.0
ssbsg15
g0
(g16
g2
Ntp1841
Rp1842
(dp1843
g15
I0
sbsba(ics475_types
Instance
p1844
(dp1845
g10
(ics475_types
FeatureVector
p1846
(dp1847
g13
(dp1848
I1
F1.0
sI2
F23.75
sI3
F0.71
sI4
F1.0
sI5
F1.0
sI7
F1.0
sI8
F0.25
sI9
F1.0
sI10
F1.0
sI11
F1.0
sI12
F1.0
sI13
F1.0
sI14
F240.0
sI15
F4.0
sI31
F1.0
ssbsg15
g0
(g16
g2
Ntp1849
Rp1850
(dp1851
g15
I0
sbsba(ics475_types
Instance
p1852
(dp1853
g10
(ics475_types
FeatureVector
p1854
(dp1855
g13
(dp1856
I33
F1.0
sI2
F33.17
sI3
F1.0
sI4
F1.0
sI5
F1.0
sI7
F1.0
sI8
F0.75
sI10
F1.0
sI11
F7.0
sI12
F1.0
sI13
F1.0
sI14
F340.0
sI15
F4071.0
sI16
F1.0
sI39
F1.0
ssbsg15
g0
(g16
g2
Ntp1857
Rp1858
(dp1859
g15
I1
sbsba(ics475_types
Instance
p1860
(dp1861
g10
(ics475_types
FeatureVector
p1862
(dp1863
g13
(dp1864
I1
F1.0
sI2
F27.33
sI3
F1.665
sI4
F1.0
sI5
F1.0
sI9
F1.0
sI13
F1.0
sI14
F340.0
sI15
F1.0
sI20
F1.0
sI21
F1.0
sI23
F1.0
sI24
F1.0
ssbsg15
g0
(g16
g2
Ntp1865
Rp1866
(dp1867
g15
I0
sbsba(ics475_types
Instance
p1868
(dp1869
g10
(ics475_types
FeatureVector
p1870
(dp1871
g13
(dp1872
I1
F1.0
sI2
F25.25
sI3
F13.5
sI8
F2.0
sI9
F1.0
sI10
F1.0
sI11
F1.0
sI12
F1.0
sI13
F1.0
sI14
F200.0
sI15
F1.0
sI17
F1.0
sI18
F1.0
sI23
F1.0
sI24
F1.0
ssbsg15
g0
(g16
g2
Ntp1873
Rp1874
(dp1875
g15
I0
sbsba(ics475_types
Instance
p1876
(dp1877
g10
(ics475_types
FeatureVector
p1878
(dp1879
g13
(dp1880
I2
F21.83
sI3
F1.54
sI4
F1.0
sI5
F1.0
sI7
F1.0
sI8
F0.085
sI9
F1.0
sI12
F1.0
sI13
F1.0
sI14
F356.0
sI16
F1.0
sI19
F1.0
sI20
F1.0
ssbsg15
g0
(g16
g2
Ntp1881
Rp1882
(dp1883
g15
I0
sbsba(ics475_types
Instance
p1884
(dp1885
g10
(ics475_types
FeatureVector
p1886
(dp1887
g13
(dp1888
I2
F22.08
sI3
F0.83
sI4
F1.0
sI5
F1.0
sI6
F1.0
sI8
F2.165
sI9
F1.0
sI12
F1.0
sI13
F1.0
sI14
F128.0
sI16
F1.0
sI20
F1.0
sI27
F1.0
ssbsg15
g0
(g16
g2
Ntp1889
Rp1890
(dp1891
g15
I1
sbsba(ics475_types
Instance
p1892
(dp1893
g10
(ics475_types
FeatureVector
p1894
(dp1895
g13
(dp1896
I33
F1.0
sI2
F19.33
sI3
F9.5
sI4
F1.0
sI5
F1.0
sI7
F1.0
sI8
F1.0
sI12
F1.0
sI13
F1.0
sI14
F60.0
sI15
F400.0
sI16
F1.0
sI20
F1.0
sI30
F1.0
ssbsg15
g0
(g16
g2
Ntp1897
Rp1898
(dp1899
g15
I1
sbsba(ics475_types
Instance
p1900
(dp1901
g10
(ics475_types
FeatureVector
p1902
(dp1903
g13
(dp1904
I2
F49.17
sI3
F2.29
sI4
F1.0
sI5
F1.0
sI8
F0.29
sI9
F1.0
sI13
F1.0
sI14
F200.0
sI15
F3.0
sI16
F1.0
sI20
F1.0
sI21
F1.0
sI23
F1.0
sI24
F1.0
ssbsg15
g0
(g16
g2
Ntp1905
Rp1906
(dp1907
g15
I0
sbsba(ics475_types
Instance
p1908
(dp1909
g10
(ics475_types
FeatureVector
p1910
(dp1911
g13
(dp1912
I33
F1.0
sI2
F23.08
sI3
F11.5
sI4
F1.0
sI5
F1.0
sI7
F1.0
sI8
F3.5
sI10
F1.0
sI11
F9.0
sI13
F1.0
sI14
F56.0
sI15
F742.0
sI16
F1.0
sI21
F1.0
sI25
F1.0
ssbsg15
g0
(g16
g2
Ntp1913
Rp1914
(dp1915
g15
I1
sbsba(ics475_types
Instance
p1916
(dp1917
g10
(ics475_types
FeatureVector
p1918
(dp1919
g13
(dp1920
I1
F1.0
sI2
F60.58
sI3
F16.5
sI4
F1.0
sI5
F1.0
sI7
F1.0
sI8
F11.0
sI12
F1.0
sI13
F1.0
sI14
F21.0
sI15
F10561.0
sI20
F1.0
sI33
F1.0
sI30
F1.0
ssbsg15
g0
(g16
g2
Ntp1921
Rp1922
(dp1923
g15
I1
sbsba(ics475_types
Instance
p1924
(dp1925
g10
(ics475_types
FeatureVector
p1926
(dp1927
g13
(dp1928
I33
F1.0
sI2
F19.67
sI3
F0.375
sI4
F1.0
sI5
F1.0
sI7
F1.0
sI8
F2.0
sI10
F1.0
sI11
F2.0
sI12
F1.0
sI13
F1.0
sI14
F80.0
sI16
F1.0
sI30
F1.0
ssbsg15
g0
(g16
g2
Ntp1929
Rp1930
(dp1931
g15
I1
sbsba(ics475_types
Instance
p1932
(dp1933
g10
(ics475_types
FeatureVector
p1934
(dp1935
g13
(dp1936
I33
F1.0
sI2
F20.17
sI3
F8.17
sI4
F1.0
sI5
F1.0
sI7
F1.0
sI8
F1.96
sI10
F1.0
sI11
F14.0
sI13
F1.0
sI14
F60.0
sI15
F158.0
sI16
F1.0
sI21
F1.0
sI37
F1.0
ssbsg15
g0
(g16
g2
Ntp1937
Rp1938
(dp1939
g15
I1
sbsba(ics475_types
Instance
p1940
(dp1941
g10
(ics475_types
FeatureVector
p1942
(dp1943
g13
(dp1944
I33
F1.0
sI2
F34.25
sI3
F3.0
sI4
F1.0
sI5
F1.0
sI8
F7.415
sI12
F1.0
sI13
F1.0
sI16
F1.0
sI20
F1.0
sI36
F1.0
sI27
F1.0
ssbsg15
g0
(g16
g2
Ntp1945
Rp1946
(dp1947
g15
I1
sbsba(ics475_types
Instance
p1948
(dp1949
g10
(ics475_types
FeatureVector
p1950
(dp1951
g13
(dp1952
I2
F18.17
sI3
F2.46
sI4
F1.0
sI5
F1.0
sI6
F1.0
sI8
F0.96
sI9
F1.0
sI10
F1.0
sI11
F2.0
sI12
F1.0
sI13
F1.0
sI14
F160.0
sI15
F587.0
sI16
F1.0
sI40
F1.0
ssbsg15
g0
(g16
g2
Ntp1953
Rp1954
(dp1955
g15
I0
sbsba(ics475_types
Instance
p1956
(dp1957
g10
(ics475_types
FeatureVector
p1958
(dp1959
g13
(dp1960
I33
F1.0
sI2
F27.67
sI3
F2.0
sI4
F1.0
sI5
F1.0
sI39
F1.0
sI8
F1.0
sI10
F1.0
sI11
F4.0
sI13
F1.0
sI14
F140.0
sI15
F7544.0
sI16
F1.0
sI21
F1.0
sI27
F1.0
ssbsg15
g0
(g16
g2
Ntp1961
Rp1962
(dp1963
g15
I1
sbsba(ics475_types
Instance
p1964
(dp1965
g10
(ics475_types
FeatureVector
p1966
(dp1967
g13
(dp1968
I33
F1.0
sI2
F36.33
sI3
F2.125
sI7
F1.0
sI8
F0.085
sI10
F1.0
sI11
F1.0
sI13
F1.0
sI14
F50.0
sI15
F1187.0
sI16
F1.0
sI17
F1.0
sI18
F1.0
sI21
F1.0
sI31
F1.0
ssbsg15
g0
(g16
g2
Ntp1969
Rp1970
(dp1971
g15
I1
sbsba(ics475_types
Instance
p1972
(dp1973
g10
(ics475_types
FeatureVector
p1974
(dp1975
g13
(dp1976
I2
F20.0
sI3
F1.25
sI7
F1.0
sI8
F0.125
sI9
F1.0
sI13
F1.0
sI14
F140.0
sI15
F4.0
sI16
F1.0
sI17
F1.0
sI18
F1.0
sI19
F1.0
sI20
F1.0
sI21
F1.0
ssbsg15
g0
(g16
g2
Ntp1977
Rp1978
(dp1979
g15
I0
sbsba(ics475_types
Instance
p1980
(dp1981
g10
(ics475_types
FeatureVector
p1982
(dp1983
g13
(dp1984
I1
F1.0
sI2
F22.67
sI3
F0.75
sI4
F1.0
sI5
F1.0
sI6
F1.0
sI7
F1.0
sI8
F2.0
sI9
F1.0
sI10
F1.0
sI11
F2.0
sI12
F1.0
sI13
F1.0
sI14
F200.0
sI15
F394.0
ssbsg15
g0
(g16
g2
Ntp1985
Rp1986
(dp1987
g15
I0
sbsba(ics475_types
Instance
p1988
(dp1989
g10
(ics475_types
FeatureVector
p1990
(dp1991
g13
(dp1992
I2
F21.42
sI3
F0.75
sI38
F1.0
sI8
F0.75
sI9
F1.0
sI12
F1.0
sI13
F1.0
sI14
F132.0
sI15
F2.0
sI16
F1.0
sI17
F1.0
sI18
F1.0
sI20
F1.0
sI40
F1.0
ssbsg15
g0
(g16
g2
Ntp1993
Rp1994
(dp1995
g15
I0
sbsba(ics475_types
Instance
p1996
(dp1997
g10
(ics475_types
FeatureVector
p1998
(dp1999
g13
(dp2000
I2
F18.0
sI3
F0.165
sI4
F1.0
sI5
F1.0
sI8
F0.21
sI9
F1.0
sI13
F1.0
sI14
F200.0
sI15
F40.0
sI16
F1.0
sI40
F1.0
sI20
F1.0
sI21
F1.0
sI30
F1.0
ssbsg15
g0
(g16
g2
Ntp2001
Rp2002
(dp2003
g15
I1
sbsba(ics475_types
Instance
p2004
(dp2005
g10
(ics475_types
FeatureVector
p2006
(dp2007
g13
(dp2008
I2
F23.5
sI3
F3.165
sI7
F1.0
sI8
F0.415
sI9
F1.0
sI10
F1.0
sI11
F1.0
sI12
F1.0
sI13
F1.0
sI14
F280.0
sI15
F80.0
sI16
F1.0
sI17
F1.0
sI18
F1.0
sI19
F1.0
ssbsg15
g0
(g16
g2
Ntp2009
Rp2010
(dp2011
g15
I0
sbsba(ics475_types
Instance
p2012
(dp2013
g10
(ics475_types
FeatureVector
p2014
(dp2015
g13
(dp2016
I1
F1.0
sI2
F24.75
sI3
F12.5
sI4
F1.0
sI5
F1.0
sI7
F1.0
sI8
F1.5
sI10
F1.0
sI11
F12.0
sI12
F1.0
sI13
F1.0
sI14
F120.0
sI15
F567.0
sI33
F1.0
sI37
F1.0
ssbsg15
g0
(g16
g2
Ntp2017
Rp2018
(dp2019
g15
I1
sbsba(ics475_types
Instance
p2020
(dp2021
g10
(ics475_types
FeatureVector
p2022
(dp2023
g13
(dp2024
I2
F24.08
sI3
F9.0
sI4
F1.0
sI5
F1.0
sI7
F1.0
sI8
F0.25
sI9
F1.0
sI12
F1.0
sI13
F1.0
sI16
F1.0
sI20
F1.0
sI37
F1.0
ssbsg15
g0
(g16
g2
Ntp2025
Rp2026
(dp2027
g15
I0
sbsba(ics475_types
Instance
p2028
(dp2029
g10
(ics475_types
FeatureVector
p2030
(dp2031
g13
(dp2032
I33
F1.0
sI2
F48.58
sI3
F0.205
sI7
F1.0
sI8
F0.25
sI10
F1.0
sI11
F11.0
sI13
F1.0
sI14
F380.0
sI15
F2732.0
sI16
F1.0
sI17
F1.0
sI18
F1.0
sI19
F1.0
sI21
F1.0
ssbsg15
g0
(g16
g2
Ntp2033
Rp2034
(dp2035
g15
I1
sbsba(ics475_types
Instance
p2036
(dp2037
g10
(ics475_types
FeatureVector
p2038
(dp2039
g13
(dp2040
I33
F1.0
sI2
F52.33
sI3
F1.375
sI6
F1.0
sI8
F9.46
sI12
F1.0
sI13
F1.0
sI14
F200.0
sI15
F100.0
sI16
F1.0
sI17
F1.0
sI18
F1.0
sI20
F1.0
sI27
F1.0
ssbsg15
g0
(g16
g2
Ntp2041
Rp2042
(dp2043
g15
I0
sbsba(ics475_types
Instance
p2044
(dp2045
g10
(ics475_types
FeatureVector
p2046
(dp2047
g13
(dp2048
I2
F25.67
sI3
F3.25
sI4
F1.0
sI5
F1.0
sI6
F1.0
sI8
F2.29
sI9
F1.0
sI10
F1.0
sI11
F1.0
sI12
F1.0
sI13
F1.0
sI14
F416.0
sI15
F21.0
sI16
F1.0
sI27
F1.0
ssbsg15
g0
(g16
g2
Ntp2049
Rp2050
(dp2051
g15
I0
sbsba(ics475_types
Instance
p2052
(dp2053
g10
(ics475_types
FeatureVector
p2054
(dp2055
g13
(dp2056
I1
F1.0
sI2
F21.08
sI3
F5.0
sI9
F1.0
sI13
F1.0
sI17
F1.0
sI18
F1.0
sI20
F1.0
sI21
F1.0
sI23
F1.0
sI24
F1.0
ssbsg15
g0
(g16
g2
Ntp2057
Rp2058
(dp2059
g15
I0
sbsba(ics475_types
Instance
p2060
(dp2061
g10
(ics475_types
FeatureVector
p2062
(dp2063
g13
(dp2064
I33
F1.0
sI2
F26.0
sI3
F1.0
sI4
F1.0
sI5
F1.0
sI7
F1.0
sI8
F1.75
sI12
F1.0
sI13
F1.0
sI14
F280.0
sI16
F1.0
sI20
F1.0
sI30
F1.0
ssbsg15
g0
(g16
g2
Ntp2065
Rp2066
(dp2067
g15
I1
sbsba(ics475_types
Instance
p2068
(dp2069
g10
(ics475_types
FeatureVector
p2070
(dp2071
g13
(dp2072
I2
F69.17
sI3
F9.0
sI4
F1.0
sI5
F1.0
sI8
F4.0
sI9
F1.0
sI10
F1.0
sI11
F1.0
sI13
F1.0
sI14
F70.0
sI15
F6.0
sI16
F1.0
sI21
F1.0
sI23
F1.0
sI24
F1.0
ssbsg15
g0
(g16
g2
Ntp2073
Rp2074
(dp2075
g15
I0
sbsba(ics475_types
Instance
p2076
(dp2077
g10
(ics475_types
FeatureVector
p2078
(dp2079
g13
(dp2080
I33
F1.0
sI2
F20.17
sI3
F5.625
sI4
F1.0
sI5
F1.0
sI7
F1.0
sI8
F1.71
sI14
F120.0
sI16
F1.0
sI20
F1.0
sI21
F1.0
sI22
F1.0
sI31
F1.0
ssbsg15
g0
(g16
g2
Ntp2081
Rp2082
(dp2083
g15
I1
sbsba(ics475_types
Instance
p2084
(dp2085
g10
(ics475_types
FeatureVector
p2086
(dp2087
g13
(dp2088
I33
F1.0
sI2
F25.67
sI3
F12.5
sI4
F1.0
sI5
F1.0
sI7
F1.0
sI8
F1.21
sI10
F1.0
sI11
F67.0
sI12
F1.0
sI13
F1.0
sI14
F140.0
sI15
F258.0
sI16
F1.0
sI36
F1.0
ssbsg15
g0
(g16
g2
Ntp2089
Rp2090
(dp2091
g15
I1
sbsba(ics475_types
Instance
p2092
(dp2093
g10
(ics475_types
FeatureVector
p2094
(dp2095
g13
(dp2096
I1
F1.0
sI2
F20.33
sI3
F10.0
sI4
F1.0
sI5
F1.0
sI6
F1.0
sI33
F1.0
sI8
F1.0
sI10
F1.0
sI11
F4.0
sI13
F1.0
sI14
F50.0
sI15
F1465.0
sI21
F1.0
sI27
F1.0
ssbsg15
g0
(g16
g2
Ntp2097
Rp2098
(dp2099
g15
I1
sbsba(ics475_types
Instance
p2100
(dp2101
g10
(ics475_types
FeatureVector
p2102
(dp2103
g13
(dp2104
I2
F74.83
sI3
F19.0
sI8
F0.04
sI9
F1.0
sI10
F1.0
sI11
F2.0
sI13
F1.0
sI15
F351.0
sI16
F1.0
sI17
F1.0
sI18
F1.0
sI21
F1.0
sI23
F1.0
sI24
F1.0
ssbsg15
g0
(g16
g2
Ntp2105
Rp2106
(dp2107
g15
I0
sbsba(ics475_types
Instance
p2108
(dp2109
g10
(ics475_types
FeatureVector
p2110
(dp2111
g13
(dp2112
I32
F1.0
sI33
F1.0
sI2
F32.33
sI3
F7.5
sI4
F1.0
sI5
F1.0
sI8
F1.585
sI41
F1.0
sI12
F1.0
sI14
F420.0
sI16
F1.0
sI20
F1.0
sI22
F1.0
ssbsg15
g0
(g16
g2
Ntp2113
Rp2114
(dp2115
g15
I0
sbsba(ics475_types
Instance
p2116
(dp2117
g10
(ics475_types
FeatureVector
p2118
(dp2119
g13
(dp2120
I2
F35.17
sI3
F4.5
sI4
F1.0
sI5
F1.0
sI39
F1.0
sI8
F5.75
sI9
F1.0
sI12
F1.0
sI14
F711.0
sI16
F1.0
sI20
F1.0
sI22
F1.0
sI27
F1.0
ssbsg15
g0
(g16
g2
Ntp2121
Rp2122
(dp2123
g15
I1
sbsba(ics475_types
Instance
p2124
(dp2125
g10
(ics475_types
FeatureVector
p2126
(dp2127
g13
(dp2128
I33
F1.0
sI2
F27.83
sI3
F1.5
sI4
F1.0
sI5
F1.0
sI7
F1.0
sI8
F2.0
sI10
F1.0
sI11
F11.0
sI12
F1.0
sI13
F1.0
sI14
F434.0
sI15
F35.0
sI16
F1.0
sI31
F1.0
ssbsg15
g0
(g16
g2
Ntp2129
Rp2130
(dp2131
g15
I1
sbsba(ics475_types
Instance
p2132
(dp2133
g10
(ics475_types
FeatureVector
p2134
(dp2135
g13
(dp2136
I2
F42.83
sI3
F1.25
sI4
F1.0
sI5
F1.0
sI7
F1.0
sI8
F13.875
sI9
F1.0
sI10
F1.0
sI11
F1.0
sI12
F1.0
sI13
F1.0
sI14
F352.0
sI15
F112.0
sI16
F1.0
sI35
F1.0
ssbsg15
g0
(g16
g2
Ntp2137
Rp2138
(dp2139
g15
I0
sbsba(ics475_types
Instance
p2140
(dp2141
g10
(ics475_types
FeatureVector
p2142
(dp2143
g13
(dp2144
I1
F1.0
sI2
F56.5
sI3
F16.0
sI4
F1.0
sI5
F1.0
sI33
F1.0
sI10
F1.0
sI11
F15.0
sI13
F1.0
sI15
F247.0
sI21
F1.0
sI24
F1.0
sI28
F1.0
ssbsg15
g0
(g16
g2
Ntp2145
Rp2146
(dp2147
g15
I1
sbsba(ics475_types
Instance
p2148
(dp2149
g10
(ics475_types
FeatureVector
p2150
(dp2151
g13
(dp2152
I2
F26.75
sI3
F2.0
sI4
F1.0
sI5
F1.0
sI7
F1.0
sI8
F0.75
sI9
F1.0
sI12
F1.0
sI13
F1.0
sI14
F80.0
sI16
F1.0
sI34
F1.0
sI20
F1.0
ssbsg15
g0
(g16
g2
Ntp2153
Rp2154
(dp2155
g15
I0
sbsba(ics475_types
Instance
p2156
(dp2157
g10
(ics475_types
FeatureVector
p2158
(dp2159
g13
(dp2160
I2
F33.67
sI3
F1.25
sI4
F1.0
sI5
F1.0
sI7
F1.0
sI8
F1.165
sI9
F1.0
sI13
F1.0
sI14
F120.0
sI16
F1.0
sI20
F1.0
sI21
F1.0
sI31
F1.0
ssbsg15
g0
(g16
g2
Ntp2161
Rp2162
(dp2163
g15
I0
sbsba(ics475_types
Instance
p2164
(dp2165
g10
(ics475_types
FeatureVector
p2166
(dp2167
g13
(dp2168
I1
F1.0
sI2
F57.58
sI3
F2.0
sI4
F1.0
sI5
F1.0
sI8
F6.5
sI9
F1.0
sI10
F1.0
sI11
F1.0
sI13
F1.0
sI15
F10.0
sI21
F1.0
sI23
F1.0
sI24
F1.0
ssbsg15
g0
(g16
g2
Ntp2169
Rp2170
(dp2171
g15
I0
sbsba(ics475_types
Instance
p2172
(dp2173
g10
(ics475_types
FeatureVector
p2174
(dp2175
g13
(dp2176
I1
F1.0
sI2
F16.0
sI3
F0.165
sI4
F1.0
sI5
F1.0
sI7
F1.0
sI8
F1.0
sI9
F1.0
sI10
F1.0
sI11
F2.0
sI12
F1.0
sI13
F1.0
sI14
F320.0
sI15
F1.0
sI37
F1.0
ssbsg15
g0
(g16
g2
Ntp2177
Rp2178
(dp2179
g15
I0
sbsba(ics475_types
Instance
p2180
(dp2181
g10
(ics475_types
FeatureVector
p2182
(dp2183
g13
(dp2184
I32
F1.0
sI2
F48.08
sI3
F3.75
sI4
F1.0
sI5
F1.0
sI8
F1.0
sI9
F1.0
sI13
F1.0
sI14
F100.0
sI15
F2.0
sI16
F1.0
sI20
F1.0
sI21
F1.0
sI25
F1.0
ssbsg15
g0
(g16
g2
Ntp2185
Rp2186
(dp2187
g15
I0
sbsba(ics475_types
Instance
p2188
(dp2189
g10
(ics475_types
FeatureVector
p2190
(dp2191
g13
(dp2192
I33
F1.0
sI2
F25.08
sI3
F1.71
sI4
F1.0
sI5
F1.0
sI7
F1.0
sI8
F1.665
sI10
F1.0
sI11
F1.0
sI12
F1.0
sI13
F1.0
sI14
F395.0
sI15
F20.0
sI16
F1.0
sI39
F1.0
ssbsg15
g0
(g16
g2
Ntp2193
Rp2194
(dp2195
g15
I1
sbsba(ics475_types
Instance
p2196
(dp2197
g10
(ics475_types
FeatureVector
p2198
(dp2199
g13
(dp2200
I1
F1.0
sI2
F19.17
sI3
F0.585
sI33
F1.0
sI7
F1.0
sI8
F0.585
sI12
F1.0
sI13
F1.0
sI14
F160.0
sI17
F1.0
sI18
F1.0
sI20
F1.0
sI37
F1.0
ssbsg15
g0
(g16
g2
Ntp2201
Rp2202
(dp2203
g15
I0
sbsba(ics475_types
Instance
p2204
(dp2205
g10
(ics475_types
FeatureVector
p2206
(dp2207
g13
(dp2208
I1
F1.0
sI2
F19.67
sI3
F0.21
sI4
F1.0
sI5
F1.0
sI33
F1.0
sI8
F0.29
sI10
F1.0
sI11
F11.0
sI13
F1.0
sI14
F80.0
sI15
F99.0
sI21
F1.0
sI27
F1.0
sI30
F1.0
ssbsg15
g0
(g16
g2
Ntp2209
Rp2210
(dp2211
g15
I1
sbsba(ics475_types
Instance
p2212
(dp2213
g10
(ics475_types
FeatureVector
p2214
(dp2215
g13
(dp2216
I33
F1.0
sI2
F56.42
sI3
F28.0
sI6
F1.0
sI7
F1.0
sI8
F28.5
sI10
F1.0
sI11
F40.0
sI13
F1.0
sI15
F15.0
sI16
F1.0
sI17
F1.0
sI18
F1.0
sI21
F1.0
ssbsg15
g0
(g16
g2
Ntp2217
Rp2218
(dp2219
g15
I1
sbsba(ics475_types
Instance
p2220
(dp2221
g10
(ics475_types
FeatureVector
p2222
(dp2223
g13
(dp2224
I33
F1.0
sI2
F28.75
sI3
F1.165
sI4
F1.0
sI5
F1.0
sI7
F1.0
sI8
F0.5
sI14
F280.0
sI16
F1.0
sI19
F1.0
sI20
F1.0
sI21
F1.0
sI22
F1.0
ssbsg15
g0
(g16
g2
Ntp2225
Rp2226
(dp2227
g15
I0
sbsba(ics475_types
Instance
p2228
(dp2229
g10
(ics475_types
FeatureVector
p2230
(dp2231
g13
(dp2232
I2
F36.5
sI3
F4.25
sI4
F1.0
sI5
F1.0
sI7
F1.0
sI8
F3.5
sI9
F1.0
sI13
F1.0
sI14
F454.0
sI15
F50.0
sI16
F1.0
sI20
F1.0
sI21
F1.0
sI30
F1.0
ssbsg15
g0
(g16
g2
Ntp2233
Rp2234
(dp2235
g15
I0
sbsba(ics475_types
Instance
p2236
(dp2237
g10
(ics475_types
FeatureVector
p2238
(dp2239
g13
(dp2240
I33
F1.0
sI2
F24.42
sI3
F12.335
sI4
F1.0
sI5
F1.0
sI8
F1.585
sI12
F1.0
sI13
F1.0
sI14
F120.0
sI16
F1.0
sI20
F1.0
sI27
F1.0
sI30
F1.0
ssbsg15
g0
(g16
g2
Ntp2241
Rp2242
(dp2243
g15
I1
sbsba(ics475_types
Instance
p2244
(dp2245
g10
(ics475_types
FeatureVector
p2246
(dp2247
g13
(dp2248
I2
F62.75
sI3
F7.0
sI4
F1.0
sI5
F1.0
sI9
F1.0
sI42
F1.0
sI13
F1.0
sI15
F12.0
sI16
F1.0
sI20
F1.0
sI21
F1.0
sI41
F1.0
ssbsg15
g0
(g16
g2
Ntp2249
Rp2250
(dp2251
g15
I0
sbsba(ics475_types
Instance
p2252
(dp2253
g10
(ics475_types
FeatureVector
p2254
(dp2255
g13
(dp2256
I1
F1.0
sI2
F15.83
sI3
F7.625
sI4
F1.0
sI5
F1.0
sI7
F1.0
sI8
F0.125
sI9
F1.0
sI10
F1.0
sI11
F1.0
sI12
F1.0
sI13
F1.0
sI15
F160.0
sI30
F1.0
ssbsg15
g0
(g16
g2
Ntp2257
Rp2258
(dp2259
g15
I0
sbsba(ics475_types
Instance
p2260
(dp2261
g10
(ics475_types
FeatureVector
p2262
(dp2263
g13
(dp2264
I32
F1.0
sI1
F1.0
sI2
F51.92
sI3
F6.5
sI4
F1.0
sI5
F1.0
sI8
F3.085
sI9
F1.0
sI12
F1.0
sI13
F1.0
sI14
F73.0
sI20
F1.0
sI25
F1.0
ssbsg15
g0
(g16
g2
Ntp2265
Rp2266
(dp2267
g15
I0
sbsba(ics475_types
Instance
p2268
(dp2269
g10
(ics475_types
FeatureVector
p2270
(dp2271
g13
(dp2272
I1
F1.0
sI2
F26.58
sI3
F2.54
sI9
F1.0
sI12
F1.0
sI13
F1.0
sI14
F180.0
sI15
F60.0
sI17
F1.0
sI18
F1.0
sI20
F1.0
sI23
F1.0
sI24
F1.0
ssbsg15
g0
(g16
g2
Ntp2273
Rp2274
(dp2275
g15
I0
sbsba(ics475_types
Instance
p2276
(dp2277
g10
(ics475_types
FeatureVector
p2278
(dp2279
g13
(dp2280
I33
F1.0
sI2
F44.33
sI3
F0.5
sI4
F1.0
sI5
F1.0
sI8
F5.0
sI12
F1.0
sI13
F1.0
sI14
F320.0
sI16
F1.0
sI20
F1.0
sI25
F1.0
sI27
F1.0
ssbsg15
g0
(g16
g2
Ntp2281
Rp2282
(dp2283
g15
I1
sbsba(ics475_types
Instance
p2284
(dp2285
g10
(ics475_types
FeatureVector
p2286
(dp2287
g13
(dp2288
I1
F1.0
sI2
F29.5
sI3
F1.085
sI7
F1.0
sI8
F1.0
sI9
F1.0
sI39
F1.0
sI13
F1.0
sI14
F280.0
sI15
F13.0
sI17
F1.0
sI18
F1.0
sI20
F1.0
sI21
F1.0
ssbsg15
g0
(g16
g2
Ntp2289
Rp2290
(dp2291
g15
I0
sbsba(ics475_types
Instance
p2292
(dp2293
g10
(ics475_types
FeatureVector
p2294
(dp2295
g13
(dp2296
I2
F20.67
sI3
F0.835
sI6
F1.0
sI7
F1.0
sI8
F2.0
sI9
F1.0
sI12
F1.0
sI14
F240.0
sI16
F1.0
sI17
F1.0
sI18
F1.0
sI20
F1.0
sI22
F1.0
ssbsg15
g0
(g16
g2
Ntp2297
Rp2298
(dp2299
g15
I0
sbsba(ics475_types
Instance
p2300
(dp2301
g10
(ics475_types
FeatureVector
p2302
(dp2303
g13
(dp2304
I32
F1.0
sI33
F1.0
sI2
F42.75
sI3
F3.0
sI4
F1.0
sI5
F1.0
sI8
F1.0
sI13
F1.0
sI15
F200.0
sI16
F1.0
sI20
F1.0
sI21
F1.0
sI25
F1.0
ssbsg15
g0
(g16
g2
Ntp2305
Rp2306
(dp2307
g15
I0
sbsba(ics475_types
Instance
p2308
(dp2309
g10
(ics475_types
FeatureVector
p2310
(dp2311
g13
(dp2312
I33
F1.0
sI2
F24.17
sI3
F0.875
sI4
F1.0
sI5
F1.0
sI7
F1.0
sI8
F4.625
sI10
F1.0
sI11
F2.0
sI12
F1.0
sI13
F1.0
sI14
F520.0
sI15
F2000.0
sI16
F1.0
sI30
F1.0
ssbsg15
g0
(g16
g2
Ntp2313
Rp2314
(dp2315
g15
I1
sbsba(ics475_types
Instance
p2316
(dp2317
g10
(ics475_types
FeatureVector
p2318
(dp2319
g13
(dp2320
I33
F1.0
sI2
F60.08
sI3
F14.5
sI4
F1.0
sI5
F1.0
sI8
F18.0
sI10
F1.0
sI11
F15.0
sI12
F1.0
sI13
F1.0
sI15
F1000.0
sI16
F1.0
sI23
F1.0
sI24
F1.0
ssbsg15
g0
(g16
g2
Ntp2321
Rp2322
(dp2323
g15
I1
sbsba(ics475_types
Instance
p2324
(dp2325
g10
(ics475_types
FeatureVector
p2326
(dp2327
g13
(dp2328
I33
F1.0
sI2
F34.08
sI3
F6.5
sI4
F1.0
sI5
F1.0
sI7
F1.0
sI8
F0.125
sI12
F1.0
sI13
F1.0
sI14
F443.0
sI16
F1.0
sI20
F1.0
sI37
F1.0
ssbsg15
g0
(g16
g2
Ntp2329
Rp2330
(dp2331
g15
I0
sbsba(ics475_types
Instance
p2332
(dp2333
g10
(ics475_types
FeatureVector
p2334
(dp2335
g13
(dp2336
I32
F1.0
sI2
F34.0
sI3
F5.085
sI8
F1.085
sI9
F1.0
sI12
F1.0
sI13
F1.0
sI14
F480.0
sI16
F1.0
sI17
F1.0
sI18
F1.0
sI20
F1.0
sI25
F1.0
ssbsg15
g0
(g16
g2
Ntp2337
Rp2338
(dp2339
g15
I0
sbsba(ics475_types
Instance
p2340
(dp2341
g10
(ics475_types
FeatureVector
p2342
(dp2343
g13
(dp2344
I33
F1.0
sI2
F41.75
sI3
F0.96
sI4
F1.0
sI5
F1.0
sI7
F1.0
sI8
F2.5
sI39
F1.0
sI13
F1.0
sI14
F510.0
sI15
F600.0
sI16
F1.0
sI20
F1.0
sI21
F1.0
ssbsg15
g0
(g16
g2
Ntp2345
Rp2346
(dp2347
g15
I1
sbsba(ics475_types
Instance
p2348
(dp2349
g10
(ics475_types
FeatureVector
p2350
(dp2351
g13
(dp2352
I33
F1.0
sI2
F19.42
sI3
F6.5
sI4
F1.0
sI5
F1.0
sI8
F1.46
sI10
F1.0
sI11
F7.0
sI13
F1.0
sI14
F80.0
sI15
F2954.0
sI16
F1.0
sI21
F1.0
sI27
F1.0
sI31
F1.0
ssbsg15
g0
(g16
g2
Ntp2353
Rp2354
(dp2355
g15
I1
sbsba(ics475_types
Instance
p2356
(dp2357
g10
(ics475_types
FeatureVector
p2358
(dp2359
g13
(dp2360
I1
F1.0
sI2
F25.33
sI3
F2.085
sI4
F1.0
sI5
F1.0
sI6
F1.0
sI33
F1.0
sI8
F2.75
sI12
F1.0
sI13
F1.0
sI14
F360.0
sI15
F1.0
sI20
F1.0
sI27
F1.0
ssbsg15
g0
(g16
g2
Ntp2361
Rp2362
(dp2363
g15
I0
sbsba(ics475_types
Instance
p2364
(dp2365
g10
(ics475_types
FeatureVector
p2366
(dp2367
g13
(dp2368
I33
F1.0
sI2
F30.17
sI3
F0.5
sI4
F1.0
sI5
F1.0
sI6
F1.0
sI7
F1.0
sI8
F1.75
sI10
F1.0
sI11
F11.0
sI13
F1.0
sI14
F32.0
sI15
F540.0
sI16
F1.0
sI21
F1.0
ssbsg15
g0
(g16
g2
Ntp2369
Rp2370
(dp2371
g15
I1
sbsba(ics475_types
Instance
p2372
(dp2373
g10
(ics475_types
FeatureVector
p2374
(dp2375
g13
(dp2376
I2
F32.92
sI3
F2.5
sI4
F1.0
sI5
F1.0
sI7
F1.0
sI8
F1.75
sI9
F1.0
sI10
F1.0
sI11
F2.0
sI12
F1.0
sI13
F1.0
sI14
F720.0
sI16
F1.0
sI37
F1.0
ssbsg15
g0
(g16
g2
Ntp2377
Rp2378
(dp2379
g15
I0
sbsba(ics475_types
Instance
p2380
(dp2381
g10
(ics475_types
FeatureVector
p2382
(dp2383
g13
(dp2384
I2
F34.0
sI3
F5.5
sI6
F1.0
sI7
F1.0
sI8
F1.5
sI9
F1.0
sI12
F1.0
sI13
F1.0
sI14
F60.0
sI16
F1.0
sI17
F1.0
sI18
F1.0
sI20
F1.0
ssbsg15
g0
(g16
g2
Ntp2385
Rp2386
(dp2387
g15
I0
sbsba(ics475_types
Instance
p2388
(dp2389
g10
(ics475_types
FeatureVector
p2390
(dp2391
g13
(dp2392
I33
F1.0
sI2
F45.0
sI3
F8.5
sI4
F1.0
sI5
F1.0
sI8
F14.0
sI10
F1.0
sI11
F1.0
sI12
F1.0
sI13
F1.0
sI14
F88.0
sI15
F2000.0
sI16
F1.0
sI36
F1.0
sI27
F1.0
ssbsg15
g0
(g16
g2
Ntp2393
Rp2394
(dp2395
g15
I1
sbsba(ics475_types
Instance
p2396
(dp2397
g10
(ics475_types
FeatureVector
p2398
(dp2399
g13
(dp2400
I2
F17.5
sI3
F22.0
sI9
F1.0
sI12
F1.0
sI45
F1.0
sI14
F450.0
sI15
F100000.0
sI16
F1.0
sI20
F1.0
sI46
F1.0
sI23
F1.0
sI26
F1.0
sI44
F1.0
ssbsg15
g0
(g16
g2
Ntp2401
Rp2402
(dp2403
g15
I1
sbsba(ics475_types
Instance
p2404
(dp2405
g10
(ics475_types
FeatureVector
p2406
(dp2407
g13
(dp2408
I1
F1.0
sI2
F23.5
sI3
F9.0
sI4
F1.0
sI5
F1.0
sI7
F1.0
sI8
F8.5
sI10
F1.0
sI11
F5.0
sI12
F1.0
sI13
F1.0
sI14
F120.0
sI33
F1.0
sI30
F1.0
ssbsg15
g0
(g16
g2
Ntp2409
Rp2410
(dp2411
g15
I1
sbsba(ics475_types
Instance
p2412
(dp2413
g10
(ics475_types
FeatureVector
p2414
(dp2415
g13
(dp2416
I1
F1.0
sI2
F22.42
sI3
F5.665
sI4
F1.0
sI5
F1.0
sI7
F1.0
sI8
F2.585
sI10
F1.0
sI11
F7.0
sI13
F1.0
sI14
F129.0
sI15
F3257.0
sI21
F1.0
sI33
F1.0
sI30
F1.0
ssbsg15
g0
(g16
g2
Ntp2417
Rp2418
(dp2419
g15
I1
sbsba(ics475_types
Instance
p2420
(dp2421
g10
(ics475_types
FeatureVector
p2422
(dp2423
g13
(dp2424
I2
F41.0
sI3
F0.04
sI4
F1.0
sI5
F1.0
sI7
F1.0
sI8
F0.04
sI9
F1.0
sI10
F1.0
sI11
F1.0
sI14
F560.0
sI16
F1.0
sI21
F1.0
sI22
F1.0
sI41
F1.0
ssbsg15
g0
(g16
g2
Ntp2425
Rp2426
(dp2427
g15
I1
sbsba(ics475_types
Instance
p2428
(dp2429
g10
(ics475_types
FeatureVector
p2430
(dp2431
g13
(dp2432
I33
F1.0
sI2
F41.17
sI3
F4.04
sI4
F1.0
sI5
F1.0
sI8
F7.0
sI10
F1.0
sI11
F8.0
sI13
F1.0
sI14
F320.0
sI16
F1.0
sI21
F1.0
sI36
F1.0
sI27
F1.0
ssbsg15
g0
(g16
g2
Ntp2433
Rp2434
(dp2435
g15
I1
sbsba(ics475_types
Instance
p2436
(dp2437
g10
(ics475_types
FeatureVector
p2438
(dp2439
g13
(dp2440
I1
F1.0
sI2
F24.75
sI3
F13.665
sI4
F1.0
sI5
F1.0
sI8
F1.5
sI9
F1.0
sI13
F1.0
sI14
F280.0
sI15
F1.0
sI20
F1.0
sI21
F1.0
sI27
F1.0
sI30
F1.0
ssbsg15
g0
(g16
g2
Ntp2441
Rp2442
(dp2443
g15
I0
sbsba(ics475_types
Instance
p2444
(dp2445
g10
(ics475_types
FeatureVector
p2446
(dp2447
g13
(dp2448
I33
F1.0
sI2
F41.42
sI3
F5.0
sI4
F1.0
sI5
F1.0
sI8
F5.0
sI10
F1.0
sI11
F6.0
sI12
F1.0
sI13
F1.0
sI14
F470.0
sI16
F1.0
sI27
F1.0
sI30
F1.0
ssbsg15
g0
(g16
g2
Ntp2449
Rp2450
(dp2451
g15
I1
sbsba(ics475_types
Instance
p2452
(dp2453
g10
(ics475_types
FeatureVector
p2454
(dp2455
g13
(dp2456
I33
F1.0
sI2
F48.17
sI3
F3.5
sI4
F1.0
sI5
F1.0
sI7
F1.0
sI8
F3.5
sI14
F230.0
sI16
F1.0
sI20
F1.0
sI21
F1.0
sI22
F1.0
sI37
F1.0
ssbsg15
g0
(g16
g2
Ntp2457
Rp2458
(dp2459
g15
I1
sbsba(ics475_types
Instance
p2460
(dp2461
g10
(ics475_types
FeatureVector
p2462
(dp2463
g13
(dp2464
I32
F1.0
sI2
F36.17
sI3
F5.5
sI4
F1.0
sI5
F1.0
sI8
F5.0
sI9
F1.0
sI13
F1.0
sI14
F210.0
sI15
F687.0
sI16
F1.0
sI20
F1.0
sI21
F1.0
sI25
F1.0
ssbsg15
g0
(g16
g2
Ntp2465
Rp2466
(dp2467
g15
I0
sbsba(ics475_types
Instance
p2468
(dp2469
g10
(ics475_types
FeatureVector
p2470
(dp2471
g13
(dp2472
I2
F24.58
sI3
F1.25
sI4
F1.0
sI5
F1.0
sI6
F1.0
sI7
F1.0
sI8
F0.25
sI9
F1.0
sI13
F1.0
sI14
F110.0
sI16
F1.0
sI20
F1.0
sI21
F1.0
ssbsg15
g0
(g16
g2
Ntp2473
Rp2474
(dp2475
g15
I0
sbsba(ics475_types
Instance
p2476
(dp2477
g10
(ics475_types
FeatureVector
p2478
(dp2479
g13
(dp2480
I1
F1.0
sI2
F52.17
sI20
F1.0
sI21
F1.0
sI24
F1.0
sI17
F1.0
sI23
F1.0
sI9
F1.0
sI18
F1.0
sI13
F1.0
ssbsg15
g0
(g16
g2
Ntp2481
Rp2482
(dp2483
g15
I0
sbsba(ics475_types
Instance
p2484
(dp2485
g10
(ics475_types
FeatureVector
p2486
(dp2487
g13
(dp2488
I1
F1.0
sI2
F18.25
sI3
F10.0
sI4
F1.0
sI5
F1.0
sI7
F1.0
sI8
F1.0
sI9
F1.0
sI10
F1.0
sI11
F1.0
sI13
F1.0
sI14
F120.0
sI15
F1.0
sI21
F1.0
sI31
F1.0
ssbsg15
g0
(g16
g2
Ntp2489
Rp2490
(dp2491
g15
I0
sbsba(ics475_types
Instance
p2492
(dp2493
g10
(ics475_types
FeatureVector
p2494
(dp2495
g13
(dp2496
I33
F1.0
sI2
F54.58
sI3
F9.415
sI4
F1.0
sI5
F1.0
sI8
F14.415
sI10
F1.0
sI11
F11.0
sI12
F1.0
sI13
F1.0
sI14
F30.0
sI15
F300.0
sI16
F1.0
sI23
F1.0
sI24
F1.0
ssbsg15
g0
(g16
g2
Ntp2497
Rp2498
(dp2499
g15
I1
sbsba(ics475_types
Instance
p2500
(dp2501
g10
(ics475_types
FeatureVector
p2502
(dp2503
g13
(dp2504
I2
F17.67
sI3
F4.46
sI4
F1.0
sI5
F1.0
sI6
F1.0
sI7
F1.0
sI8
F0.25
sI9
F1.0
sI14
F80.0
sI16
F1.0
sI20
F1.0
sI21
F1.0
sI22
F1.0
ssbsg15
g0
(g16
g2
Ntp2505
Rp2506
(dp2507
g15
I0
sbsba(ics475_types
Instance
p2508
(dp2509
g10
(ics475_types
FeatureVector
p2510
(dp2511
g13
(dp2512
I33
F1.0
sI2
F27.0
sI3
F0.75
sI4
F1.0
sI5
F1.0
sI6
F1.0
sI8
F4.25
sI10
F1.0
sI11
F3.0
sI12
F1.0
sI13
F1.0
sI14
F312.0
sI15
F150.0
sI16
F1.0
sI27
F1.0
ssbsg15
g0
(g16
g2
Ntp2513
Rp2514
(dp2515
g15
I1
sbsba(ics475_types
Instance
p2516
(dp2517
g10
(ics475_types
FeatureVector
p2518
(dp2519
g13
(dp2520
I33
F1.0
sI2
F59.5
sI3
F2.75
sI4
F1.0
sI5
F1.0
sI7
F1.0
sI8
F1.75
sI10
F1.0
sI11
F5.0
sI12
F1.0
sI13
F1.0
sI14
F60.0
sI15
F58.0
sI16
F1.0
sI31
F1.0
ssbsg15
g0
(g16
g2
Ntp2521
Rp2522
(dp2523
g15
I1
sbsba(ics475_types
Instance
p2524
(dp2525
g10
(ics475_types
FeatureVector
p2526
(dp2527
g13
(dp2528
I33
F1.0
sI2
F48.17
sI3
F7.625
sI4
F1.0
sI5
F1.0
sI8
F15.5
sI10
F1.0
sI11
F12.0
sI13
F1.0
sI15
F790.0
sI16
F1.0
sI21
F1.0
sI27
F1.0
sI31
F1.0
ssbsg15
g0
(g16
g2
Ntp2529
Rp2530
(dp2531
g15
I1
sbsba(ics475_types
Instance
p2532
(dp2533
g10
(ics475_types
FeatureVector
p2534
(dp2535
g13
(dp2536
I1
F1.0
sI2
F15.75
sI3
F0.375
sI4
F1.0
sI5
F1.0
sI6
F1.0
sI7
F1.0
sI8
F1.0
sI9
F1.0
sI13
F1.0
sI14
F120.0
sI15
F18.0
sI20
F1.0
sI21
F1.0
ssbsg15
g0
(g16
g2
Ntp2537
Rp2538
(dp2539
g15
I0
sbsba(ics475_types
Instance
p2540
(dp2541
g10
(ics475_types
FeatureVector
p2542
(dp2543
g13
(dp2544
I33
F1.0
sI2
F30.83
sI4
F1.0
sI5
F1.0
sI7
F1.0
sI8
F1.25
sI10
F1.0
sI11
F1.0
sI13
F1.0
sI14
F202.0
sI16
F1.0
sI21
F1.0
sI31
F1.0
ssbsg15
g0
(g16
g2
Ntp2545
Rp2546
(dp2547
g15
I1
sbsba(ics475_types
Instance
p2548
(dp2549
g10
(ics475_types
FeatureVector
p2550
(dp2551
g13
(dp2552
I2
F21.17
sI4
F1.0
sI5
F1.0
sI6
F1.0
sI7
F1.0
sI8
F0.5
sI9
F1.0
sI12
F1.0
sI16
F1.0
sI20
F1.0
sI22
F1.0
ssbsg15
g0
(g16
g2
Ntp2553
Rp2554
(dp2555
g15
I0
sbsba(ics475_types
Instance
p2556
(dp2557
g10
(ics475_types
FeatureVector
p2558
(dp2559
g13
(dp2560
I33
F1.0
sI2
F28.67
sI3
F9.335
sI4
F1.0
sI5
F1.0
sI8
F5.665
sI10
F1.0
sI11
F6.0
sI13
F1.0
sI14
F381.0
sI15
F168.0
sI16
F1.0
sI21
F1.0
sI27
F1.0
sI30
F1.0
ssbsg15
g0
(g16
g2
Ntp2561
Rp2562
(dp2563
g15
I1
sbsba(ics475_types
Instance
p2564
(dp2565
g10
(ics475_types
FeatureVector
p2566
(dp2567
g13
(dp2568
I2
F22.17
sI3
F2.25
sI4
F1.0
sI5
F1.0
sI7
F1.0
sI8
F0.125
sI9
F1.0
sI13
F1.0
sI14
F160.0
sI15
F10.0
sI16
F1.0
sI20
F1.0
sI21
F1.0
sI25
F1.0
ssbsg15
g0
(g16
g2
Ntp2569
Rp2570
(dp2571
g15
I0
sbsba(ics475_types
Instance
p2572
(dp2573
g10
(ics475_types
FeatureVector
p2574
(dp2575
g13
(dp2576
I33
F1.0
sI2
F44.0
sI3
F2.0
sI4
F1.0
sI5
F1.0
sI7
F1.0
sI8
F1.75
sI10
F1.0
sI11
F2.0
sI12
F1.0
sI13
F1.0
sI15
F15.0
sI16
F1.0
sI35
F1.0
ssbsg15
g0
(g16
g2
Ntp2577
Rp2578
(dp2579
g15
I1
sbsba(ics475_types
Instance
p2580
(dp2581
g10
(ics475_types
FeatureVector
p2582
(dp2583
g13
(dp2584
I1
F1.0
sI2
F33.67
sI3
F0.375
sI4
F1.0
sI5
F1.0
sI7
F1.0
sI8
F0.375
sI9
F1.0
sI13
F1.0
sI14
F300.0
sI15
F44.0
sI20
F1.0
sI21
F1.0
sI36
F1.0
ssbsg15
g0
(g16
g2
Ntp2585
Rp2586
(dp2587
g15
I1
sbsba(ics475_types
Instance
p2588
(dp2589
g10
(ics475_types
FeatureVector
p2590
(dp2591
g13
(dp2592
I1
F1.0
sI2
F56.83
sI3
F4.25
sI8
F5.0
sI9
F1.0
sI12
F1.0
sI13
F1.0
sI15
F4.0
sI17
F1.0
sI18
F1.0
sI20
F1.0
sI23
F1.0
sI24
F1.0
ssbsg15
g0
(g16
g2
Ntp2593
Rp2594
(dp2595
g15
I0
sbsba(ics475_types
Instance
p2596
(dp2597
g10
(ics475_types
FeatureVector
p2598
(dp2599
g13
(dp2600
I33
F1.0
sI2
F31.67
sI3
F0.83
sI4
F1.0
sI5
F1.0
sI7
F1.0
sI8
F1.335
sI10
F1.0
sI11
F8.0
sI12
F1.0
sI13
F1.0
sI14
F303.0
sI15
F3290.0
sI16
F1.0
sI39
F1.0
ssbsg15
g0
(g16
g2
Ntp2601
Rp2602
(dp2603
g15
I1
sbsba(ics475_types
Instance
p2604
(dp2605
g10
(ics475_types
FeatureVector
p2606
(dp2607
g13
(dp2608
I33
F1.0
sI2
F20.42
sI3
F7.0
sI4
F1.0
sI5
F1.0
sI6
F1.0
sI7
F1.0
sI8
F1.625
sI10
F1.0
sI11
F3.0
sI13
F1.0
sI14
F200.0
sI15
F1391.0
sI16
F1.0
sI21
F1.0
ssbsg15
g0
(g16
g2
Ntp2609
Rp2610
(dp2611
g15
I1
sbsba(ics475_types
Instance
p2612
(dp2613
g10
(ics475_types
FeatureVector
p2614
(dp2615
g13
(dp2616
I33
F1.0
sI2
F21.0
sI3
F3.0
sI7
F1.0
sI8
F1.085
sI10
F1.0
sI11
F8.0
sI12
F1.0
sI13
F1.0
sI14
F160.0
sI15
F1.0
sI16
F1.0
sI17
F1.0
sI18
F1.0
sI34
F1.0
ssbsg15
g0
(g16
g2
Ntp2617
Rp2618
(dp2619
g15
I1
sbsba(ics475_types
Instance
p2620
(dp2621
g10
(ics475_types
FeatureVector
p2622
(dp2623
g13
(dp2624
I32
F1.0
sI2
F39.92
sI3
F5.0
sI4
F1.0
sI5
F1.0
sI8
F0.21
sI9
F1.0
sI13
F1.0
sI14
F550.0
sI16
F1.0
sI20
F1.0
sI21
F1.0
sI25
F1.0
ssbsg15
g0
(g16
g2
Ntp2625
Rp2626
(dp2627
g15
I0
sbsba(ics475_types
Instance
p2628
(dp2629
g10
(ics475_types
FeatureVector
p2630
(dp2631
g13
(dp2632
I33
F1.0
sI2
F65.42
sI3
F11.0
sI4
F1.0
sI5
F1.0
sI8
F20.0
sI41
F1.0
sI10
F1.0
sI11
F7.0
sI12
F1.0
sI13
F1.0
sI14
F22.0
sI16
F1.0
sI42
F1.0
ssbsg15
g0
(g16
g2
Ntp2633
Rp2634
(dp2635
g15
I1
sbsba(ics475_types
Instance
p2636
(dp2637
g10
(ics475_types
FeatureVector
p2638
(dp2639
g13
(dp2640
I33
F1.0
sI2
F43.08
sI3
F0.375
sI6
F1.0
sI7
F1.0
sI8
F0.375
sI10
F1.0
sI11
F8.0
sI12
F1.0
sI13
F1.0
sI14
F300.0
sI15
F162.0
sI16
F1.0
sI17
F1.0
sI18
F1.0
ssbsg15
g0
(g16
g2
Ntp2641
Rp2642
(dp2643
g15
I1
sbsba(ics475_types
Instance
p2644
(dp2645
g10
(ics475_types
FeatureVector
p2646
(dp2647
g13
(dp2648
I2
F31.0
sI3
F2.085
sI4
F1.0
sI5
F1.0
sI6
F1.0
sI7
F1.0
sI8
F0.085
sI9
F1.0
sI13
F1.0
sI14
F300.0
sI16
F1.0
sI20
F1.0
sI21
F1.0
ssbsg15
g0
(g16
g2
Ntp2649
Rp2650
(dp2651
g15
I0
sbsba(ics475_types
Instance
p2652
(dp2653
g10
(ics475_types
FeatureVector
p2654
(dp2655
g13
(dp2656
I1
F1.0
sI2
F22.42
sI3
F11.25
sI33
F1.0
sI8
F0.75
sI10
F1.0
sI11
F4.0
sI13
F1.0
sI15
F321.0
sI17
F1.0
sI18
F1.0
sI21
F1.0
sI39
F1.0
sI27
F1.0
ssbsg15
g0
(g16
g2
Ntp2657
Rp2658
(dp2659
g15
I1
sbsba(ics475_types
Instance
p2660
(dp2661
g10
(ics475_types
FeatureVector
p2662
(dp2663
g13
(dp2664
I2
F22.17
sI3
F12.125
sI4
F1.0
sI5
F1.0
sI6
F1.0
sI7
F1.0
sI8
F3.335
sI9
F1.0
sI10
F1.0
sI11
F2.0
sI12
F1.0
sI13
F1.0
sI14
F180.0
sI15
F173.0
sI16
F1.0
ssbsg15
g0
(g16
g2
Ntp2665
Rp2666
(dp2667
g15
I0
sbsba(ics475_types
Instance
p2668
(dp2669
g10
(ics475_types
FeatureVector
p2670
(dp2671
g13
(dp2672
I1
F1.0
sI2
F20.83
sI3
F0.5
sI8
F1.0
sI9
F1.0
sI43
F1.0
sI13
F1.0
sI14
F260.0
sI17
F1.0
sI18
F1.0
sI20
F1.0
sI21
F1.0
sI41
F1.0
ssbsg15
g0
(g16
g2
Ntp2673
Rp2674
(dp2675
g15
I0
sbsba(ics475_types
Instance
p2676
(dp2677
g10
(ics475_types
FeatureVector
p2678
(dp2679
g13
(dp2680
I1
F1.0
sI2
F40.33
sI3
F7.54
sI33
F1.0
sI8
F8.0
sI10
F1.0
sI11
F14.0
sI13
F1.0
sI15
F2300.0
sI17
F1.0
sI18
F1.0
sI21
F1.0
sI27
F1.0
sI30
F1.0
ssbsg15
g0
(g16
g2
Ntp2681
Rp2682
(dp2683
g15
I1
sbsba(ics475_types
Instance
p2684
(dp2685
g10
(ics475_types
FeatureVector
p2686
(dp2687
g13
(dp2688
I32
F1.0
sI33
F1.0
sI2
F23.25
sI3
F4.0
sI4
F1.0
sI5
F1.0
sI6
F1.0
sI8
F0.25
sI12
F1.0
sI13
F1.0
sI14
F160.0
sI16
F1.0
sI20
F1.0
ssbsg15
g0
(g16
g2
Ntp2689
Rp2690
(dp2691
g15
I1
sbsba(ics475_types
Instance
p2692
(dp2693
g10
(ics475_types
FeatureVector
p2694
(dp2695
g13
(dp2696
I2
F16.17
sI3
F0.04
sI4
F1.0
sI5
F1.0
sI6
F1.0
sI7
F1.0
sI8
F0.04
sI9
F1.0
sI13
F1.0
sI16
F1.0
sI20
F1.0
sI21
F1.0
ssbsg15
g0
(g16
g2
Ntp2697
Rp2698
(dp2699
g15
I1
sbsba(ics475_types
Instance
p2700
(dp2701
g10
(ics475_types
FeatureVector
p2702
(dp2703
g13
(dp2704
I1
F1.0
sI2
F19.75
sI3
F0.75
sI4
F1.0
sI5
F1.0
sI6
F1.0
sI7
F1.0
sI8
F0.795
sI10
F1.0
sI11
F5.0
sI12
F1.0
sI13
F1.0
sI14
F140.0
sI15
F5.0
sI33
F1.0
ssbsg15
g0
(g16
g2
Ntp2705
Rp2706
(dp2707
g15
I0
sbsba(ics475_types
Instance
p2708
(dp2709
g10
(ics475_types
FeatureVector
p2710
(dp2711
g13
(dp2712
I33
F1.0
sI2
F39.58
sI3
F13.915
sI4
F1.0
sI5
F1.0
sI7
F1.0
sI8
F8.625
sI10
F1.0
sI11
F6.0
sI12
F1.0
sI13
F1.0
sI14
F70.0
sI16
F1.0
sI31
F1.0
ssbsg15
g0
(g16
g2
Ntp2713
Rp2714
(dp2715
g15
I1
sbsba(ics475_types
Instance
p2716
(dp2717
g10
(ics475_types
FeatureVector
p2718
(dp2719
g13
(dp2720
I33
F1.0
sI2
F21.92
sI3
F0.54
sI7
F1.0
sI8
F0.04
sI10
F1.0
sI11
F1.0
sI12
F1.0
sI13
F1.0
sI14
F840.0
sI15
F59.0
sI16
F1.0
sI17
F1.0
sI18
F1.0
sI39
F1.0
ssbsg15
g0
(g16
g2
Ntp2721
Rp2722
(dp2723
g15
I1
sbsba(ics475_types
Instance
p2724
(dp2725
g10
(ics475_types
FeatureVector
p2726
(dp2727
g13
(dp2728
I2
F23.42
sI3
F1.0
sI4
F1.0
sI5
F1.0
sI6
F1.0
sI7
F1.0
sI8
F0.5
sI9
F1.0
sI12
F1.0
sI14
F280.0
sI16
F1.0
sI20
F1.0
sI22
F1.0
ssbsg15
g0
(g16
g2
Ntp2729
Rp2730
(dp2731
g15
I0
sbsba(ics475_types
Instance
p2732
(dp2733
g10
(ics475_types
FeatureVector
p2734
(dp2735
g13
(dp2736
I33
F1.0
sI2
F27.25
sI3
F1.585
sI4
F1.0
sI5
F1.0
sI8
F1.835
sI10
F1.0
sI11
F12.0
sI12
F1.0
sI13
F1.0
sI14
F583.0
sI15
F713.0
sI16
F1.0
sI36
F1.0
sI27
F1.0
ssbsg15
g0
(g16
g2
Ntp2737
Rp2738
(dp2739
g15
I1
sbsba(ics475_types
Instance
p2740
(dp2741
g10
(ics475_types
FeatureVector
p2742
(dp2743
g13
(dp2744
I33
F1.0
sI2
F64.08
sI3
F20.0
sI4
F1.0
sI5
F1.0
sI39
F1.0
sI8
F17.5
sI10
F1.0
sI11
F9.0
sI12
F1.0
sI13
F1.0
sI15
F1000.0
sI16
F1.0
sI27
F1.0
ssbsg15
g0
(g16
g2
Ntp2745
Rp2746
(dp2747
g15
I1
sbsba(ics475_types
Instance
p2748
(dp2749
g10
(ics475_types
FeatureVector
p2750
(dp2751
g13
(dp2752
I33
F1.0
sI2
F16.08
sI3
F0.75
sI4
F1.0
sI5
F1.0
sI6
F1.0
sI7
F1.0
sI8
F1.75
sI10
F1.0
sI11
F5.0
sI12
F1.0
sI13
F1.0
sI14
F352.0
sI15
F690.0
sI16
F1.0
ssbsg15
g0
(g16
g2
Ntp2753
Rp2754
(dp2755
g15
I1
sbsba(ics475_types
Instance
p2756
(dp2757
g10
(ics475_types
FeatureVector
p2758
(dp2759
g13
(dp2760
I2
F31.58
sI3
F0.75
sI37
F1.0
sI7
F1.0
sI8
F3.5
sI9
F1.0
sI12
F1.0
sI13
F1.0
sI14
F320.0
sI16
F1.0
sI17
F1.0
sI18
F1.0
sI20
F1.0
ssbsg15
g0
(g16
g2
Ntp2761
Rp2762
(dp2763
g15
I0
sbsba(ics475_types
Instance
p2764
(dp2765
g10
(ics475_types
FeatureVector
p2766
(dp2767
g13
(dp2768
I33
F1.0
sI2
F25.17
sI3
F3.5
sI4
F1.0
sI5
F1.0
sI7
F1.0
sI8
F0.625
sI10
F1.0
sI11
F7.0
sI13
F1.0
sI15
F7059.0
sI16
F1.0
sI21
F1.0
sI36
F1.0
ssbsg15
g0
(g16
g2
Ntp2769
Rp2770
(dp2771
g15
I1
sbsba(ics475_types
Instance
p2772
(dp2773
g10
(ics475_types
FeatureVector
p2774
(dp2775
g13
(dp2776
I33
F1.0
sI2
F20.5
sI3
F2.415
sI4
F1.0
sI5
F1.0
sI6
F1.0
sI7
F1.0
sI8
F2.0
sI10
F1.0
sI11
F11.0
sI12
F1.0
sI13
F1.0
sI14
F200.0
sI15
F3000.0
sI16
F1.0
ssbsg15
g0
(g16
g2
Ntp2777
Rp2778
(dp2779
g15
I1
sbsba(ics475_types
Instance
p2780
(dp2781
g10
(ics475_types
FeatureVector
p2782
(dp2783
g13
(dp2784
I32
F1.0
sI1
F1.0
sI2
F28.58
sI3
F3.54
sI4
F1.0
sI5
F1.0
sI33
F1.0
sI8
F0.5
sI12
F1.0
sI13
F1.0
sI14
F171.0
sI20
F1.0
sI25
F1.0
ssbsg15
g0
(g16
g2
Ntp2785
Rp2786
(dp2787
g15
I0
sbsba(ics475_types
Instance
p2788
(dp2789
g10
(ics475_types
FeatureVector
p2790
(dp2791
g13
(dp2792
I2
F16.33
sI3
F4.085
sI4
F1.0
sI5
F1.0
sI8
F0.415
sI9
F1.0
sI12
F1.0
sI13
F1.0
sI14
F120.0
sI16
F1.0
sI20
F1.0
sI25
F1.0
sI27
F1.0
ssbsg15
g0
(g16
g2
Ntp2793
Rp2794
(dp2795
g15
I0
sbsba(ics475_types
Instance
p2796
(dp2797
g10
(ics475_types
FeatureVector
p2798
(dp2799
g13
(dp2800
I2
F22.67
sI3
F0.165
sI4
F1.0
sI5
F1.0
sI6
F1.0
sI8
F2.25
sI9
F1.0
sI12
F1.0
sI16
F1.0
sI20
F1.0
sI22
F1.0
sI29
F1.0
ssbsg15
g0
(g16
g2
Ntp2801
Rp2802
(dp2803
g15
I1
sbsba(ics475_types
Instance
p2804
(dp2805
g10
(ics475_types
FeatureVector
p2806
(dp2807
g13
(dp2808
I2
F18.83
sI4
F1.0
sI5
F1.0
sI7
F1.0
sI8
F0.665
sI9
F1.0
sI13
F1.0
sI14
F160.0
sI15
F1.0
sI16
F1.0
sI20
F1.0
sI21
F1.0
sI30
F1.0
ssbsg15
g0
(g16
g2
Ntp2809
Rp2810
(dp2811
g15
I0
sbsba(ics475_types
Instance
p2812
(dp2813
g10
(ics475_types
FeatureVector
p2814
(dp2815
g13
(dp2816
I1
F1.0
sI2
F16.33
sI3
F0.21
sI4
F1.0
sI5
F1.0
sI7
F1.0
sI8
F0.125
sI9
F1.0
sI13
F1.0
sI14
F200.0
sI15
F1.0
sI20
F1.0
sI21
F1.0
sI37
F1.0
ssbsg15
g0
(g16
g2
Ntp2817
Rp2818
(dp2819
g15
I0
sbsba(ics475_types
Instance
p2820
(dp2821
g10
(ics475_types
FeatureVector
p2822
(dp2823
g13
(dp2824
I1
F1.0
sI2
F64.08
sI3
F0.165
sI4
F1.0
sI5
F1.0
sI33
F1.0
sI10
F1.0
sI11
F1.0
sI13
F1.0
sI14
F232.0
sI15
F100.0
sI21
F1.0
sI23
F1.0
sI24
F1.0
ssbsg15
g0
(g16
g2
Ntp2825
Rp2826
(dp2827
g15
I1
sbsba(ics475_types
Instance
p2828
(dp2829
g10
(ics475_types
FeatureVector
p2830
(dp2831
g13
(dp2832
I1
F1.0
sI2
F37.33
sI3
F2.5
sI4
F1.0
sI5
F1.0
sI8
F0.21
sI9
F1.0
sI13
F1.0
sI14
F260.0
sI15
F246.0
sI20
F1.0
sI21
F1.0
sI25
F1.0
sI27
F1.0
ssbsg15
g0
(g16
g2
Ntp2833
Rp2834
(dp2835
g15
I0
sbsba(ics475_types
Instance
p2836
(dp2837
g10
(ics475_types
FeatureVector
p2838
(dp2839
g13
(dp2840
I33
F1.0
sI2
F32.83
sI3
F2.5
sI4
F1.0
sI5
F1.0
sI8
F2.75
sI10
F1.0
sI11
F6.0
sI13
F1.0
sI14
F160.0
sI15
F2072.0
sI16
F1.0
sI21
F1.0
sI36
F1.0
sI27
F1.0
ssbsg15
g0
(g16
g2
Ntp2841
Rp2842
(dp2843
g15
I1
sbsba(ics475_types
Instance
p2844
(dp2845
g10
(ics475_types
FeatureVector
p2846
(dp2847
g13
(dp2848
I32
F1.0
sI33
F1.0
sI2
F47.67
sI3
F2.5
sI4
F1.0
sI5
F1.0
sI8
F2.5
sI10
F1.0
sI11
F12.0
sI12
F1.0
sI13
F1.0
sI14
F410.0
sI15
F2510.0
sI16
F1.0
sI35
F1.0
ssbsg15
g0
(g16
g2
Ntp2849
Rp2850
(dp2851
g15
I1
sbsba(ics475_types
Instance
p2852
(dp2853
g10
(ics475_types
FeatureVector
p2854
(dp2855
g13
(dp2856
I1
F1.0
sI2
F50.08
sI3
F12.54
sI4
F1.0
sI5
F1.0
sI7
F1.0
sI8
F2.29
sI10
F1.0
sI11
F3.0
sI12
F1.0
sI13
F1.0
sI14
F156.0
sI33
F1.0
sI37
F1.0
ssbsg15
g0
(g16
g2
Ntp2857
Rp2858
(dp2859
g15
I1
sbsba(ics475_types
Instance
p2860
(dp2861
g10
(ics475_types
FeatureVector
p2862
(dp2863
g13
(dp2864
I33
F1.0
sI2
F28.33
sI3
F5.0
sI4
F1.0
sI5
F1.0
sI7
F1.0
sI8
F11.0
sI12
F1.0
sI13
F1.0
sI14
F70.0
sI16
F1.0
sI20
F1.0
sI31
F1.0
ssbsg15
g0
(g16
g2
Ntp2865
Rp2866
(dp2867
g15
I1
sbsba(ics475_types
Instance
p2868
(dp2869
g10
(ics475_types
FeatureVector
p2870
(dp2871
g13
(dp2872
I33
F1.0
sI2
F29.67
sI3
F1.415
sI4
F1.0
sI5
F1.0
sI8
F0.75
sI10
F1.0
sI11
F1.0
sI13
F1.0
sI14
F240.0
sI15
F100.0
sI16
F1.0
sI21
F1.0
sI27
F1.0
sI31
F1.0
ssbsg15
g0
(g16
g2
Ntp2873
Rp2874
(dp2875
g15
I1
sbsba(ics475_types
Instance
p2876
(dp2877
g10
(ics475_types
FeatureVector
p2878
(dp2879
g13
(dp2880
I33
F1.0
sI2
F42.83
sI3
F4.625
sI4
F1.0
sI5
F1.0
sI7
F1.0
sI8
F4.58
sI16
F1.0
sI20
F1.0
sI21
F1.0
sI22
F1.0
sI30
F1.0
ssbsg15
g0
(g16
g2
Ntp2881
Rp2882
(dp2883
g15
I1
sbsba(ics475_types
Instance
p2884
(dp2885
g10
(ics475_types
FeatureVector
p2886
(dp2887
g13
(dp2888
I1
F1.0
sI2
F28.5
sI3
F3.04
sI33
F1.0
sI8
F2.54
sI10
F1.0
sI11
F1.0
sI13
F1.0
sI14
F70.0
sI17
F1.0
sI18
F1.0
sI21
F1.0
sI39
F1.0
sI27
F1.0
ssbsg15
g0
(g16
g2
Ntp2889
Rp2890
(dp2891
g15
I1
sbsba(ics475_types
Instance
p2892
(dp2893
g10
(ics475_types
FeatureVector
p2894
(dp2895
g13
(dp2896
I2
F23.25
sI3
F12.625
sI4
F1.0
sI5
F1.0
sI6
F1.0
sI7
F1.0
sI8
F0.125
sI9
F1.0
sI10
F1.0
sI11
F2.0
sI13
F1.0
sI15
F5552.0
sI16
F1.0
sI21
F1.0
ssbsg15
g0
(g16
g2
Ntp2897
Rp2898
(dp2899
g15
I0
sbsba(ics475_types
Instance
p2900
(dp2901
g10
(ics475_types
FeatureVector
p2902
(dp2903
g13
(dp2904
I2
F47.33
sI3
F6.5
sI4
F1.0
sI5
F1.0
sI6
F1.0
sI7
F1.0
sI8
F1.0
sI9
F1.0
sI12
F1.0
sI13
F1.0
sI15
F228.0
sI16
F1.0
sI20
F1.0
ssbsg15
g0
(g16
g2
Ntp2905
Rp2906
(dp2907
g15
I0
sbsba(ics475_types
Instance
p2908
(dp2909
g10
(ics475_types
FeatureVector
p2910
(dp2911
g13
(dp2912
I2
F16.5
sI3
F0.125
sI4
F1.0
sI5
F1.0
sI6
F1.0
sI7
F1.0
sI8
F0.165
sI9
F1.0
sI13
F1.0
sI14
F132.0
sI16
F1.0
sI20
F1.0
sI21
F1.0
ssbsg15
g0
(g16
g2
Ntp2913
Rp2914
(dp2915
g15
I0
sbsba(ics475_types
Instance
p2916
(dp2917
g10
(ics475_types
FeatureVector
p2918
(dp2919
g13
(dp2920
I2
F33.0
sI3
F2.5
sI7
F1.0
sI8
F7.0
sI9
F1.0
sI12
F1.0
sI13
F1.0
sI14
F280.0
sI16
F1.0
sI17
F1.0
sI18
F1.0
sI20
F1.0
sI31
F1.0
ssbsg15
g0
(g16
g2
Ntp2921
Rp2922
(dp2923
g15
I0
sbsba(ics475_types
Instance
p2924
(dp2925
g10
(ics475_types
FeatureVector
p2926
(dp2927
g13
(dp2928
I33
F1.0
sI2
F27.83
sI3
F1.54
sI4
F1.0
sI5
F1.0
sI7
F1.0
sI8
F3.75
sI10
F1.0
sI11
F5.0
sI12
F1.0
sI13
F1.0
sI14
F100.0
sI15
F3.0
sI16
F1.0
sI31
F1.0
ssbsg15
g0
(g16
g2
Ntp2929
Rp2930
(dp2931
g15
I1
sbsba(ics475_types
Instance
p2932
(dp2933
g10
(ics475_types
FeatureVector
p2934
(dp2935
g13
(dp2936
I2
F21.17
sI3
F0.875
sI6
F1.0
sI8
F0.25
sI9
F1.0
sI13
F1.0
sI14
F280.0
sI15
F204.0
sI16
F1.0
sI17
F1.0
sI18
F1.0
sI20
F1.0
sI21
F1.0
sI27
F1.0
ssbsg15
g0
(g16
g2
Ntp2937
Rp2938
(dp2939
g15
I0
sbsba(ics475_types
Instance
p2940
(dp2941
g10
(ics475_types
FeatureVector
p2942
(dp2943
g13
(dp2944
I33
F1.0
sI2
F22.67
sI3
F2.54
sI6
F1.0
sI8
F2.585
sI13
F1.0
sI16
F1.0
sI17
F1.0
sI18
F1.0
sI20
F1.0
sI21
F1.0
sI27
F1.0
ssbsg15
g0
(g16
g2
Ntp2945
Rp2946
(dp2947
g15
I1
sbsba(ics475_types
Instance
p2948
(dp2949
g10
(ics475_types
FeatureVector
p2950
(dp2951
g13
(dp2952
I2
F19.0
sI9
F1.0
sI10
F1.0
sI11
F4.0
sI13
F1.0
sI14
F45.0
sI15
F1.0
sI16
F1.0
sI17
F1.0
sI18
F1.0
sI21
F1.0
sI23
F1.0
sI24
F1.0
ssbsg15
g0
(g16
g2
Ntp2953
Rp2954
(dp2955
g15
I0
sbsba(ics475_types
Instance
p2956
(dp2957
g10
(ics475_types
FeatureVector
p2958
(dp2959
g13
(dp2960
I33
F1.0
sI2
F39.17
sI3
F1.71
sI4
F1.0
sI5
F1.0
sI7
F1.0
sI8
F0.125
sI10
F1.0
sI11
F5.0
sI12
F1.0
sI13
F1.0
sI14
F480.0
sI16
F1.0
sI39
F1.0
ssbsg15
g0
(g16
g2
Ntp2961
Rp2962
(dp2963
g15
I1
sbsba(ics475_types
Instance
p2964
(dp2965
g10
(ics475_types
FeatureVector
p2966
(dp2967
g13
(dp2968
I2
F19.58
sI3
F0.585
sI4
F1.0
sI5
F1.0
sI9
F1.0
sI10
F1.0
sI11
F3.0
sI13
F1.0
sI14
F350.0
sI15
F769.0
sI16
F1.0
sI21
F1.0
sI23
F1.0
sI24
F1.0
ssbsg15
g0
(g16
g2
Ntp2969
Rp2970
(dp2971
g15
I0
sbsba(ics475_types
Instance
p2972
(dp2973
g10
(ics475_types
FeatureVector
p2974
(dp2975
g13
(dp2976
I33
F1.0
sI2
F42.17
sI3
F5.04
sI4
F1.0
sI5
F1.0
sI8
F12.75
sI12
F1.0
sI13
F1.0
sI14
F92.0
sI16
F1.0
sI20
F1.0
sI27
F1.0
sI30
F1.0
ssbsg15
g0
(g16
g2
Ntp2977
Rp2978
(dp2979
g15
I1
sbsba(ics475_types
Instance
p2980
(dp2981
g10
(ics475_types
FeatureVector
p2982
(dp2983
g13
(dp2984
I33
F1.0
sI2
F54.83
sI3
F15.5
sI4
F1.0
sI5
F1.0
sI41
F1.0
sI10
F1.0
sI11
F20.0
sI13
F1.0
sI14
F152.0
sI15
F130.0
sI16
F1.0
sI21
F1.0
sI42
F1.0
ssbsg15
g0
(g16
g2
Ntp2985
Rp2986
(dp2987
g15
I0
sbsba(ics475_types
Instance
p2988
(dp2989
g10
(ics475_types
FeatureVector
p2990
(dp2991
g13
(dp2992
I1
F1.0
sI2
F36.58
sI3
F0.29
sI4
F1.0
sI5
F1.0
sI9
F1.0
sI10
F1.0
sI11
F10.0
sI13
F1.0
sI14
F200.0
sI15
F18.0
sI21
F1.0
sI23
F1.0
sI24
F1.0
ssbsg15
g0
(g16
g2
Ntp2993
Rp2994
(dp2995
g15
I0
sbsba(ics475_types
Instance
p2996
(dp2997
g10
(ics475_types
FeatureVector
p2998
(dp2999
g13
(dp3000
I2
F18.33
sI3
F1.21
sI9
F1.0
sI43
F1.0
sI13
F1.0
sI14
F100.0
sI16
F1.0
sI17
F1.0
sI18
F1.0
sI20
F1.0
sI21
F1.0
sI41
F1.0
ssbsg15
g0
(g16
g2
Ntp3001
Rp3002
(dp3003
g15
I0
sbsba(ics475_types
Instance
p3004
(dp3005
g10
(ics475_types
FeatureVector
p3006
(dp3007
g13
(dp3008
I2
F34.08
sI3
F2.5
sI4
F1.0
sI5
F1.0
sI6
F1.0
sI7
F1.0
sI8
F1.0
sI9
F1.0
sI13
F1.0
sI14
F460.0
sI15
F16.0
sI16
F1.0
sI20
F1.0
sI21
F1.0
ssbsg15
g0
(g16
g2
Ntp3009
Rp3010
(dp3011
g15
I0
sbsba(ics475_types
Instance
p3012
(dp3013
g10
(ics475_types
FeatureVector
p3014
(dp3015
g13
(dp3016
I2
F25.25
sI3
F1.0
sI4
F1.0
sI5
F1.0
sI7
F1.0
sI8
F0.5
sI9
F1.0
sI13
F1.0
sI14
F200.0
sI16
F1.0
sI20
F1.0
sI21
F1.0
sI37
F1.0
ssbsg15
g0
(g16
g2
Ntp3017
Rp3018
(dp3019
g15
I0
sbsba(ics475_types
Instance
p3020
(dp3021
g10
(ics475_types
FeatureVector
p3022
(dp3023
g13
(dp3024
I33
F1.0
sI2
F39.25
sI3
F9.5
sI4
F1.0
sI5
F1.0
sI7
F1.0
sI8
F6.5
sI10
F1.0
sI11
F14.0
sI13
F1.0
sI14
F240.0
sI15
F4607.0
sI16
F1.0
sI35
F1.0
sI21
F1.0
ssbsg15
g0
(g16
g2
Ntp3025
Rp3026
(dp3027
g15
I1
sbsba(ics475_types
Instance
p3028
(dp3029
g10
(ics475_types
FeatureVector
p3030
(dp3031
g13
(dp3032
I2
F20.0
sI3
F11.045
sI4
F1.0
sI5
F1.0
sI6
F1.0
sI7
F1.0
sI8
F2.0
sI9
F1.0
sI12
F1.0
sI13
F1.0
sI14
F136.0
sI16
F1.0
sI20
F1.0
ssbsg15
g0
(g16
g2
Ntp3033
Rp3034
(dp3035
g15
I0
sbsba(ics475_types
Instance
p3036
(dp3037
g10
(ics475_types
FeatureVector
p3038
(dp3039
g13
(dp3040
I1
F1.0
sI2
F24.5
sI3
F0.5
sI4
F1.0
sI5
F1.0
sI33
F1.0
sI8
F1.5
sI13
F1.0
sI14
F280.0
sI15
F824.0
sI20
F1.0
sI21
F1.0
sI27
F1.0
sI30
F1.0
ssbsg15
g0
(g16
g2
Ntp3041
Rp3042
(dp3043
g15
I1
sbsba(ics475_types
Instance
p3044
(dp3045
g10
(ics475_types
FeatureVector
p3046
(dp3047
g13
(dp3048
I2
F23.75
sI3
F0.415
sI6
F1.0
sI7
F1.0
sI8
F0.04
sI9
F1.0
sI10
F1.0
sI11
F2.0
sI13
F1.0
sI14
F128.0
sI15
F6.0
sI16
F1.0
sI17
F1.0
sI18
F1.0
sI21
F1.0
ssbsg15
g0
(g16
g2
Ntp3049
Rp3050
(dp3051
g15
I0
sbsba(ics475_types
Instance
p3052
(dp3053
g10
(ics475_types
FeatureVector
p3054
(dp3055
g13
(dp3056
I33
F1.0
sI2
F21.33
sI3
F7.5
sI4
F1.0
sI5
F1.0
sI7
F1.0
sI8
F1.415
sI10
F1.0
sI11
F1.0
sI13
F1.0
sI14
F80.0
sI15
F9800.0
sI16
F1.0
sI21
F1.0
sI37
F1.0
ssbsg15
g0
(g16
g2
Ntp3057
Rp3058
(dp3059
g15
I1
sbsba(ics475_types
Instance
p3060
(dp3061
g10
(ics475_types
FeatureVector
p3062
(dp3063
g13
(dp3064
I1
F1.0
sI2
F30.58
sI3
F10.665
sI4
F1.0
sI5
F1.0
sI8
F0.085
sI9
F1.0
sI10
F1.0
sI11
F12.0
sI12
F1.0
sI13
F1.0
sI14
F129.0
sI15
F3.0
sI27
F1.0
sI30
F1.0
ssbsg15
g0
(g16
g2
Ntp3065
Rp3066
(dp3067
g15
I0
sbsba(ics475_types
Instance
p3068
(dp3069
g10
(ics475_types
FeatureVector
p3070
(dp3071
g13
(dp3072
I2
F40.58
sI3
F3.29
sI4
F1.0
sI5
F1.0
sI7
F1.0
sI8
F3.5
sI9
F1.0
sI12
F1.0
sI14
F400.0
sI16
F1.0
sI35
F1.0
sI20
F1.0
sI22
F1.0
ssbsg15
g0
(g16
g2
Ntp3073
Rp3074
(dp3075
g15
I0
sbsba(ics475_types
Instance
p3076
(dp3077
g10
(ics475_types
FeatureVector
p3078
(dp3079
g13
(dp3080
I2
F31.08
sI3
F3.085
sI4
F1.0
sI5
F1.0
sI6
F1.0
sI7
F1.0
sI8
F2.5
sI9
F1.0
sI10
F1.0
sI11
F2.0
sI12
F1.0
sI13
F1.0
sI14
F160.0
sI15
F41.0
sI16
F1.0
ssbsg15
g0
(g16
g2
Ntp3081
Rp3082
(dp3083
g15
I0
sbsba(ics475_types
Instance
p3084
(dp3085
g10
(ics475_types
FeatureVector
p3086
(dp3087
g13
(dp3088
I1
F1.0
sI2
F17.67
sI9
F1.0
sI13
F1.0
sI14
F86.0
sI17
F1.0
sI18
F1.0
sI20
F1.0
sI21
F1.0
sI24
F1.0
sI28
F1.0
ssbsg15
g0
(g16
g2
Ntp3089
Rp3090
(dp3091
g15
I0
sbsba(ics475_types
Instance
p3092
(dp3093
g10
(ics475_types
FeatureVector
p3094
(dp3095
g13
(dp3096
I32
F1.0
sI33
F1.0
sI2
F40.0
sI3
F6.5
sI4
F1.0
sI5
F1.0
sI8
F3.5
sI10
F1.0
sI11
F1.0
sI13
F1.0
sI15
F500.0
sI16
F1.0
sI21
F1.0
sI37
F1.0
ssbsg15
g0
(g16
g2
Ntp3097
Rp3098
(dp3099
g15
I1
sbsba(ics475_types
Instance
p3100
(dp3101
g10
(ics475_types
FeatureVector
p3102
(dp3103
g13
(dp3104
I1
F1.0
sI2
F16.08
sI3
F0.335
sI4
F1.0
sI5
F1.0
sI9
F1.0
sI10
F1.0
sI11
F1.0
sI13
F1.0
sI14
F160.0
sI15
F126.0
sI21
F1.0
sI23
F1.0
sI24
F1.0
ssbsg15
g0
(g16
g2
Ntp3105
Rp3106
(dp3107
g15
I0
sbsba(ics475_types
Instance
p3108
(dp3109
g10
(ics475_types
FeatureVector
p3110
(dp3111
g13
(dp3112
I33
F1.0
sI2
F44.25
sI3
F0.5
sI4
F1.0
sI5
F1.0
sI7
F1.0
sI8
F10.75
sI14
F400.0
sI16
F1.0
sI35
F1.0
sI20
F1.0
sI21
F1.0
sI22
F1.0
ssbsg15
g0
(g16
g2
Ntp3113
Rp3114
(dp3115
g15
I0
sbsba(ics475_types
Instance
p3116
(dp3117
g10
(ics475_types
FeatureVector
p3118
(dp3119
g13
(dp3120
I32
F1.0
sI33
F1.0
sI2
F34.25
sI3
F1.75
sI4
F1.0
sI5
F1.0
sI8
F0.25
sI12
F1.0
sI13
F1.0
sI14
F163.0
sI16
F1.0
sI20
F1.0
sI31
F1.0
ssbsg15
g0
(g16
g2
Ntp3121
Rp3122
(dp3123
g15
I0
sbsba(ics475_types
Instance
p3124
(dp3125
g10
(ics475_types
FeatureVector
p3126
(dp3127
g13
(dp3128
I2
F22.0
sI3
F0.79
sI4
F1.0
sI5
F1.0
sI7
F1.0
sI8
F0.29
sI9
F1.0
sI10
F1.0
sI11
F1.0
sI13
F1.0
sI14
F420.0
sI15
F283.0
sI16
F1.0
sI21
F1.0
sI31
F1.0
ssbsg15
g0
(g16
g2
Ntp3129
Rp3130
(dp3131
g15
I0
sbsba(ics475_types
Instance
p3132
(dp3133
g10
(ics475_types
FeatureVector
p3134
(dp3135
g13
(dp3136
I33
F1.0
sI2
F13.75
sI3
F4.0
sI7
F1.0
sI8
F1.75
sI10
F1.0
sI11
F2.0
sI12
F1.0
sI13
F1.0
sI14
F120.0
sI15
F1000.0
sI16
F1.0
sI17
F1.0
sI18
F1.0
sI31
F1.0
ssbsg15
g0
(g16
g2
Ntp3137
Rp3138
(dp3139
g15
I1
sbsba(ics475_types
Instance
p3140
(dp3141
g10
(ics475_types
FeatureVector
p3142
(dp3143
g13
(dp3144
I2
F19.17
sI3
F4.0
sI7
F1.0
sI8
F1.0
sI9
F1.0
sI12
F1.0
sI13
F1.0
sI14
F360.0
sI15
F1000.0
sI16
F1.0
sI17
F1.0
sI18
F1.0
sI20
F1.0
sI25
F1.0
ssbsg15
g0
(g16
g2
Ntp3145
Rp3146
(dp3147
g15
I0
sbsba(ics475_types
Instance
p3148
(dp3149
g10
(ics475_types
FeatureVector
p3150
(dp3151
g13
(dp3152
I1
F1.0
sI2
F28.58
sI3
F3.75
sI4
F1.0
sI5
F1.0
sI6
F1.0
sI7
F1.0
sI8
F0.25
sI9
F1.0
sI10
F1.0
sI11
F1.0
sI12
F1.0
sI13
F1.0
sI14
F40.0
sI15
F154.0
ssbsg15
g0
(g16
g2
Ntp3153
Rp3154
(dp3155
g15
I0
sbsba(ics475_types
Instance
p3156
(dp3157
g10
(ics475_types
FeatureVector
p3158
(dp3159
g13
(dp3160
I33
F1.0
sI2
F43.25
sI3
F3.0
sI4
F1.0
sI5
F1.0
sI8
F6.0
sI10
F1.0
sI11
F11.0
sI13
F1.0
sI14
F80.0
sI16
F1.0
sI21
F1.0
sI27
F1.0
sI30
F1.0
ssbsg15
g0
(g16
g2
Ntp3161
Rp3162
(dp3163
g15
I1
sbsba(ics475_types
Instance
p3164
(dp3165
g10
(ics475_types
FeatureVector
p3166
(dp3167
g13
(dp3168
I33
F1.0
sI2
F63.33
sI3
F0.54
sI4
F1.0
sI5
F1.0
sI6
F1.0
sI7
F1.0
sI8
F0.585
sI10
F1.0
sI11
F3.0
sI12
F1.0
sI13
F1.0
sI14
F180.0
sI16
F1.0
ssbsg15
g0
(g16
g2
Ntp3169
Rp3170
(dp3171
g15
I0
sbsba(ics475_types
Instance
p3172
(dp3173
g10
(ics475_types
FeatureVector
p3174
(dp3175
g13
(dp3176
I1
F1.0
sI2
F18.92
sI3
F9.0
sI4
F1.0
sI5
F1.0
sI7
F1.0
sI8
F0.75
sI10
F1.0
sI11
F2.0
sI13
F1.0
sI14
F88.0
sI15
F591.0
sI21
F1.0
sI33
F1.0
sI37
F1.0
ssbsg15
g0
(g16
g2
Ntp3177
Rp3178
(dp3179
g15
I1
sbsba(ics475_types
Instance
p3180
(dp3181
g10
(ics475_types
FeatureVector
p3182
(dp3183
g13
(dp3184
I33
F1.0
sI2
F31.67
sI3
F16.165
sI4
F1.0
sI5
F1.0
sI7
F1.0
sI8
F3.0
sI10
F1.0
sI11
F9.0
sI13
F1.0
sI14
F250.0
sI15
F730.0
sI16
F1.0
sI34
F1.0
sI21
F1.0
ssbsg15
g0
(g16
g2
Ntp3185
Rp3186
(dp3187
g15
I1
sbsba(ics475_types
Instance
p3188
(dp3189
g10
(ics475_types
FeatureVector
p3190
(dp3191
g13
(dp3192
I1
F1.0
sI2
F35.17
sI3
F3.75
sI4
F1.0
sI5
F1.0
sI9
F1.0
sI10
F1.0
sI11
F6.0
sI13
F1.0
sI15
F200.0
sI21
F1.0
sI23
F1.0
sI24
F1.0
ssbsg15
g0
(g16
g2
Ntp3193
Rp3194
(dp3195
g15
I0
sbsba(ics475_types
Instance
p3196
(dp3197
g10
(ics475_types
FeatureVector
p3198
(dp3199
g13
(dp3200
I2
F30.75
sI3
F1.585
sI4
F1.0
sI5
F1.0
sI7
F1.0
sI8
F0.585
sI9
F1.0
sI12
F1.0
sI34
F1.0
sI16
F1.0
sI20
F1.0
sI22
F1.0
ssbsg15
g0
(g16
g2
Ntp3201
Rp3202
(dp3203
g15
I0
sbsba(ics475_types
Instance
p3204
(dp3205
g10
(ics475_types
FeatureVector
p3206
(dp3207
g13
(dp3208
I1
F1.0
sI2
F25.25
sI3
F12.5
sI4
F1.0
sI5
F1.0
sI7
F1.0
sI8
F1.0
sI9
F1.0
sI12
F1.0
sI13
F1.0
sI14
F180.0
sI15
F1062.0
sI34
F1.0
sI20
F1.0
ssbsg15
g0
(g16
g2
Ntp3209
Rp3210
(dp3211
g15
I0
sbsba(ics475_types
Instance
p3212
(dp3213
g10
(ics475_types
FeatureVector
p3214
(dp3215
g13
(dp3216
I2
F36.17
sI3
F0.42
sI7
F1.0
sI8
F0.29
sI9
F1.0
sI12
F1.0
sI13
F1.0
sI14
F309.0
sI15
F2.0
sI16
F1.0
sI17
F1.0
sI18
F1.0
sI20
F1.0
sI31
F1.0
ssbsg15
g0
(g16
g2
Ntp3217
Rp3218
(dp3219
g15
I0
sbsba(ics475_types
Instance
p3220
(dp3221
g10
(ics475_types
FeatureVector
p3222
(dp3223
g13
(dp3224
I33
F1.0
sI2
F20.5
sI3
F10.0
sI6
F1.0
sI7
F1.0
sI8
F2.5
sI14
F40.0
sI16
F1.0
sI17
F1.0
sI18
F1.0
sI20
F1.0
sI21
F1.0
sI22
F1.0
ssbsg15
g0
(g16
g2
Ntp3225
Rp3226
(dp3227
g15
I1
sbsba(ics475_types
Instance
p3228
(dp3229
g10
(ics475_types
FeatureVector
p3230
(dp3231
g13
(dp3232
I33
F1.0
sI2
F37.75
sI3
F7.0
sI4
F1.0
sI5
F1.0
sI8
F11.5
sI10
F1.0
sI11
F7.0
sI12
F1.0
sI13
F1.0
sI14
F300.0
sI15
F5.0
sI16
F1.0
sI27
F1.0
sI30
F1.0
ssbsg15
g0
(g16
g2
Ntp3233
Rp3234
(dp3235
g15
I0
sbsba(ics475_types
Instance
p3236
(dp3237
g10
(ics475_types
FeatureVector
p3238
(dp3239
g13
(dp3240
I1
F1.0
sI2
F27.67
sI3
F2.04
sI4
F1.0
sI5
F1.0
sI7
F1.0
sI8
F0.25
sI9
F1.0
sI12
F1.0
sI13
F1.0
sI14
F180.0
sI15
F50.0
sI20
F1.0
sI31
F1.0
ssbsg15
g0
(g16
g2
Ntp3241
Rp3242
(dp3243
g15
I0
sbsba(ics475_types
Instance
p3244
(dp3245
g10
(ics475_types
FeatureVector
p3246
(dp3247
g13
(dp3248
I2
F20.67
sI3
F0.415
sI4
F1.0
sI5
F1.0
sI6
F1.0
sI7
F1.0
sI8
F0.125
sI9
F1.0
sI13
F1.0
sI15
F44.0
sI16
F1.0
sI20
F1.0
sI21
F1.0
ssbsg15
g0
(g16
g2
Ntp3249
Rp3250
(dp3251
g15
I0
sbsba(ics475_types
Instance
p3252
(dp3253
g10
(ics475_types
FeatureVector
p3254
(dp3255
g13
(dp3256
I2
F32.33
sI3
F3.5
sI4
F1.0
sI5
F1.0
sI7
F1.0
sI8
F0.5
sI9
F1.0
sI12
F1.0
sI13
F1.0
sI14
F232.0
sI16
F1.0
sI19
F1.0
sI20
F1.0
ssbsg15
g0
(g16
g2
Ntp3257
Rp3258
(dp3259
g15
I0
sbsba(ics475_types
Instance
p3260
(dp3261
g10
(ics475_types
FeatureVector
p3262
(dp3263
g13
(dp3264
I2
F22.25
sI3
F0.46
sI4
F1.0
sI5
F1.0
sI7
F1.0
sI8
F0.125
sI9
F1.0
sI12
F1.0
sI13
F1.0
sI14
F280.0
sI15
F55.0
sI16
F1.0
sI19
F1.0
sI20
F1.0
ssbsg15
g0
(g16
g2
Ntp3265
Rp3266
(dp3267
g15
I0
sbsba(ics475_types
Instance
p3268
(dp3269
g10
(ics475_types
FeatureVector
p3270
(dp3271
g13
(dp3272
I32
F1.0
sI1
F1.0
sI2
F21.25
sI3
F2.335
sI4
F1.0
sI5
F1.0
sI33
F1.0
sI8
F0.5
sI10
F1.0
sI11
F4.0
sI14
F80.0
sI21
F1.0
sI22
F1.0
sI25
F1.0
ssbsg15
g0
(g16
g2
Ntp3273
Rp3274
(dp3275
g15
I1
sbsba(ics475_types
Instance
p3276
(dp3277
g10
(ics475_types
FeatureVector
p3278
(dp3279
g13
(dp3280
I33
F1.0
sI2
F25.0
sI3
F12.0
sI4
F1.0
sI5
F1.0
sI7
F1.0
sI8
F2.25
sI10
F1.0
sI11
F2.0
sI12
F1.0
sI13
F1.0
sI14
F120.0
sI15
F5.0
sI16
F1.0
sI19
F1.0
ssbsg15
g0
(g16
g2
Ntp3281
Rp3282
(dp3283
g15
I0
sbsba(ics475_types
Instance
p3284
(dp3285
g10
(ics475_types
FeatureVector
p3286
(dp3287
g13
(dp3288
I33
F1.0
sI2
F38.67
sI3
F0.21
sI4
F1.0
sI5
F1.0
sI7
F1.0
sI8
F0.085
sI12
F1.0
sI13
F1.0
sI14
F280.0
sI16
F1.0
sI19
F1.0
sI20
F1.0
ssbsg15
g0
(g16
g2
Ntp3289
Rp3290
(dp3291
g15
I1
sbsba(ics475_types
Instance
p3292
(dp3293
g10
(ics475_types
FeatureVector
p3294
(dp3295
g13
(dp3296
I33
F1.0
sI2
F56.0
sI3
F12.5
sI4
F1.0
sI5
F1.0
sI8
F8.0
sI12
F1.0
sI13
F1.0
sI14
F24.0
sI15
F2028.0
sI16
F1.0
sI19
F1.0
sI20
F1.0
sI27
F1.0
ssbsg15
g0
(g16
g2
Ntp3297
Rp3298
(dp3299
g15
I1
sbsba(ics475_types
Instance
p3300
(dp3301
g10
(ics475_types
FeatureVector
p3302
(dp3303
g13
(dp3304
I1
F1.0
sI2
F19.58
sI3
F0.665
sI4
F1.0
sI5
F1.0
sI7
F1.0
sI8
F1.665
sI9
F1.0
sI13
F1.0
sI14
F220.0
sI15
F5.0
sI20
F1.0
sI21
F1.0
sI31
F1.0
ssbsg15
g0
(g16
g2
Ntp3305
Rp3306
(dp3307
g15
I0
sbsba(ics475_types
Instance
p3308
(dp3309
g10
(ics475_types
FeatureVector
p3310
(dp3311
g13
(dp3312
I2
F29.83
sI3
F3.5
sI4
F1.0
sI5
F1.0
sI6
F1.0
sI7
F1.0
sI8
F0.165
sI9
F1.0
sI13
F1.0
sI14
F216.0
sI16
F1.0
sI20
F1.0
sI21
F1.0
ssbsg15
g0
(g16
g2
Ntp3313
Rp3314
(dp3315
g15
I0
sbsba(ics475_types
Instance
p3316
(dp3317
g10
(ics475_types
FeatureVector
p3318
(dp3319
g13
(dp3320
I33
F1.0
sI2
F23.08
sI3
F2.5
sI4
F1.0
sI5
F1.0
sI6
F1.0
sI7
F1.0
sI8
F1.085
sI10
F1.0
sI11
F11.0
sI12
F1.0
sI13
F1.0
sI14
F60.0
sI15
F2184.0
sI16
F1.0
ssbsg15
g0
(g16
g2
Ntp3321
Rp3322
(dp3323
g15
I1
sbsba(ics475_types
Instance
p3324
(dp3325
g10
(ics475_types
FeatureVector
p3326
(dp3327
g13
(dp3328
I1
F1.0
sI2
F38.92
sI3
F1.665
sI4
F1.0
sI5
F1.0
sI7
F1.0
sI8
F0.25
sI9
F1.0
sI13
F1.0
sI15
F390.0
sI20
F1.0
sI21
F1.0
sI37
F1.0
ssbsg15
g0
(g16
g2
Ntp3329
Rp3330
(dp3331
g15
I0
sbsba(ics475_types
Instance
p3332
(dp3333
g10
(ics475_types
FeatureVector
p3334
(dp3335
g13
(dp3336
I2
F39.17
sI3
F2.5
sI8
F10.0
sI9
F1.0
sI12
F1.0
sI14
F200.0
sI16
F1.0
sI17
F1.0
sI18
F1.0
sI20
F1.0
sI22
F1.0
sI25
F1.0
sI27
F1.0
ssbsg15
g0
(g16
g2
Ntp3337
Rp3338
(dp3339
g15
I0
sbsba(ics475_types
Instance
p3340
(dp3341
g10
(ics475_types
FeatureVector
p3342
(dp3343
g13
(dp3344
I2
F29.42
sI3
F1.25
sI4
F1.0
sI5
F1.0
sI6
F1.0
sI8
F0.25
sI9
F1.0
sI10
F1.0
sI11
F2.0
sI12
F1.0
sI13
F1.0
sI14
F400.0
sI15
F108.0
sI16
F1.0
sI27
F1.0
ssbsg15
g0
(g16
g2
Ntp3345
Rp3346
(dp3347
g15
I0
sbsba(ics475_types
Instance
p3348
(dp3349
g10
(ics475_types
FeatureVector
p3350
(dp3351
g13
(dp3352
I2
F23.08
sI4
F1.0
sI5
F1.0
sI7
F1.0
sI8
F1.0
sI9
F1.0
sI10
F1.0
sI11
F11.0
sI16
F1.0
sI19
F1.0
sI21
F1.0
sI22
F1.0
ssbsg15
g0
(g16
g2
Ntp3353
Rp3354
(dp3355
g15
I0
sbsba(ics475_types
Instance
p3356
(dp3357
g10
(ics475_types
FeatureVector
p3358
(dp3359
g13
(dp3360
I33
F1.0
sI2
F22.08
sI3
F11.0
sI4
F1.0
sI5
F1.0
sI7
F1.0
sI8
F0.665
sI13
F1.0
sI14
F100.0
sI16
F1.0
sI20
F1.0
sI21
F1.0
sI36
F1.0
ssbsg15
g0
(g16
g2
Ntp3361
Rp3362
(dp3363
g15
I1
sbsba(ics475_types
Instance
p3364
(dp3365
g10
(ics475_types
FeatureVector
p3366
(dp3367
g13
(dp3368
I33
F1.0
sI2
F21.67
sI3
F1.165
sI7
F1.0
sI8
F2.5
sI10
F1.0
sI11
F1.0
sI13
F1.0
sI14
F180.0
sI15
F20.0
sI16
F1.0
sI17
F1.0
sI18
F1.0
sI19
F1.0
sI21
F1.0
ssbsg15
g0
(g16
g2
Ntp3369
Rp3370
(dp3371
g15
I0
sbsba(ics475_types
Instance
p3372
(dp3373
g10
(ics475_types
FeatureVector
p3374
(dp3375
g13
(dp3376
I33
F1.0
sI2
F23.25
sI3
F1.5
sI4
F1.0
sI5
F1.0
sI7
F1.0
sI8
F2.375
sI10
F1.0
sI11
F3.0
sI12
F1.0
sI13
F1.0
sI15
F582.0
sI16
F1.0
sI30
F1.0
ssbsg15
g0
(g16
g2
Ntp3377
Rp3378
(dp3379
g15
I1
sbsba(ics475_types
Instance
p3380
(dp3381
g10
(ics475_types
FeatureVector
p3382
(dp3383
g13
(dp3384
I1
F1.0
sI2
F40.83
sI3
F10.0
sI4
F1.0
sI5
F1.0
sI33
F1.0
sI8
F1.75
sI13
F1.0
sI14
F29.0
sI15
F837.0
sI20
F1.0
sI21
F1.0
sI27
F1.0
sI30
F1.0
ssbsg15
g0
(g16
g2
Ntp3385
Rp3386
(dp3387
g15
I1
sbsba(ics475_types
Instance
p3388
(dp3389
g10
(ics475_types
FeatureVector
p3390
(dp3391
g13
(dp3392
I33
F1.0
sI2
F27.25
sI3
F0.625
sI4
F1.0
sI5
F1.0
sI7
F1.0
sI8
F0.455
sI12
F1.0
sI13
F1.0
sI14
F200.0
sI16
F1.0
sI20
F1.0
sI37
F1.0
ssbsg15
g0
(g16
g2
Ntp3393
Rp3394
(dp3395
g15
I0
sbsba(ics475_types
Instance
p3396
(dp3397
g10
(ics475_types
FeatureVector
p3398
(dp3399
g13
(dp3400
I1
F1.0
sI2
F21.75
sI3
F11.75
sI4
F1.0
sI5
F1.0
sI6
F1.0
sI7
F1.0
sI8
F0.25
sI9
F1.0
sI12
F1.0
sI13
F1.0
sI14
F180.0
sI20
F1.0
ssbsg15
g0
(g16
g2
Ntp3401
Rp3402
(dp3403
g15
I0
sbsba(ics475_types
Instance
p3404
(dp3405
g10
(ics475_types
FeatureVector
p3406
(dp3407
g13
(dp3408
I1
F1.0
sI2
F21.92
sI3
F11.665
sI4
F1.0
sI5
F1.0
sI8
F0.085
sI9
F1.0
sI13
F1.0
sI14
F320.0
sI15
F5.0
sI19
F1.0
sI20
F1.0
sI21
F1.0
sI27
F1.0
ssbsg15
g0
(g16
g2
Ntp3409
Rp3410
(dp3411
g15
I0
sbsba(ics475_types
Instance
p3412
(dp3413
g10
(ics475_types
FeatureVector
p3414
(dp3415
g13
(dp3416
I1
F1.0
sI2
F31.92
sI3
F3.125
sI4
F1.0
sI5
F1.0
sI8
F3.04
sI9
F1.0
sI10
F1.0
sI11
F2.0
sI12
F1.0
sI13
F1.0
sI14
F200.0
sI15
F4.0
sI23
F1.0
sI24
F1.0
ssbsg15
g0
(g16
g2
Ntp3417
Rp3418
(dp3419
g15
I0
sbsba(ics475_types
Instance
p3420
(dp3421
g10
(ics475_types
FeatureVector
p3422
(dp3423
g13
(dp3424
I33
F1.0
sI2
F29.92
sI3
F1.835
sI4
F1.0
sI5
F1.0
sI6
F1.0
sI8
F4.335
sI13
F1.0
sI14
F260.0
sI15
F200.0
sI16
F1.0
sI20
F1.0
sI21
F1.0
sI27
F1.0
ssbsg15
g0
(g16
g2
Ntp3425
Rp3426
(dp3427
g15
I1
sbsba(ics475_types
Instance
p3428
(dp3429
g10
(ics475_types
FeatureVector
p3430
(dp3431
g13
(dp3432
I1
F1.0
sI2
F21.75
sI3
F1.75
sI9
F1.0
sI13
F1.0
sI14
F160.0
sI17
F1.0
sI18
F1.0
sI20
F1.0
sI21
F1.0
sI28
F1.0
sI29
F1.0
ssbsg15
g0
(g16
g2
Ntp3433
Rp3434
(dp3435
g15
I0
sbsba(ics475_types
Instance
p3436
(dp3437
g10
(ics475_types
FeatureVector
p3438
(dp3439
g13
(dp3440
I2
F37.33
sI3
F2.665
sI4
F1.0
sI5
F1.0
sI7
F1.0
sI8
F0.165
sI9
F1.0
sI12
F1.0
sI13
F1.0
sI15
F501.0
sI16
F1.0
sI20
F1.0
sI36
F1.0
ssbsg15
g0
(g16
g2
Ntp3441
Rp3442
(dp3443
g15
I0
sbsba(ics475_types
Instance
p3444
(dp3445
g10
(ics475_types
FeatureVector
p3446
(dp3447
g13
(dp3448
I1
F1.0
sI2
F47.75
sI3
F8.0
sI4
F1.0
sI5
F1.0
sI6
F1.0
sI7
F1.0
sI8
F7.875
sI10
F1.0
sI11
F6.0
sI12
F1.0
sI13
F1.0
sI15
F1260.0
sI33
F1.0
ssbsg15
g0
(g16
g2
Ntp3449
Rp3450
(dp3451
g15
I1
sbsba(ics475_types
Instance
p3452
(dp3453
g10
(ics475_types
FeatureVector
p3454
(dp3455
g13
(dp3456
I1
F1.0
sI2
F22.5
sI3
F11.0
sI33
F1.0
sI7
F1.0
sI8
F3.0
sI12
F1.0
sI13
F1.0
sI14
F268.0
sI17
F1.0
sI18
F1.0
sI20
F1.0
sI30
F1.0
ssbsg15
g0
(g16
g2
Ntp3457
Rp3458
(dp3459
g15
I0
sbsba(ics475_types
Instance
p3460
(dp3461
g10
(ics475_types
FeatureVector
p3462
(dp3463
g13
(dp3464
I2
F29.5
sI3
F0.58
sI4
F1.0
sI5
F1.0
sI7
F1.0
sI8
F0.29
sI9
F1.0
sI10
F1.0
sI11
F1.0
sI13
F1.0
sI14
F340.0
sI15
F2803.0
sI16
F1.0
sI21
F1.0
sI31
F1.0
ssbsg15
g0
(g16
g2
Ntp3465
Rp3466
(dp3467
g15
I0
sbsba(ics475_types
Instance
p3468
(dp3469
g10
(ics475_types
FeatureVector
p3470
(dp3471
g13
(dp3472
I32
F1.0
sI33
F1.0
sI2
F51.33
sI3
F10.0
sI4
F1.0
sI5
F1.0
sI10
F1.0
sI11
F11.0
sI13
F1.0
sI15
F1249.0
sI16
F1.0
sI21
F1.0
sI25
F1.0
ssbsg15
g0
(g16
g2
Ntp3473
Rp3474
(dp3475
g15
I1
sbsba(ics475_types
Instance
p3476
(dp3477
g10
(ics475_types
FeatureVector
p3478
(dp3479
g13
(dp3480
I2
F24.08
sI3
F0.875
sI4
F1.0
sI5
F1.0
sI7
F1.0
sI8
F0.085
sI9
F1.0
sI10
F1.0
sI11
F4.0
sI13
F1.0
sI14
F254.0
sI15
F1950.0
sI16
F1.0
sI35
F1.0
sI21
F1.0
ssbsg15
g0
(g16
g2
Ntp3481
Rp3482
(dp3483
g15
I0
sbsba(ics475_types
Instance
p3484
(dp3485
g10
(ics475_types
FeatureVector
p3486
(dp3487
g13
(dp3488
I32
F1.0
sI2
F47.83
sI3
F4.165
sI4
F1.0
sI5
F1.0
sI39
F1.0
sI8
F0.085
sI9
F1.0
sI12
F1.0
sI13
F1.0
sI14
F520.0
sI16
F1.0
sI20
F1.0
ssbsg15
g0
(g16
g2
Ntp3489
Rp3490
(dp3491
g15
I0
sbsba(ics475_types
Instance
p3492
(dp3493
g10
(ics475_types
FeatureVector
p3494
(dp3495
g13
(dp3496
I2
F18.25
sI3
F0.165
sI4
F1.0
sI5
F1.0
sI7
F1.0
sI8
F0.25
sI9
F1.0
sI12
F1.0
sI34
F1.0
sI14
F280.0
sI16
F1.0
sI20
F1.0
sI22
F1.0
ssbsg15
g0
(g16
g2
Ntp3497
Rp3498
(dp3499
g15
I0
sbsba(ics475_types
Instance
p3500
(dp3501
g10
(ics475_types
FeatureVector
p3502
(dp3503
g13
(dp3504
I33
F1.0
sI2
F48.75
sI3
F26.335
sI12
F1.0
sI13
F1.0
sI16
F1.0
sI17
F1.0
sI18
F1.0
sI20
F1.0
sI23
F1.0
sI24
F1.0
ssbsg15
g0
(g16
g2
Ntp3505
Rp3506
(dp3507
g15
I0
sbsba(ics475_types
Instance
p3508
(dp3509
g10
(ics475_types
FeatureVector
p3510
(dp3511
g13
(dp3512
I33
F1.0
sI2
F34.75
sI3
F15.0
sI4
F1.0
sI5
F1.0
sI38
F1.0
sI8
F5.375
sI10
F1.0
sI11
F9.0
sI12
F1.0
sI13
F1.0
sI15
F134.0
sI16
F1.0
sI40
F1.0
ssbsg15
g0
(g16
g2
Ntp3513
Rp3514
(dp3515
g15
I1
sbsba(ics475_types
Instance
p3516
(dp3517
g10
(ics475_types
FeatureVector
p3518
(dp3519
g13
(dp3520
I1
F1.0
sI2
F18.83
sI3
F4.415
sI6
F1.0
sI33
F1.0
sI8
F3.0
sI13
F1.0
sI14
F240.0
sI17
F1.0
sI18
F1.0
sI20
F1.0
sI21
F1.0
sI27
F1.0
ssbsg15
g0
(g16
g2
Ntp3521
Rp3522
(dp3523
g15
I1
sbsba(ics475_types
Instance
p3524
(dp3525
g10
(ics475_types
FeatureVector
p3526
(dp3527
g13
(dp3528
I2
F21.25
sI3
F1.5
sI4
F1.0
sI5
F1.0
sI7
F1.0
sI8
F1.5
sI9
F1.0
sI13
F1.0
sI14
F150.0
sI15
F8.0
sI16
F1.0
sI20
F1.0
sI21
F1.0
sI31
F1.0
ssbsg15
g0
(g16
g2
Ntp3529
Rp3530
(dp3531
g15
I1
sbsba(ics475_types
Instance
p3532
(dp3533
g10
(ics475_types
FeatureVector
p3534
(dp3535
g13
(dp3536
I33
F1.0
sI2
F48.58
sI3
F6.5
sI4
F1.0
sI5
F1.0
sI8
F6.0
sI12
F1.0
sI13
F1.0
sI14
F350.0
sI16
F1.0
sI20
F1.0
sI27
F1.0
sI30
F1.0
ssbsg15
g0
(g16
g2
Ntp3537
Rp3538
(dp3539
g15
I1
sbsba(ics475_types
Instance
p3540
(dp3541
g10
(ics475_types
FeatureVector
p3542
(dp3543
g13
(dp3544
I32
F1.0
sI33
F1.0
sI2
F25.75
sI3
F0.75
sI4
F1.0
sI5
F1.0
sI6
F1.0
sI8
F0.25
sI13
F1.0
sI14
F349.0
sI15
F23.0
sI16
F1.0
sI20
F1.0
sI21
F1.0
ssbsg15
g0
(g16
g2
Ntp3545
Rp3546
(dp3547
g15
I1
sbsba(ics475_types
Instance
p3548
(dp3549
g10
(ics475_types
FeatureVector
p3550
(dp3551
g13
(dp3552
I1
F1.0
sI2
F46.08
sI3
F3.0
sI4
F1.0
sI5
F1.0
sI6
F1.0
sI7
F1.0
sI8
F2.375
sI10
F1.0
sI11
F8.0
sI12
F1.0
sI13
F1.0
sI14
F396.0
sI15
F4159.0
sI33
F1.0
ssbsg15
g0
(g16
g2
Ntp3553
Rp3554
(dp3555
g15
I1
sbsba(ics475_types
Instance
p3556
(dp3557
g10
(ics475_types
FeatureVector
p3558
(dp3559
g13
(dp3560
I2
F30.33
sI3
F0.5
sI4
F1.0
sI5
F1.0
sI8
F0.085
sI9
F1.0
sI12
F1.0
sI34
F1.0
sI14
F252.0
sI16
F1.0
sI20
F1.0
sI22
F1.0
sI27
F1.0
ssbsg15
g0
(g16
g2
Ntp3561
Rp3562
(dp3563
g15
I0
sbsba(ics475_types
Instance
p3564
(dp3565
g10
(ics475_types
FeatureVector
p3566
(dp3567
g13
(dp3568
I33
F1.0
sI2
F34.0
sI3
F4.5
sI4
F1.0
sI5
F1.0
sI7
F1.0
sI8
F1.0
sI12
F1.0
sI13
F1.0
sI14
F240.0
sI16
F1.0
sI20
F1.0
sI37
F1.0
ssbsg15
g0
(g16
g2
Ntp3569
Rp3570
(dp3571
g15
I0
sbsba(ics475_types
Instance
p3572
(dp3573
g10
(ics475_types
FeatureVector
p3574
(dp3575
g13
(dp3576
I33
F1.0
sI2
F24.58
sI3
F12.5
sI4
F1.0
sI5
F1.0
sI7
F1.0
sI8
F0.875
sI12
F1.0
sI13
F1.0
sI14
F260.0
sI16
F1.0
sI20
F1.0
sI31
F1.0
ssbsg15
g0
(g16
g2
Ntp3577
Rp3578
(dp3579
g15
I0
sbsba(ics475_types
Instance
p3580
(dp3581
g10
(ics475_types
FeatureVector
p3582
(dp3583
g13
(dp3584
I2
F32.33
sI3
F2.5
sI4
F1.0
sI5
F1.0
sI6
F1.0
sI7
F1.0
sI8
F1.25
sI9
F1.0
sI12
F1.0
sI13
F1.0
sI14
F280.0
sI16
F1.0
sI20
F1.0
ssbsg15
g0
(g16
g2
Ntp3585
Rp3586
(dp3587
g15
I0
sbsba(ics475_types
Instance
p3588
(dp3589
g10
(ics475_types
FeatureVector
p3590
(dp3591
g13
(dp3592
I33
F1.0
sI2
F20.42
sI3
F1.835
sI4
F1.0
sI5
F1.0
sI6
F1.0
sI7
F1.0
sI8
F2.25
sI10
F1.0
sI11
F1.0
sI13
F1.0
sI14
F100.0
sI15
F150.0
sI16
F1.0
sI21
F1.0
ssbsg15
g0
(g16
g2
Ntp3593
Rp3594
(dp3595
g15
I1
sbsba(ics475_types
Instance
p3596
(dp3597
g10
(ics475_types
FeatureVector
p3598
(dp3599
g13
(dp3600
I33
F1.0
sI2
F29.17
sI3
F3.5
sI4
F1.0
sI5
F1.0
sI7
F1.0
sI8
F3.5
sI10
F1.0
sI11
F3.0
sI12
F1.0
sI13
F1.0
sI14
F329.0
sI16
F1.0
sI31
F1.0
ssbsg15
g0
(g16
g2
Ntp3601
Rp3602
(dp3603
g15
I0
sbsba(ics475_types
Instance
p3604
(dp3605
g10
(ics475_types
FeatureVector
p3606
(dp3607
g13
(dp3608
I2
F51.83
sI3
F3.0
sI8
F1.5
sI9
F1.0
sI13
F1.0
sI14
F180.0
sI15
F4.0
sI16
F1.0
sI17
F1.0
sI18
F1.0
sI20
F1.0
sI21
F1.0
sI23
F1.0
sI24
F1.0
ssbsg15
g0
(g16
g2
Ntp3609
Rp3610
(dp3611
g15
I0
sbsba(ics475_types
Instance
p3612
(dp3613
g10
(ics475_types
FeatureVector
p3614
(dp3615
g13
(dp3616
I1
F1.0
sI2
F29.5
sI3
F0.46
sI4
F1.0
sI5
F1.0
sI7
F1.0
sI8
F0.54
sI10
F1.0
sI11
F4.0
sI13
F1.0
sI14
F380.0
sI15
F500.0
sI19
F1.0
sI21
F1.0
sI33
F1.0
ssbsg15
g0
(g16
g2
Ntp3617
Rp3618
(dp3619
g15
I1
sbsba(ics475_types
Instance
p3620
(dp3621
g10
(ics475_types
FeatureVector
p3622
(dp3623
g13
(dp3624
I2
F33.58
sI3
F0.335
sI36
F1.0
sI7
F1.0
sI8
F0.085
sI9
F1.0
sI13
F1.0
sI14
F180.0
sI16
F1.0
sI17
F1.0
sI18
F1.0
sI20
F1.0
sI21
F1.0
ssbsg15
g0
(g16
g2
Ntp3625
Rp3626
(dp3627
g15
I0
sbsba(ics475_types
Instance
p3628
(dp3629
g10
(ics475_types
FeatureVector
p3630
(dp3631
g13
(dp3632
I1
F1.0
sI2
F45.83
sI3
F10.5
sI4
F1.0
sI5
F1.0
sI7
F1.0
sI8
F5.0
sI10
F1.0
sI11
F7.0
sI12
F1.0
sI13
F1.0
sI33
F1.0
sI30
F1.0
ssbsg15
g0
(g16
g2
Ntp3633
Rp3634
(dp3635
g15
I1
sbsba(ics475_types
Instance
p3636
(dp3637
g10
(ics475_types
FeatureVector
p3638
(dp3639
g13
(dp3640
I2
F48.08
sI3
F6.04
sI4
F1.0
sI5
F1.0
sI7
F1.0
sI8
F0.04
sI9
F1.0
sI13
F1.0
sI15
F2690.0
sI16
F1.0
sI19
F1.0
sI20
F1.0
sI21
F1.0
ssbsg15
g0
(g16
g2
Ntp3641
Rp3642
(dp3643
g15
I1
sbsba(ics475_types
Instance
p3644
(dp3645
g10
(ics475_types
FeatureVector
p3646
(dp3647
g13
(dp3648
I32
F1.0
sI2
F33.58
sI3
F0.25
sI4
F1.0
sI5
F1.0
sI8
F4.0
sI9
F1.0
sI12
F1.0
sI14
F420.0
sI16
F1.0
sI20
F1.0
sI22
F1.0
sI25
F1.0
ssbsg15
g0
(g16
g2
Ntp3649
Rp3650
(dp3651
g15
I0
sbsba(ics475_types
Instance
p3652
(dp3653
g10
(ics475_types
FeatureVector
p3654
(dp3655
g13
(dp3656
I32
F1.0
sI2
F34.42
sI3
F1.335
sI4
F1.0
sI5
F1.0
sI8
F0.125
sI9
F1.0
sI12
F1.0
sI13
F1.0
sI14
F440.0
sI15
F4500.0
sI16
F1.0
sI20
F1.0
sI25
F1.0
ssbsg15
g0
(g16
g2
Ntp3657
Rp3658
(dp3659
g15
I0
sbsba(ics475_types
Instance
p3660
(dp3661
g10
(ics475_types
FeatureVector
p3662
(dp3663
g13
(dp3664
I2
F22.5
sI3
F0.125
sI7
F1.0
sI8
F0.125
sI9
F1.0
sI13
F1.0
sI14
F200.0
sI15
F70.0
sI16
F1.0
sI17
F1.0
sI18
F1.0
sI19
F1.0
sI20
F1.0
sI21
F1.0
ssbsg15
g0
(g16
g2
Ntp3665
Rp3666
(dp3667
g15
I0
sbsba(ics475_types
Instance
p3668
(dp3669
g10
(ics475_types
FeatureVector
p3670
(dp3671
g13
(dp3672
I1
F1.0
sI2
F68.67
sI3
F15.0
sI4
F1.0
sI5
F1.0
sI33
F1.0
sI41
F1.0
sI10
F1.0
sI11
F14.0
sI13
F1.0
sI15
F3376.0
sI21
F1.0
sI42
F1.0
ssbsg15
g0
(g16
g2
Ntp3673
Rp3674
(dp3675
g15
I1
sbsba(ics475_types
Instance
p3676
(dp3677
g10
(ics475_types
FeatureVector
p3678
(dp3679
g13
(dp3680
I1
F1.0
sI2
F30.25
sI3
F5.5
sI4
F1.0
sI5
F1.0
sI7
F1.0
sI8
F5.5
sI9
F1.0
sI12
F1.0
sI14
F100.0
sI19
F1.0
sI20
F1.0
sI22
F1.0
ssbsg15
g0
(g16
g2
Ntp3681
Rp3682
(dp3683
g15
I0
sbsba(ics475_types
Instance
p3684
(dp3685
g10
(ics475_types
FeatureVector
p3686
(dp3687
g13
(dp3688
I32
F1.0
sI2
F19.17
sI35
F1.0
sI9
F1.0
sI12
F1.0
sI14
F500.0
sI15
F1.0
sI16
F1.0
sI17
F1.0
sI18
F1.0
sI20
F1.0
sI22
F1.0
ssbsg15
g0
(g16
g2
Ntp3689
Rp3690
(dp3691
g15
I1
sbsba(ics475_types
Instance
p3692
(dp3693
g10
(ics475_types
FeatureVector
p3694
(dp3695
g13
(dp3696
I33
F1.0
sI2
F28.25
sI3
F5.125
sI4
F1.0
sI5
F1.0
sI7
F1.0
sI8
F4.75
sI10
F1.0
sI11
F2.0
sI13
F1.0
sI14
F420.0
sI15
F7.0
sI16
F1.0
sI21
F1.0
sI39
F1.0
ssbsg15
g0
(g16
g2
Ntp3697
Rp3698
(dp3699
g15
I1
sbsba(ics475_types
Instance
p3700
(dp3701
g10
(ics475_types
FeatureVector
p3702
(dp3703
g13
(dp3704
I33
F1.0
sI2
F23.92
sI3
F1.5
sI4
F1.0
sI5
F1.0
sI8
F1.875
sI10
F1.0
sI11
F6.0
sI13
F1.0
sI14
F200.0
sI15
F327.0
sI16
F1.0
sI34
F1.0
sI21
F1.0
sI27
F1.0
ssbsg15
g0
(g16
g2
Ntp3705
Rp3706
(dp3707
g15
I1
sbsba(ics475_types
Instance
p3708
(dp3709
g10
(ics475_types
FeatureVector
p3710
(dp3711
g13
(dp3712
I2
F25.58
sI3
F0.335
sI4
F1.0
sI5
F1.0
sI8
F3.5
sI9
F1.0
sI12
F1.0
sI13
F1.0
sI14
F340.0
sI16
F1.0
sI19
F1.0
sI20
F1.0
sI27
F1.0
ssbsg15
g0
(g16
g2
Ntp3713
Rp3714
(dp3715
g15
I0
sbsba(ics475_types
Instance
p3716
(dp3717
g10
(ics475_types
FeatureVector
p3718
(dp3719
g13
(dp3720
I33
F1.0
sI2
F51.42
sI3
F0.04
sI4
F1.0
sI5
F1.0
sI39
F1.0
sI8
F0.04
sI13
F1.0
sI15
F3000.0
sI16
F1.0
sI20
F1.0
sI21
F1.0
sI27
F1.0
ssbsg15
g0
(g16
g2
Ntp3721
Rp3722
(dp3723
g15
I1
sbsba(ics475_types
Instance
p3724
(dp3725
g10
(ics475_types
FeatureVector
p3726
(dp3727
g13
(dp3728
I1
F1.0
sI2
F23.58
sI3
F0.585
sI8
F0.125
sI9
F1.0
sI13
F1.0
sI14
F120.0
sI15
F87.0
sI17
F1.0
sI18
F1.0
sI20
F1.0
sI21
F1.0
sI23
F1.0
sI24
F1.0
ssbsg15
g0
(g16
g2
Ntp3729
Rp3730
(dp3731
g15
I0
sbsba(ics475_types
Instance
p3732
(dp3733
g10
(ics475_types
FeatureVector
p3734
(dp3735
g13
(dp3736
I33
F1.0
sI2
F36.67
sI3
F4.415
sI7
F1.0
sI8
F0.25
sI10
F1.0
sI11
F10.0
sI12
F1.0
sI13
F1.0
sI14
F320.0
sI16
F1.0
sI17
F1.0
sI18
F1.0
sI19
F1.0
ssbsg15
g0
(g16
g2
Ntp3737
Rp3738
(dp3739
g15
I1
sbsba(ics475_types
Instance
p3740
(dp3741
g10
(ics475_types
FeatureVector
p3742
(dp3743
g13
(dp3744
I2
F30.17
sI3
F1.085
sI6
F1.0
sI7
F1.0
sI8
F0.04
sI9
F1.0
sI13
F1.0
sI14
F170.0
sI15
F179.0
sI16
F1.0
sI17
F1.0
sI18
F1.0
sI20
F1.0
sI21
F1.0
ssbsg15
g0
(g16
g2
Ntp3745
Rp3746
(dp3747
g15
I0
sbsba(ics475_types
Instance
p3748
(dp3749
g10
(ics475_types
FeatureVector
p3750
(dp3751
g13
(dp3752
I2
F50.75
sI3
F0.585
sI4
F1.0
sI5
F1.0
sI9
F1.0
sI13
F1.0
sI14
F145.0
sI16
F1.0
sI20
F1.0
sI21
F1.0
sI23
F1.0
sI24
F1.0
ssbsg15
g0
(g16
g2
Ntp3753
Rp3754
(dp3755
g15
I0
sbsba(ics475_types
Instance
p3756
(dp3757
g10
(ics475_types
FeatureVector
p3758
(dp3759
g13
(dp3760
I1
F1.0
sI2
F20.75
sI3
F9.54
sI4
F1.0
sI5
F1.0
sI7
F1.0
sI8
F0.04
sI9
F1.0
sI13
F1.0
sI14
F200.0
sI15
F1000.0
sI20
F1.0
sI21
F1.0
sI25
F1.0
ssbsg15
g0
(g16
g2
Ntp3761
Rp3762
(dp3763
g15
I0
sbsba(ics475_types
Instance
p3764
(dp3765
g10
(ics475_types
FeatureVector
p3766
(dp3767
g13
(dp3768
I33
F1.0
sI2
F49.58
sI3
F19.0
sI4
F1.0
sI5
F1.0
sI10
F1.0
sI11
F1.0
sI13
F1.0
sI14
F94.0
sI16
F1.0
sI21
F1.0
sI23
F1.0
sI24
F1.0
ssbsg15
g0
(g16
g2
Ntp3769
Rp3770
(dp3771
g15
I0
sbsba(ics475_types
Instance
p3772
(dp3773
g10
(ics475_types
FeatureVector
p3774
(dp3775
g13
(dp3776
I2
F39.5
sI3
F1.625
sI4
F1.0
sI5
F1.0
sI6
F1.0
sI7
F1.0
sI8
F1.5
sI9
F1.0
sI13
F1.0
sI15
F316.0
sI16
F1.0
sI20
F1.0
sI21
F1.0
ssbsg15
g0
(g16
g2
Ntp3777
Rp3778
(dp3779
g15
I0
sbsba(ics475_types
Instance
p3780
(dp3781
g10
(ics475_types
FeatureVector
p3782
(dp3783
g13
(dp3784
I1
F1.0
sI2
F23.0
sI3
F11.75
sI4
F1.0
sI5
F1.0
sI33
F1.0
sI8
F0.5
sI10
F1.0
sI11
F2.0
sI12
F1.0
sI13
F1.0
sI14
F300.0
sI15
F551.0
sI39
F1.0
sI27
F1.0
ssbsg15
g0
(g16
g2
Ntp3785
Rp3786
(dp3787
g15
I1
sbsba(ics475_types
Instance
p3788
(dp3789
g10
(ics475_types
FeatureVector
p3790
(dp3791
g13
(dp3792
I1
F1.0
sI2
F36.75
sI3
F5.125
sI4
F1.0
sI5
F1.0
sI7
F1.0
sI8
F5.0
sI41
F1.0
sI12
F1.0
sI13
F1.0
sI15
F4000.0
sI20
F1.0
sI33
F1.0
ssbsg15
g0
(g16
g2
Ntp3793
Rp3794
(dp3795
g15
I1
sbsba(ics475_types
Instance
p3796
(dp3797
g10
(ics475_types
FeatureVector
p3798
(dp3799
g13
(dp3800
I2
F36.75
sI3
F0.125
sI6
F1.0
sI7
F1.0
sI8
F1.5
sI9
F1.0
sI12
F1.0
sI13
F1.0
sI14
F232.0
sI15
F113.0
sI16
F1.0
sI17
F1.0
sI18
F1.0
sI20
F1.0
ssbsg15
g0
(g16
g2
Ntp3801
Rp3802
(dp3803
g15
I1
sbsba(ics475_types
Instance
p3804
(dp3805
g10
(ics475_types
FeatureVector
p3806
(dp3807
g13
(dp3808
I2
F22.75
sI3
F11.5
sI4
F1.0
sI5
F1.0
sI7
F1.0
sI8
F0.415
sI9
F1.0
sI13
F1.0
sI16
F1.0
sI20
F1.0
sI21
F1.0
sI25
F1.0
ssbsg15
g0
(g16
g2
Ntp3809
Rp3810
(dp3811
g15
I0
sbsba(ics475_types
Instance
p3812
(dp3813
g10
(ics475_types
FeatureVector
p3814
(dp3815
g13
(dp3816
I33
F1.0
sI2
F37.33
sI3
F6.5
sI4
F1.0
sI5
F1.0
sI8
F4.25
sI10
F1.0
sI11
F12.0
sI12
F1.0
sI13
F1.0
sI14
F93.0
sI16
F1.0
sI35
F1.0
sI27
F1.0
ssbsg15
g0
(g16
g2
Ntp3817
Rp3818
(dp3819
g15
I1
sbsba(ics475_types
Instance
p3820
(dp3821
g10
(ics475_types
FeatureVector
p3822
(dp3823
g13
(dp3824
I33
F1.0
sI2
F23.58
sI3
F0.46
sI7
F1.0
sI8
F2.625
sI10
F1.0
sI11
F6.0
sI12
F1.0
sI13
F1.0
sI14
F208.0
sI15
F347.0
sI16
F1.0
sI17
F1.0
sI18
F1.0
sI31
F1.0
ssbsg15
g0
(g16
g2
Ntp3825
Rp3826
(dp3827
g15
I0
sbsba(ics475_types
Instance
p3828
(dp3829
g10
(ics475_types
FeatureVector
p3830
(dp3831
g13
(dp3832
I2
F22.5
sI3
F11.5
sI7
F1.0
sI8
F1.5
sI9
F1.0
sI12
F1.0
sI13
F1.0
sI15
F4000.0
sI16
F1.0
sI17
F1.0
sI18
F1.0
sI35
F1.0
sI20
F1.0
ssbsg15
g0
(g16
g2
Ntp3833
Rp3834
(dp3835
g15
I0
sbsba(ics475_types
Instance
p3836
(dp3837
g10
(ics475_types
FeatureVector
p3838
(dp3839
g13
(dp3840
I1
F1.0
sI2
F18.58
sI3
F10.0
sI4
F1.0
sI5
F1.0
sI7
F1.0
sI8
F0.415
sI9
F1.0
sI13
F1.0
sI14
F80.0
sI15
F42.0
sI34
F1.0
sI20
F1.0
sI21
F1.0
ssbsg15
g0
(g16
g2
Ntp3841
Rp3842
(dp3843
g15
I0
sbsba(ics475_types
Instance
p3844
(dp3845
g10
(ics475_types
FeatureVector
p3846
(dp3847
g13
(dp3848
I32
F1.0
sI1
F1.0
sI2
F33.75
sI3
F0.75
sI4
F1.0
sI5
F1.0
sI33
F1.0
sI8
F1.0
sI10
F1.0
sI11
F3.0
sI12
F1.0
sI13
F1.0
sI14
F212.0
sI19
F1.0
ssbsg15
g0
(g16
g2
Ntp3849
Rp3850
(dp3851
g15
I0
sbsba(ics475_types
Instance
p3852
(dp3853
g10
(ics475_types
FeatureVector
p3854
(dp3855
g13
(dp3856
I1
F1.0
sI2
F36.0
sI3
F1.0
sI4
F1.0
sI5
F1.0
sI6
F1.0
sI7
F1.0
sI8
F2.0
sI10
F1.0
sI11
F11.0
sI13
F1.0
sI15
F456.0
sI21
F1.0
sI33
F1.0
ssbsg15
g0
(g16
g2
Ntp3857
Rp3858
(dp3859
g15
I1
sbsba(ics475_types
Instance
p3860
(dp3861
g10
(ics475_types
FeatureVector
p3862
(dp3863
g13
(dp3864
I2
F31.83
sI3
F0.04
sI7
F1.0
sI8
F0.04
sI9
F1.0
sI13
F1.0
sI16
F1.0
sI17
F1.0
sI18
F1.0
sI35
F1.0
sI20
F1.0
sI21
F1.0
ssbsg15
g0
(g16
g2
Ntp3865
Rp3866
(dp3867
g15
I0
sbsba(ics475_types
Instance
p3868
(dp3869
g10
(ics475_types
FeatureVector
p3870
(dp3871
g13
(dp3872
I33
F1.0
sI2
F59.67
sI3
F1.54
sI4
F1.0
sI5
F1.0
sI7
F1.0
sI8
F0.125
sI12
F1.0
sI13
F1.0
sI14
F260.0
sI16
F1.0
sI20
F1.0
sI30
F1.0
ssbsg15
g0
(g16
g2
Ntp3873
Rp3874
(dp3875
g15
I1
sbsba(ics475_types
Instance
p3876
(dp3877
g10
(ics475_types
FeatureVector
p3878
(dp3879
g13
(dp3880
I2
F42.75
sI3
F4.085
sI4
F1.0
sI5
F1.0
sI7
F1.0
sI8
F0.04
sI9
F1.0
sI13
F1.0
sI14
F108.0
sI15
F100.0
sI16
F1.0
sI20
F1.0
sI21
F1.0
sI37
F1.0
ssbsg15
g0
(g16
g2
Ntp3881
Rp3882
(dp3883
g15
I0
sbsba(ics475_types
Instance
p3884
(dp3885
g10
(ics475_types
FeatureVector
p3886
(dp3887
g13
(dp3888
I33
F1.0
sI2
F76.75
sI3
F22.29
sI4
F1.0
sI5
F1.0
sI8
F12.75
sI41
F1.0
sI10
F1.0
sI11
F1.0
sI12
F1.0
sI13
F1.0
sI15
F109.0
sI16
F1.0
sI42
F1.0
ssbsg15
g0
(g16
g2
Ntp3889
Rp3890
(dp3891
g15
I1
sbsba(ics475_types
Instance
p3892
(dp3893
g10
(ics475_types
FeatureVector
p3894
(dp3895
g13
(dp3896
I33
F1.0
sI2
F21.33
sI3
F10.5
sI4
F1.0
sI5
F1.0
sI6
F1.0
sI7
F1.0
sI8
F3.0
sI12
F1.0
sI13
F1.0
sI16
F1.0
sI20
F1.0
ssbsg15
g0
(g16
g2
Ntp3897
Rp3898
(dp3899
g15
I1
sbsba(ics475_types
Instance
p3900
(dp3901
g10
(ics475_types
FeatureVector
p3902
(dp3903
g13
(dp3904
I33
F1.0
sI2
F30.17
sI3
F6.5
sI4
F1.0
sI5
F1.0
sI7
F1.0
sI8
F3.125
sI10
F1.0
sI11
F8.0
sI13
F1.0
sI14
F330.0
sI15
F1200.0
sI16
F1.0
sI21
F1.0
sI36
F1.0
ssbsg15
g0
(g16
g2
Ntp3905
Rp3906
(dp3907
g15
I1
sbsba(ics475_types
Instance
p3908
(dp3909
g10
(ics475_types
FeatureVector
p3910
(dp3911
g13
(dp3912
I1
F1.0
sI2
F26.92
sI3
F13.5
sI4
F1.0
sI5
F1.0
sI33
F1.0
sI8
F5.0
sI10
F1.0
sI11
F2.0
sI13
F1.0
sI15
F5000.0
sI21
F1.0
sI27
F1.0
sI30
F1.0
ssbsg15
g0
(g16
g2
Ntp3913
Rp3914
(dp3915
g15
I1
sbsba(ics475_types
Instance
p3916
(dp3917
g10
(ics475_types
FeatureVector
p3918
(dp3919
g13
(dp3920
I32
F1.0
sI33
F1.0
sI2
F49.5
sI3
F7.585
sI4
F1.0
sI5
F1.0
sI8
F7.585
sI10
F1.0
sI11
F15.0
sI12
F1.0
sI13
F1.0
sI15
F5000.0
sI16
F1.0
sI25
F1.0
ssbsg15
g0
(g16
g2
Ntp3921
Rp3922
(dp3923
g15
I1
sbsba(ics475_types
Instance
p3924
(dp3925
g10
(ics475_types
FeatureVector
p3926
(dp3927
g13
(dp3928
I1
F1.0
sI2
F38.58
sI3
F5.0
sI4
F1.0
sI5
F1.0
sI7
F1.0
sI8
F13.5
sI12
F1.0
sI13
F1.0
sI14
F980.0
sI20
F1.0
sI36
F1.0
sI33
F1.0
ssbsg15
g0
(g16
g2
Ntp3929
Rp3930
(dp3931
g15
I0
sbsba(ics475_types
Instance
p3932
(dp3933
g10
(ics475_types
FeatureVector
p3934
(dp3935
g13
(dp3936
I2
F33.67
sI3
F2.165
sI4
F1.0
sI5
F1.0
sI6
F1.0
sI7
F1.0
sI8
F1.5
sI9
F1.0
sI46
F1.0
sI14
F120.0
sI16
F1.0
sI20
F1.0
sI21
F1.0
ssbsg15
g0
(g16
g2
Ntp3937
Rp3938
(dp3939
g15
I0
sbsba(ics475_types
Instance
p3940
(dp3941
g10
(ics475_types
FeatureVector
p3942
(dp3943
g13
(dp3944
I2
F19.5
sI3
F0.29
sI4
F1.0
sI5
F1.0
sI7
F1.0
sI8
F0.29
sI9
F1.0
sI13
F1.0
sI14
F280.0
sI15
F364.0
sI16
F1.0
sI19
F1.0
sI20
F1.0
sI21
F1.0
ssbsg15
g0
(g16
g2
Ntp3945
Rp3946
(dp3947
g15
I0
sbsba(ics475_types
Instance
p3948
(dp3949
g10
(ics475_types
FeatureVector
p3950
(dp3951
g13
(dp3952
I32
F1.0
sI33
F1.0
sI2
F28.25
sI3
F5.04
sI6
F1.0
sI8
F1.5
sI10
F1.0
sI11
F8.0
sI12
F1.0
sI13
F1.0
sI14
F144.0
sI15
F7.0
sI16
F1.0
sI17
F1.0
sI18
F1.0
ssbsg15
g0
(g16
g2
Ntp3953
Rp3954
(dp3955
g15
I1
sbsba(ics475_types
Instance
p3956
(dp3957
g10
(ics475_types
FeatureVector
p3958
(dp3959
g13
(dp3960
I1
F1.0
sI2
F22.67
sI3
F7.0
sI4
F1.0
sI5
F1.0
sI6
F1.0
sI7
F1.0
sI8
F0.165
sI9
F1.0
sI13
F1.0
sI14
F160.0
sI20
F1.0
sI21
F1.0
ssbsg15
g0
(g16
g2
Ntp3961
Rp3962
(dp3963
g15
I0
sbsba(ics475_types
Instance
p3964
(dp3965
g10
(ics475_types
FeatureVector
p3966
(dp3967
g13
(dp3968
I2
F36.17
sI3
F18.125
sI4
F1.0
sI5
F1.0
sI7
F1.0
sI8
F0.085
sI9
F1.0
sI13
F1.0
sI14
F320.0
sI15
F3552.0
sI16
F1.0
sI20
F1.0
sI21
F1.0
sI31
F1.0
ssbsg15
g0
(g16
g2
Ntp3969
Rp3970
(dp3971
g15
I0
sbsba(ics475_types
Instance
p3972
(dp3973
g10
(ics475_types
FeatureVector
p3974
(dp3975
g13
(dp3976
I33
F1.0
sI2
F45.17
sI3
F1.5
sI4
F1.0
sI5
F1.0
sI6
F1.0
sI7
F1.0
sI8
F2.5
sI12
F1.0
sI13
F1.0
sI14
F140.0
sI16
F1.0
sI20
F1.0
ssbsg15
g0
(g16
g2
Ntp3977
Rp3978
(dp3979
g15
I0
sbsba(ics475_types
Instance
p3980
(dp3981
g10
(ics475_types
FeatureVector
p3982
(dp3983
g13
(dp3984
I2
F52.42
sI3
F1.5
sI4
F1.0
sI5
F1.0
sI7
F1.0
sI8
F3.75
sI9
F1.0
sI12
F1.0
sI13
F1.0
sI15
F350.0
sI16
F1.0
sI34
F1.0
sI20
F1.0
ssbsg15
g0
(g16
g2
Ntp3985
Rp3986
(dp3987
g15
I0
sbsba(ics475_types
Instance
p3988
(dp3989
g10
(ics475_types
FeatureVector
p3990
(dp3991
g13
(dp3992
I2
F29.67
sI3
F0.75
sI6
F1.0
sI7
F1.0
sI8
F0.04
sI9
F1.0
sI13
F1.0
sI14
F240.0
sI16
F1.0
sI17
F1.0
sI18
F1.0
sI20
F1.0
sI21
F1.0
ssbsg15
g0
(g16
g2
Ntp3993
Rp3994
(dp3995
g15
I0
sbsba(ics475_types
Instance
p3996
(dp3997
g10
(ics475_types
FeatureVector
p3998
(dp3999
g13
(dp4000
I33
F1.0
sI2
F56.75
sI3
F12.25
sI4
F1.0
sI5
F1.0
sI7
F1.0
sI8
F1.25
sI10
F1.0
sI11
F4.0
sI12
F1.0
sI13
F1.0
sI14
F200.0
sI16
F1.0
sI35
F1.0
ssbsg15
g0
(g16
g2
Ntp4001
Rp4002
(dp4003
g15
I1
sbsba(ics475_types
Instance
p4004
(dp4005
g10
(ics475_types
FeatureVector
p4006
(dp4007
g13
(dp4008
I33
F1.0
sI2
F26.67
sI3
F4.25
sI4
F1.0
sI5
F1.0
sI7
F1.0
sI8
F4.29
sI10
F1.0
sI11
F1.0
sI12
F1.0
sI13
F1.0
sI14
F120.0
sI16
F1.0
sI36
F1.0
ssbsg15
g0
(g16
g2
Ntp4009
Rp4010
(dp4011
g15
I1
sbsba(ics475_types
Instance
p4012
(dp4013
g10
(ics475_types
FeatureVector
p4014
(dp4015
g13
(dp4016
I1
F1.0
sI2
F35.75
sI3
F0.915
sI4
F1.0
sI5
F1.0
sI7
F1.0
sI8
F0.75
sI10
F1.0
sI11
F4.0
sI13
F1.0
sI15
F1583.0
sI21
F1.0
sI33
F1.0
sI37
F1.0
ssbsg15
g0
(g16
g2
Ntp4017
Rp4018
(dp4019
g15
I1
sbsba(ics475_types
Instance
p4020
(dp4021
g10
(ics475_types
FeatureVector
p4022
(dp4023
g13
(dp4024
I2
F41.17
sI3
F1.25
sI7
F1.0
sI8
F0.25
sI9
F1.0
sI13
F1.0
sI15
F195.0
sI16
F1.0
sI17
F1.0
sI18
F1.0
sI20
F1.0
sI21
F1.0
sI31
F1.0
ssbsg15
g0
(g16
g2
Ntp4025
Rp4026
(dp4027
g15
I0
sbsba(ics475_types
Instance
p4028
(dp4029
g10
(ics475_types
FeatureVector
p4030
(dp4031
g13
(dp4032
I1
F1.0
sI2
F23.25
sI3
F5.875
sI4
F1.0
sI5
F1.0
sI7
F1.0
sI8
F3.17
sI10
F1.0
sI11
F10.0
sI13
F1.0
sI14
F120.0
sI15
F245.0
sI21
F1.0
sI33
F1.0
sI30
F1.0
ssbsg15
g0
(g16
g2
Ntp4033
Rp4034
(dp4035
g15
I1
sbsba(ics475_types
Instance
p4036
(dp4037
g10
(ics475_types
FeatureVector
p4038
(dp4039
g13
(dp4040
I2
F28.0
sI3
F3.0
sI4
F1.0
sI5
F1.0
sI7
F1.0
sI8
F0.75
sI9
F1.0
sI12
F1.0
sI13
F1.0
sI14
F300.0
sI15
F67.0
sI16
F1.0
sI20
F1.0
sI31
F1.0
ssbsg15
g0
(g16
g2
Ntp4041
Rp4042
(dp4043
g15
I0
sbsba(ics475_types
Instance
p4044
(dp4045
g10
(ics475_types
FeatureVector
p4046
(dp4047
g13
(dp4048
I2
F16.25
sI37
F1.0
sI7
F1.0
sI8
F0.25
sI9
F1.0
sI13
F1.0
sI14
F60.0
sI16
F1.0
sI17
F1.0
sI18
F1.0
sI20
F1.0
sI21
F1.0
ssbsg15
g0
(g16
g2
Ntp4049
Rp4050
(dp4051
g15
I0
sbsba(ics475_types
Instance
p4052
(dp4053
g10
(ics475_types
FeatureVector
p4054
(dp4055
g13
(dp4056
I1
F1.0
sI2
F23.0
sI3
F1.835
sI4
F1.0
sI5
F1.0
sI9
F1.0
sI10
F1.0
sI11
F1.0
sI13
F1.0
sI14
F200.0
sI15
F53.0
sI21
F1.0
sI28
F1.0
sI29
F1.0
ssbsg15
g0
(g16
g2
Ntp4057
Rp4058
(dp4059
g15
I0
sbsba(ics475_types
Instance
p4060
(dp4061
g10
(ics475_types
FeatureVector
p4062
(dp4063
g13
(dp4064
I33
F1.0
sI2
F23.33
sI3
F1.5
sI4
F1.0
sI5
F1.0
sI6
F1.0
sI8
F1.415
sI13
F1.0
sI14
F422.0
sI15
F200.0
sI16
F1.0
sI20
F1.0
sI21
F1.0
sI27
F1.0
ssbsg15
g0
(g16
g2
Ntp4065
Rp4066
(dp4067
g15
I1
sbsba(ics475_types
Instance
p4068
(dp4069
g10
(ics475_types
FeatureVector
p4070
(dp4071
g13
(dp4072
I1
F1.0
sI2
F18.08
sI3
F0.375
sI36
F1.0
sI8
F10.0
sI9
F1.0
sI12
F1.0
sI45
F1.0
sI14
F300.0
sI44
F1.0
sI20
F1.0
sI22
F1.0
sI24
F1.0
ssbsg15
g0
(g16
g2
Ntp4073
Rp4074
(dp4075
g15
I1
sbsba(ics475_types
Instance
p4076
(dp4077
g10
(ics475_types
FeatureVector
p4078
(dp4079
g13
(dp4080
I33
F1.0
sI2
F35.25
sI3
F3.165
sI4
F1.0
sI5
F1.0
sI39
F1.0
sI8
F3.75
sI12
F1.0
sI13
F1.0
sI14
F680.0
sI16
F1.0
sI20
F1.0
sI27
F1.0
ssbsg15
g0
(g16
g2
Ntp4081
Rp4082
(dp4083
g15
I0
sbsba(ics475_types
Instance
p4084
(dp4085
g10
(ics475_types
FeatureVector
p4086
(dp4087
g13
(dp4088
I2
F34.83
sI3
F2.5
sI7
F1.0
sI8
F3.0
sI9
F1.0
sI14
F200.0
sI16
F1.0
sI17
F1.0
sI18
F1.0
sI20
F1.0
sI21
F1.0
sI22
F1.0
sI31
F1.0
ssbsg15
g0
(g16
g2
Ntp4089
Rp4090
(dp4091
g15
I0
sbsba(ics475_types
Instance
p4092
(dp4093
g10
(ics475_types
FeatureVector
p4094
(dp4095
g13
(dp4096
I33
F1.0
sI2
F73.42
sI3
F17.75
sI4
F1.0
sI5
F1.0
sI12
F1.0
sI13
F1.0
sI16
F1.0
sI20
F1.0
sI23
F1.0
sI24
F1.0
ssbsg15
g0
(g16
g2
Ntp4097
Rp4098
(dp4099
g15
I1
sbsba(ics475_types
Instance
p4100
(dp4101
g10
(ics475_types
FeatureVector
p4102
(dp4103
g13
(dp4104
I2
F23.0
sI3
F0.75
sI4
F1.0
sI5
F1.0
sI7
F1.0
sI8
F0.5
sI9
F1.0
sI12
F1.0
sI14
F320.0
sI16
F1.0
sI35
F1.0
sI20
F1.0
sI22
F1.0
ssbsg15
g0
(g16
g2
Ntp4105
Rp4106
(dp4107
g15
I0
sbsba(ics475_types
Instance
p4108
(dp4109
g10
(ics475_types
FeatureVector
p4110
(dp4111
g13
(dp4112
I1
F1.0
sI2
F28.17
sI3
F0.375
sI4
F1.0
sI5
F1.0
sI7
F1.0
sI8
F0.585
sI10
F1.0
sI11
F4.0
sI13
F1.0
sI14
F80.0
sI21
F1.0
sI33
F1.0
sI30
F1.0
ssbsg15
g0
(g16
g2
Ntp4113
Rp4114
(dp4115
g15
I1
sbsba(ics475_types
Instance
p4116
(dp4117
g10
(ics475_types
FeatureVector
p4118
(dp4119
g13
(dp4120
I2
F18.08
sI3
F6.75
sI7
F1.0
sI8
F0.04
sI9
F1.0
sI13
F1.0
sI14
F140.0
sI16
F1.0
sI17
F1.0
sI18
F1.0
sI35
F1.0
sI20
F1.0
sI21
F1.0
ssbsg15
g0
(g16
g2
Ntp4121
Rp4122
(dp4123
g15
I0
sbsba(ics475_types
Instance
p4124
(dp4125
g10
(ics475_types
FeatureVector
p4126
(dp4127
g13
(dp4128
I33
F1.0
sI2
F21.5
sI3
F9.75
sI4
F1.0
sI5
F1.0
sI6
F1.0
sI7
F1.0
sI8
F0.25
sI13
F1.0
sI14
F140.0
sI16
F1.0
sI20
F1.0
sI21
F1.0
ssbsg15
g0
(g16
g2
Ntp4129
Rp4130
(dp4131
g15
I0
sbsba(ics475_types
Instance
p4132
(dp4133
g10
(ics475_types
FeatureVector
p4134
(dp4135
g13
(dp4136
I2
F39.58
sI3
F5.0
sI4
F1.0
sI5
F1.0
sI9
F1.0
sI10
F1.0
sI11
F2.0
sI13
F1.0
sI14
F17.0
sI15
F1.0
sI16
F1.0
sI21
F1.0
sI23
F1.0
sI24
F1.0
ssbsg15
g0
(g16
g2
Ntp4137
Rp4138
(dp4139
g15
I0
sbsba(ics475_types
Instance
p4140
(dp4141
g10
(ics475_types
FeatureVector
p4142
(dp4143
g13
(dp4144
I1
F1.0
sI2
F28.75
sI3
F3.75
sI4
F1.0
sI5
F1.0
sI6
F1.0
sI7
F1.0
sI8
F1.085
sI10
F1.0
sI11
F1.0
sI12
F1.0
sI13
F1.0
sI14
F371.0
sI33
F1.0
ssbsg15
g0
(g16
g2
Ntp4145
Rp4146
(dp4147
g15
I1
sbsba(ics475_types
Instance
p4148
(dp4149
g10
(ics475_types
FeatureVector
p4150
(dp4151
g13
(dp4152
I1
F1.0
sI2
F20.08
sI3
F1.25
sI4
F1.0
sI5
F1.0
sI6
F1.0
sI7
F1.0
sI9
F1.0
sI13
F1.0
sI20
F1.0
sI21
F1.0
ssbsg15
g0
(g16
g2
Ntp4153
Rp4154
(dp4155
g15
I0
sbsba(ics475_types
Instance
p4156
(dp4157
g10
(ics475_types
FeatureVector
p4158
(dp4159
g13
(dp4160
I32
F1.0
sI2
F41.5
sI3
F1.54
sI4
F1.0
sI5
F1.0
sI8
F3.5
sI9
F1.0
sI13
F1.0
sI14
F216.0
sI16
F1.0
sI20
F1.0
sI21
F1.0
sI25
F1.0
ssbsg15
g0
(g16
g2
Ntp4161
Rp4162
(dp4163
g15
I1
sbsba(ics475_types
Instance
p4164
(dp4165
g10
(ics475_types
FeatureVector
p4166
(dp4167
g13
(dp4168
I2
F23.58
sI3
F0.835
sI4
F1.0
sI5
F1.0
sI8
F0.085
sI9
F1.0
sI12
F1.0
sI13
F1.0
sI14
F220.0
sI15
F5.0
sI16
F1.0
sI20
F1.0
sI25
F1.0
sI27
F1.0
ssbsg15
g0
(g16
g2
Ntp4169
Rp4170
(dp4171
g15
I0
sbsba(ics475_types
Instance
p4172
(dp4173
g10
(ics475_types
FeatureVector
p4174
(dp4175
g13
(dp4176
I2
F37.5
sI3
F0.835
sI4
F1.0
sI5
F1.0
sI7
F1.0
sI8
F0.04
sI9
F1.0
sI13
F1.0
sI14
F120.0
sI15
F5.0
sI16
F1.0
sI20
F1.0
sI21
F1.0
sI41
F1.0
ssbsg15
g0
(g16
g2
Ntp4177
Rp4178
(dp4179
g15
I0
sbsba(ics475_types
Instance
p4180
(dp4181
g10
(ics475_types
FeatureVector
p4182
(dp4183
g13
(dp4184
I33
F1.0
sI2
F48.33
sI3
F12.0
sI4
F1.0
sI5
F1.0
sI7
F1.0
sI8
F16.0
sI14
F110.0
sI16
F1.0
sI35
F1.0
sI20
F1.0
sI21
F1.0
sI22
F1.0
ssbsg15
g0
(g16
g2
Ntp4185
Rp4186
(dp4187
g15
I1
sbsba(ics475_types
Instance
p4188
(dp4189
g10
(ics475_types
FeatureVector
p4190
(dp4191
g13
(dp4192
I1
F1.0
sI2
F49.0
sI3
F1.5
sI4
F1.0
sI5
F1.0
sI33
F1.0
sI12
F1.0
sI13
F1.0
sI14
F100.0
sI15
F27.0
sI20
F1.0
sI28
F1.0
sI29
F1.0
ssbsg15
g0
(g16
g2
Ntp4193
Rp4194
(dp4195
g15
I0
sbsba(ics475_types
Instance
p4196
(dp4197
g10
(ics475_types
FeatureVector
p4198
(dp4199
g13
(dp4200
I1
F1.0
sI2
F28.67
sI3
F1.04
sI4
F1.0
sI5
F1.0
sI6
F1.0
sI7
F1.0
sI8
F2.5
sI10
F1.0
sI11
F5.0
sI12
F1.0
sI13
F1.0
sI14
F300.0
sI15
F1430.0
sI33
F1.0
ssbsg15
g0
(g16
g2
Ntp4201
Rp4202
(dp4203
g15
I1
sbsba(ics475_types
Instance
p4204
(dp4205
g10
(ics475_types
FeatureVector
p4206
(dp4207
g13
(dp4208
I1
F1.0
sI2
F22.75
sI3
F6.165
sI4
F1.0
sI5
F1.0
sI7
F1.0
sI8
F0.165
sI9
F1.0
sI13
F1.0
sI14
F220.0
sI15
F1000.0
sI20
F1.0
sI21
F1.0
sI37
F1.0
ssbsg15
g0
(g16
g2
Ntp4209
Rp4210
(dp4211
g15
I0
sbsba(ics475_types
Instance
p4212
(dp4213
g10
(ics475_types
FeatureVector
p4214
(dp4215
g13
(dp4216
I1
F1.0
sI2
F16.92
sI3
F0.5
sI4
F1.0
sI5
F1.0
sI7
F1.0
sI8
F0.165
sI9
F1.0
sI10
F1.0
sI11
F6.0
sI12
F1.0
sI13
F1.0
sI14
F240.0
sI15
F35.0
sI25
F1.0
ssbsg15
g0
(g16
g2
Ntp4217
Rp4218
(dp4219
g15
I0
sbsba(ics475_types
Instance
p4220
(dp4221
g10
(ics475_types
FeatureVector
p4222
(dp4223
g13
(dp4224
I1
F1.0
sI2
F20.42
sI3
F10.5
sI39
F1.0
sI9
F1.0
sI12
F1.0
sI13
F1.0
sI14
F154.0
sI15
F32.0
sI17
F1.0
sI18
F1.0
sI20
F1.0
sI27
F1.0
ssbsg15
g0
(g16
g2
Ntp4225
Rp4226
(dp4227
g15
I0
sbsba(ics475_types
Instance
p4228
(dp4229
g10
(ics475_types
FeatureVector
p4230
(dp4231
g13
(dp4232
I32
F1.0
sI2
F40.58
sI3
F1.5
sI4
F1.0
sI5
F1.0
sI9
F1.0
sI14
F300.0
sI16
F1.0
sI20
F1.0
sI21
F1.0
sI22
F1.0
sI25
F1.0
ssbsg15
g0
(g16
g2
Ntp4233
Rp4234
(dp4235
g15
I0
sbsba(ics475_types
Instance
p4236
(dp4237
g10
(ics475_types
FeatureVector
p4238
(dp4239
g13
(dp4240
I33
F1.0
sI2
F55.92
sI3
F11.5
sI4
F1.0
sI5
F1.0
sI8
F5.0
sI10
F1.0
sI11
F5.0
sI13
F1.0
sI15
F8851.0
sI16
F1.0
sI21
F1.0
sI23
F1.0
sI24
F1.0
ssbsg15
g0
(g16
g2
Ntp4241
Rp4242
(dp4243
g15
I1
sbsba(ics475_types
Instance
p4244
(dp4245
g10
(ics475_types
FeatureVector
p4246
(dp4247
g13
(dp4248
I32
F1.0
sI33
F1.0
sI2
F34.08
sI3
F0.08
sI8
F0.04
sI10
F1.0
sI11
F1.0
sI12
F1.0
sI13
F1.0
sI14
F280.0
sI15
F2000.0
sI16
F1.0
sI17
F1.0
sI18
F1.0
sI35
F1.0
ssbsg15
g0
(g16
g2
Ntp4249
Rp4250
(dp4251
g15
I1
sbsba(ics475_types
Instance
p4252
(dp4253
g10
(ics475_types
FeatureVector
p4254
(dp4255
g13
(dp4256
I32
F1.0
sI2
F43.17
sI3
F5.0
sI4
F1.0
sI5
F1.0
sI8
F2.25
sI9
F1.0
sI12
F1.0
sI13
F1.0
sI14
F141.0
sI16
F1.0
sI20
F1.0
sI25
F1.0
ssbsg15
g0
(g16
g2
Ntp4257
Rp4258
(dp4259
g15
I0
sbsba(ics475_types
Instance
p4260
(dp4261
g10
(ics475_types
FeatureVector
p4262
(dp4263
g13
(dp4264
I2
F29.58
sI3
F4.75
sI4
F1.0
sI5
F1.0
sI7
F1.0
sI8
F2.0
sI9
F1.0
sI10
F1.0
sI11
F1.0
sI12
F1.0
sI13
F1.0
sI14
F460.0
sI15
F68.0
sI16
F1.0
sI35
F1.0
ssbsg15
g0
(g16
g2
Ntp4265
Rp4266
(dp4267
g15
I0
sbsba(ics475_types
Instance
p4268
(dp4269
g10
(ics475_types
FeatureVector
p4270
(dp4271
g13
(dp4272
I1
F1.0
sI2
F41.58
sI3
F1.04
sI4
F1.0
sI5
F1.0
sI7
F1.0
sI8
F0.665
sI9
F1.0
sI13
F1.0
sI14
F240.0
sI15
F237.0
sI20
F1.0
sI21
F1.0
sI37
F1.0
ssbsg15
g0
(g16
g2
Ntp4273
Rp4274
(dp4275
g15
I0
sbsba(ics475_types
Instance
p4276
(dp4277
g10
(ics475_types
FeatureVector
p4278
(dp4279
g13
(dp4280
I2
F22.08
sI3
F2.335
sI4
F1.0
sI5
F1.0
sI7
F1.0
sI8
F0.75
sI9
F1.0
sI13
F1.0
sI14
F180.0
sI16
F1.0
sI19
F1.0
sI20
F1.0
sI21
F1.0
ssbsg15
g0
(g16
g2
Ntp4281
Rp4282
(dp4283
g15
I0
sbsba(ics475_types
Instance
p4284
(dp4285
g10
(ics475_types
FeatureVector
p4286
(dp4287
g13
(dp4288
I2
F26.33
sI3
F13.0
sI4
F1.0
sI5
F1.0
sI9
F1.0
sI43
F1.0
sI12
F1.0
sI13
F1.0
sI14
F140.0
sI15
F1110.0
sI16
F1.0
sI20
F1.0
sI41
F1.0
ssbsg15
g0
(g16
g2
Ntp4289
Rp4290
(dp4291
g15
I0
sbsba(ics475_types
Instance
p4292
(dp4293
g10
(ics475_types
FeatureVector
p4294
(dp4295
g13
(dp4296
I33
F1.0
sI2
F62.5
sI3
F12.75
sI6
F1.0
sI8
F5.0
sI13
F1.0
sI14
F112.0
sI16
F1.0
sI17
F1.0
sI18
F1.0
sI20
F1.0
sI21
F1.0
sI27
F1.0
ssbsg15
g0
(g16
g2
Ntp4297
Rp4298
(dp4299
g15
I0
sbsba(ics475_types
Instance
p4300
(dp4301
g10
(ics475_types
FeatureVector
p4302
(dp4303
g13
(dp4304
I33
F1.0
sI2
F40.25
sI3
F21.5
sI4
F1.0
sI5
F1.0
sI8
F20.0
sI41
F1.0
sI10
F1.0
sI11
F11.0
sI13
F1.0
sI15
F1200.0
sI16
F1.0
sI21
F1.0
sI42
F1.0
ssbsg15
g0
(g16
g2
Ntp4305
Rp4306
(dp4307
g15
I1
sbsba(ics475_types
Instance
p4308
(dp4309
g10
(ics475_types
FeatureVector
p4310
(dp4311
g13
(dp4312
I32
F1.0
sI1
F1.0
sI2
F47.0
sI3
F13.0
sI4
F1.0
sI5
F1.0
sI33
F1.0
sI8
F5.165
sI10
F1.0
sI11
F9.0
sI12
F1.0
sI13
F1.0
sI25
F1.0
ssbsg15
g0
(g16
g2
Ntp4313
Rp4314
(dp4315
g15
I1
sbsba(ics475_types
Instance
p4316
(dp4317
g10
(ics475_types
FeatureVector
p4318
(dp4319
g13
(dp4320
I1
F1.0
sI2
F25.75
sI3
F0.5
sI4
F1.0
sI5
F1.0
sI6
F1.0
sI33
F1.0
sI8
F0.875
sI12
F1.0
sI13
F1.0
sI14
F491.0
sI20
F1.0
sI27
F1.0
ssbsg15
g0
(g16
g2
Ntp4321
Rp4322
(dp4323
g15
I1
sbsba(ics475_types
Instance
p4324
(dp4325
g10
(ics475_types
FeatureVector
p4326
(dp4327
g13
(dp4328
I2
F16.33
sI3
F2.75
sI4
F1.0
sI5
F1.0
sI7
F1.0
sI8
F0.665
sI9
F1.0
sI10
F1.0
sI11
F1.0
sI13
F1.0
sI14
F80.0
sI15
F21.0
sI16
F1.0
sI21
F1.0
sI37
F1.0
ssbsg15
g0
(g16
g2
Ntp4329
Rp4330
(dp4331
g15
I0
sbsba(ics475_types
Instance
p4332
(dp4333
g10
(ics475_types
FeatureVector
p4334
(dp4335
g13
(dp4336
I33
F1.0
sI2
F25.75
sI3
F0.5
sI4
F1.0
sI5
F1.0
sI6
F1.0
sI7
F1.0
sI8
F1.46
sI10
F1.0
sI11
F5.0
sI12
F1.0
sI13
F1.0
sI14
F312.0
sI16
F1.0
ssbsg15
g0
(g16
g2
Ntp4337
Rp4338
(dp4339
g15
I1
sbsba(ics475_types
Instance
p4340
(dp4341
g10
(ics475_types
FeatureVector
p4342
(dp4343
g13
(dp4344
I2
F24.75
sI3
F0.54
sI4
F1.0
sI5
F1.0
sI7
F1.0
sI8
F1.0
sI9
F1.0
sI12
F1.0
sI13
F1.0
sI14
F120.0
sI15
F1.0
sI16
F1.0
sI35
F1.0
sI20
F1.0
ssbsg15
g0
(g16
g2
Ntp4345
Rp4346
(dp4347
g15
I0
sbsba(ics475_types
Instance
p4348
(dp4349
g10
(ics475_types
FeatureVector
p4350
(dp4351
g13
(dp4352
I33
F1.0
sI2
F21.0
sI3
F4.79
sI7
F1.0
sI8
F2.25
sI10
F1.0
sI11
F1.0
sI12
F1.0
sI13
F1.0
sI14
F80.0
sI15
F300.0
sI16
F1.0
sI17
F1.0
sI18
F1.0
sI31
F1.0
ssbsg15
g0
(g16
g2
Ntp4353
Rp4354
(dp4355
g15
I1
sbsba(ics475_types
Instance
p4356
(dp4357
g10
(ics475_types
FeatureVector
p4358
(dp4359
g13
(dp4360
I2
F21.08
sI3
F4.125
sI8
F0.04
sI9
F1.0
sI13
F1.0
sI14
F140.0
sI15
F100.0
sI16
F1.0
sI17
F1.0
sI18
F1.0
sI20
F1.0
sI21
F1.0
sI25
F1.0
sI27
F1.0
ssbsg15
g0
(g16
g2
Ntp4361
Rp4362
(dp4363
g15
I0
sbsba(ics475_types
Instance
p4364
(dp4365
g10
(ics475_types
FeatureVector
p4366
(dp4367
g13
(dp4368
I33
F1.0
sI2
F24.33
sI3
F6.625
sI7
F1.0
sI8
F5.5
sI12
F1.0
sI34
F1.0
sI14
F100.0
sI16
F1.0
sI17
F1.0
sI18
F1.0
sI20
F1.0
sI22
F1.0
ssbsg15
g0
(g16
g2
Ntp4369
Rp4370
(dp4371
g15
I1
sbsba(ics475_types
Instance
p4372
(dp4373
g10
(ics475_types
FeatureVector
p4374
(dp4375
g13
(dp4376
I2
F27.83
sI3
F1.5
sI4
F1.0
sI5
F1.0
sI7
F1.0
sI8
F2.25
sI9
F1.0
sI10
F1.0
sI11
F1.0
sI12
F1.0
sI13
F1.0
sI14
F100.0
sI15
F3.0
sI16
F1.0
sI31
F1.0
ssbsg15
g0
(g16
g2
Ntp4377
Rp4378
(dp4379
g15
I0
sbsba(ics475_types
Instance
p4380
(dp4381
g10
(ics475_types
FeatureVector
p4382
(dp4383
g13
(dp4384
I33
F1.0
sI2
F28.92
sI3
F15.0
sI4
F1.0
sI5
F1.0
sI6
F1.0
sI8
F5.335
sI10
F1.0
sI11
F11.0
sI13
F1.0
sI15
F2283.0
sI16
F1.0
sI21
F1.0
sI27
F1.0
ssbsg15
g0
(g16
g2
Ntp4385
Rp4386
(dp4387
g15
I1
sbsba(ics475_types
Instance
p4388
(dp4389
g10
(ics475_types
FeatureVector
p4390
(dp4391
g13
(dp4392
I1
F1.0
sI2
F33.08
sI3
F1.625
sI4
F1.0
sI5
F1.0
sI7
F1.0
sI8
F0.54
sI9
F1.0
sI12
F1.0
sI13
F1.0
sI34
F1.0
sI20
F1.0
ssbsg15
g0
(g16
g2
Ntp4393
Rp4394
(dp4395
g15
I0
sbsba(ics475_types
Instance
p4396
(dp4397
g10
(ics475_types
FeatureVector
p4398
(dp4399
g13
(dp4400
I32
F1.0
sI2
F26.75
sI3
F4.5
sI6
F1.0
sI8
F2.5
sI9
F1.0
sI13
F1.0
sI14
F200.0
sI15
F1210.0
sI16
F1.0
sI17
F1.0
sI18
F1.0
sI20
F1.0
sI21
F1.0
ssbsg15
g0
(g16
g2
Ntp4401
Rp4402
(dp4403
g15
I0
sbsba(ics475_types
Instance
p4404
(dp4405
g10
(ics475_types
FeatureVector
p4406
(dp4407
g13
(dp4408
I32
F1.0
sI33
F1.0
sI2
F56.58
sI3
F18.5
sI4
F1.0
sI5
F1.0
sI8
F15.0
sI10
F1.0
sI11
F17.0
sI12
F1.0
sI13
F1.0
sI16
F1.0
sI34
F1.0
ssbsg15
g0
(g16
g2
Ntp4409
Rp4410
(dp4411
g15
I1
sbsbasS'k'
p4412
I5
sS'possibility'
p4413
(dp4414
I1
I1
sI2
I1
sI3
I1
sI4
I1
sI5
I1
sI6
I1
sI7
I1
sI8
I1
sI9
I1
sI10
I1
sI11
I1
sI12
I1
sI13
I1
sI14
I1
sI15
I1
sI16
I1
sI17
I1
sI18
I1
sI19
I1
sI20
I1
sI21
I1
sI22
I1
sI23
I1
sI24
I1
sI25
I1
sI26
I1
sI27
I1
sI28
I1
sI29
I1
sI30
I1
sI31
I1
sI32
I1
sI33
I1
sI34
I1
sI35
I1
sI36
I1
sI37
I1
sI38
I1
sI39
I1
sI40
I1
sI41
I1
sI42
I1
sI43
I1
sI44
I1
sI45
I1
sI46
I1
ssb.