ccopy_reg
_reconstructor
p0
(cadaboost
ADABOOST
p1
c__builtin__
object
p2
Ntp3
Rp4
(dp5
S'alpha'
p6
(lp7
F0.752038698388137
aF0.28527242923380625
asS'D'
p8
(lp9
F0.04347826086956522
aF0.04347826086956522
aF0.34615384615384603
aF0.04347826086956522
aF0.04347826086956522
aF0.04347826086956522
aF0.04347826086956522
aF0.0769230769230769
aF0.0769230769230769
aF0.04347826086956522
aF0.1956521739130435
asS'H'
p10
(lp11
(I2
I-1
I1
F-4.0
F0.18181818181818182
I9
tp12
a(I1
I-1
I1
F-1.125
F0.3611111111111112
I8
tp13
asS'T'
p14
I2
sb.