ccopy_reg
_reconstructor
p0
(cknn
DISTANCE_KNN
p1
c__builtin__
object
p2
Ntp3
Rp4
(dp5
S'instances'
p6
(lp7
(ics475_types
Instance
p8
(dp9
S'_feature_vector'
p10
(ics475_types
FeatureVector
p11
(dp12
S'sparseVec'
p13
(dp14
I1
F76.0
sI2
F198.0
sI3
F9.0
sI6
F1.7777778
sI7
F1.2049282
sI8
F1.5000001
sI9
F0.69121444
sI10
F14.555555
sI11
F12.111111
sI12
F11.777778
sI13
F19.777779
sI14
F-7.3333335
sI15
F-8.333333
sI16
F15.666667
sI17
F19.777779
sI18
F0.4115727
sI19
F2.0556724
ssbsS'_label'
p15
g0
(ccs475_types
ClassificationLabel
p16
g2
Ntp17
Rp18
(dp19
g15
I1
sbsba(ics475_types
Instance
p20
(dp21
g10
(ics475_types
FeatureVector
p22
(dp23
g13
(dp24
I1
F113.0
sI2
F132.0
sI3
F9.0
sI6
F0.44444442
sI7
F0.3442652
sI8
F0.38888887
sI9
F0.5340273
sI10
F1.2962962
sI12
F3.4444444
sI13
F0.44444445
sI14
F-3.8888888
sI15
F6.4444447
sI16
F-2.5555556
sI17
F3.4444444
sI18
F1.0
sI19
F-2.204847
ssbsg15
g0
(g16
g2
Ntp25
Rp26
(dp27
g15
I0
sbsba(ics475_types
Instance
p28
(dp29
g10
(ics475_types
FeatureVector
p30
(dp31
g13
(dp32
I1
F49.0
sI2
F139.0
sI3
F9.0
sI6
F0.16666669
sI7
F0.07777779
sI8
F0.33333337
sI9
F0.0888889
sI10
F0.44444445
sI12
F1.3333334
sI14
F-1.3333334
sI15
F2.6666667
sI16
F-1.3333334
sI17
F1.3333334
sI18
F0.7777778
sI19
F-2.0943952
ssbsg15
g0
(g16
g2
Ntp33
Rp34
(dp35
g15
I0
sbsba(ics475_types
Instance
p36
(dp37
g10
(ics475_types
FeatureVector
p38
(dp39
g13
(dp40
I1
F62.0
sI2
F224.0
sI3
F9.0
sI6
F0.9444445
sI7
F1.083547
sI8
F2.3333335
sI9
F1.6329932
sI10
F14.62963
sI11
F13.222222
sI12
F11.444445
sI13
F19.222221
sI14
F-4.2222223
sI15
F-9.555555
sI16
F13.777778
sI17
F19.222221
sI18
F0.40896538
sI19
F1.8601909
ssbsg15
g0
(g16
g2
Ntp41
Rp42
(dp43
g15
I1
sbsba(ics475_types
Instance
p44
(dp45
g10
(ics475_types
FeatureVector
p46
(dp47
g13
(dp48
I1
F13.0
sI2
F83.0
sI3
F9.0
sI6
F0.83333325
sI7
F0.54772246
sI8
F0.6666666
sI9
F0.63245547
sI10
F3.7037036
sI11
F1.5555556
sI12
F6.0
sI13
F3.5555556
sI14
F-6.4444447
sI15
F6.888889
sI16
F-0.44444445
sI17
F6.0
sI18
F0.7404762
sI19
F-2.5733812
ssbsg15
g0
(g16
g2
Ntp49
Rp50
(dp51
g15
I0
sbsba(ics475_types
Instance
p52
(dp53
g10
(ics475_types
FeatureVector
p54
(dp55
g13
(dp56
I1
F64.0
sI2
F114.0
sI3
F9.0
sI6
F5.166667
sI7
F6.320163
sI8
F8.833333
sI9
F8.66859
sI10
F29.814816
sI11
F18.333334
sI12
F47.22222
sI13
F23.88889
sI14
F-34.444443
sI15
F52.22222
sI16
F-17.777779
sI17
F47.22222
sI18
F0.62924504
sI19
F-2.2953806
ssbsg15
g0
(g16
g2
Ntp57
Rp58
(dp59
g15
I0
sbsba(ics475_types
Instance
p60
(dp61
g10
(ics475_types
FeatureVector
p62
(dp63
g13
(dp64
I1
F37.0
sI2
F167.0
sI3
F9.0
sI6
F0.888889
sI7
F0.56296337
sI8
F7.5555553
sI9
F4.6074057
sI10
F14.074074
sI11
F11.666667
sI12
F16.777779
sI13
F13.777778
sI14
F-7.2222223
sI15
F8.111111
sI16
F-0.8888889
sI17
F17.666668
sI18
F0.31450674
sI19
F-3.015081
ssbsg15
g0
(g16
g2
Ntp65
Rp66
(dp67
g15
I1
sbsba(ics475_types
Instance
p68
(dp69
g10
(ics475_types
FeatureVector
p70
(dp71
g13
(dp72
I1
F47.0
sI2
F119.0
sI3
F9.0
sI4
F0.11111111
sI6
F2.2777777
sI7
F2.2746592
sI8
F1.3333334
sI9
F1.3824296
sI10
F4.3703704
sI11
F2.1111112
sI12
F6.7777777
sI13
F4.2222223
sI14
F-6.7777777
sI15
F7.2222223
sI16
F-0.44444445
sI17
F6.7777777
sI18
F0.7329263
sI19
F-2.587228
ssbsg15
g0
(g16
g2
Ntp73
Rp74
(dp75
g15
I0
sbsba(ics475_types
Instance
p76
(dp77
g10
(ics475_types
FeatureVector
p78
(dp79
g13
(dp80
I1
F182.0
sI2
F197.0
sI3
F9.0
sI4
F0.11111111
sI6
F2.166667
sI7
F0.69121456
sI8
F2.3888888
sI9
F1.5834798
sI10
F12.851851
sI11
F10.444445
sI12
F12.777778
sI13
F15.333333
sI14
F-7.2222223
sI15
F-0.22222222
sI16
F7.4444447
sI17
F15.333333
sI18
F0.322069
sI19
F2.6282077
ssbsg15
g0
(g16
g2
Ntp81
Rp82
(dp83
g15
I1
sbsba(ics475_types
Instance
p84
(dp85
g10
(ics475_types
FeatureVector
p86
(dp87
g13
(dp88
I1
F116.0
sI2
F245.0
sI3
F9.0
sI6
F2.277778
sI7
F1.1626909
sI8
F2.2777777
sI9
F1.496911
sI10
F16.37037
sI11
F13.555555
sI12
F14.333333
sI13
F21.222221
sI14
F-8.444445
sI15
F-6.111111
sI16
F14.555555
sI17
F21.222221
sI18
F0.38490298
sI19
F2.1980507
ssbsg15
g0
(g16
g2
Ntp89
Rp90
(dp91
g15
I1
sbsba(ics475_types
Instance
p92
(dp93
g10
(ics475_types
FeatureVector
p94
(dp95
g13
(dp96
I1
F240.0
sI2
F79.0
sI3
F9.0
sI6
F16.277779
sI7
F40.862957
sI8
F14.166667
sI9
F155.3222
sI10
F32.77778
sI11
F24.333334
sI12
F45.77778
sI13
F28.222221
sI14
F-25.333334
sI15
F39.0
sI16
F-13.666667
sI17
F45.77778
sI18
F0.48906165
sI19
F-2.2862954
ssbsg15
g0
(g16
g2
Ntp97
Rp98
(dp99
g15
I0
sbsba(ics475_types
Instance
p100
(dp101
g10
(ics475_types
FeatureVector
p102
(dp103
g13
(dp104
I1
F30.0
sI2
F251.0
sI3
F9.0
sI6
F2.444444
sI7
F1.8816857
sI8
F8.0
sI9
F1.6055425
sI10
F20.666666
sI11
F21.444445
sI12
F17.777779
sI13
F22.777779
sI14
F2.3333333
sI15
F-8.666667
sI16
F6.3333335
sI17
F22.777779
sI18
F0.23141664
sI19
F1.2870604
ssbsg15
g0
(g16
g2
Ntp105
Rp106
(dp107
g15
I1
sbsba(ics475_types
Instance
p108
(dp109
g10
(ics475_types
FeatureVector
p110
(dp111
g13
(dp112
I1
F2.0
sI2
F114.0
sI3
F9.0
sI6
F0.8333333
sI7
F0.12222227
sI8
F0.27777782
sI9
F0.06296296
sI10
F1.7407408
sI11
F0.7777778
sI12
F3.8888888
sI13
F0.5555556
sI14
F-2.8888888
sI15
F6.4444447
sI16
F-3.5555556
sI17
F3.8888888
sI18
F0.88148147
sI19
F-2.0270298
ssbsg15
g0
(g16
g2
Ntp113
Rp114
(dp115
g15
I0
sbsba(ics475_types
Instance
p116
(dp117
g10
(ics475_types
FeatureVector
p118
(dp119
g13
(dp120
I1
F160.0
sI2
F210.0
sI3
F9.0
sI6
F1.611111
sI7
F1.129629
sI8
F1.222222
sI9
F1.0074075
sI10
F17.481482
sI11
F13.777778
sI12
F16.0
sI13
F22.666666
sI14
F-11.111111
sI15
F-4.4444447
sI16
F15.555555
sI17
F22.666666
sI18
F0.40393806
sI19
F2.3864515
ssbsg15
g0
(g16
g2
Ntp121
Rp122
(dp123
g15
I1
sbsba(ics475_types
Instance
p124
(dp125
g10
(ics475_types
FeatureVector
p126
(dp127
g13
(dp128
I1
F116.0
sI2
F203.0
sI3
F9.0
sI6
F3.0555553
sI7
F1.9484084
sI8
F2.9444437
sI9
F1.7564695
sI10
F19.518518
sI11
F15.444445
sI12
F17.666668
sI13
F25.444445
sI14
F-12.222222
sI15
F-5.5555553
sI16
F17.777779
sI17
F25.444445
sI18
F0.39386794
sI19
F2.320382
ssbsg15
g0
(g16
g2
Ntp129
Rp130
(dp131
g15
I1
sbsba(ics475_types
Instance
p132
(dp133
g10
(ics475_types
FeatureVector
p134
(dp135
g13
(dp136
I1
F11.0
sI2
F163.0
sI3
F9.0
sI6
F1.0555553
sI7
F0.928958
sI8
F2.5000002
sI9
F1.3123353
sI10
F19.814816
sI11
F17.444445
sI12
F16.666668
sI13
F25.333334
sI14
F-7.111111
sI15
F-9.444445
sI16
F16.555555
sI17
F25.333334
sI18
F0.34426668
sI19
F2.0016809
ssbsg15
g0
(g16
g2
Ntp137
Rp138
(dp139
g15
I1
sbsba(ics475_types
Instance
p140
(dp141
g10
(ics475_types
FeatureVector
p142
(dp143
g13
(dp144
I1
F132.0
sI2
F223.0
sI3
F9.0
sI6
F2.1111112
sI7
F0.72008204
sI8
F1.7777777
sI9
F0.9349196
sI10
F16.518518
sI11
F13.222222
sI12
F13.444445
sI13
F22.88889
sI14
F-9.888889
sI15
F-9.222222
sI16
F19.11111
sI17
F22.88889
sI18
F0.43312526
sI19
F2.1195462
ssbsg15
g0
(g16
g2
Ntp145
Rp146
(dp147
g15
I1
sbsba(ics475_types
Instance
p148
(dp149
g10
(ics475_types
FeatureVector
p150
(dp151
g13
(dp152
I1
F212.0
sI2
F234.0
sI3
F9.0
sI6
F0.4444445
sI7
F0.11851848
sI8
F1.0555555
sI9
F0.28518525
sI10
F7.111111
sI11
F6.0
sI12
F4.2222223
sI13
F11.111111
sI14
F-3.3333333
sI15
F-8.666667
sI16
F12.0
sI17
F11.111111
sI18
F0.62132436
sI19
F1.8382597
ssbsg15
g0
(g16
g2
Ntp153
Rp154
(dp155
g15
I1
sbsba(ics475_types
Instance
p156
(dp157
g10
(ics475_types
FeatureVector
p158
(dp159
g13
(dp160
I1
F26.0
sI2
F211.0
sI3
F9.0
sI6
F1.6666666
sI7
F1.4666667
sI8
F1.6666669
sI9
F1.8222221
sI10
F16.37037
sI11
F13.777778
sI12
F14.666667
sI13
F20.666668
sI14
F-7.7777777
sI15
F-5.111111
sI16
F12.888889
sI17
F20.666668
sI18
F0.33385554
sI19
F2.239034
ssbsg15
g0
(g16
g2
Ntp161
Rp162
(dp163
g15
I1
sbsba(ics475_types
Instance
p164
(dp165
g10
(ics475_types
FeatureVector
p166
(dp167
g13
(dp168
I1
F223.0
sI2
F185.0
sI3
F9.0
sI6
F0.5
sI7
F0.34960312
sI8
F2.3888886
sI9
F2.0807757
sI10
F12.962963
sI11
F11.555555
sI12
F9.777778
sI13
F17.555555
sI14
F-4.2222223
sI15
F-9.555555
sI16
F13.777778
sI17
F17.555555
sI18
F0.44541803
sI19
F1.8388497
ssbsg15
g0
(g16
g2
Ntp169
Rp170
(dp171
g15
I1
sbsba(ics475_types
Instance
p172
(dp173
g10
(ics475_types
FeatureVector
p174
(dp175
g13
(dp176
I1
F233.0
sI2
F184.0
sI3
F9.0
sI6
F0.5000002
sI7
F0.077777766
sI8
F0.7777777
sI9
F0.785185
sI10
F11.851851
sI11
F9.777778
sI12
F9.888889
sI13
F15.888889
sI14
F-6.2222223
sI15
F-5.888889
sI16
F12.111111
sI17
F15.888889
sI18
F0.40555555
sI19
F2.1286457
ssbsg15
g0
(g16
g2
Ntp177
Rp178
(dp179
g15
I1
sbsba(ics475_types
Instance
p180
(dp181
g10
(ics475_types
FeatureVector
p182
(dp183
g13
(dp184
I1
F172.0
sI2
F218.0
sI3
F9.0
sI6
F2.5555556
sI7
F2.42963
sI8
F1.6111108
sI9
F2.418518
sI10
F14.925926
sI11
F11.888889
sI12
F13.777778
sI13
F19.11111
sI14
F-9.111111
sI15
F-3.4444444
sI16
F12.555555
sI17
F19.11111
sI18
F0.38645566
sI19
F2.362146
ssbsg15
g0
(g16
g2
Ntp185
Rp186
(dp187
g15
I1
sbsba(ics475_types
Instance
p188
(dp189
g10
(ics475_types
FeatureVector
p190
(dp191
g13
(dp192
I1
F9.0
sI2
F236.0
sI3
F9.0
sI6
F1.8333335
sI7
F3.455556
sI8
F3.0555553
sI9
F5.5296316
sI10
F11.074074
sI11
F9.444445
sI12
F9.444445
sI13
F14.333333
sI14
F-4.888889
sI15
F-4.888889
sI16
F9.777778
sI17
F14.333333
sI18
F0.37655354
sI19
F2.0832295
ssbsg15
g0
(g16
g2
Ntp193
Rp194
(dp195
g15
I1
sbsba(ics475_types
Instance
p196
(dp197
g10
(ics475_types
FeatureVector
p198
(dp199
g13
(dp200
I1
F67.0
sI2
F136.0
sI3
F9.0
sI6
F6.722223
sI7
F3.7083488
sI8
F2.6666667
sI9
F3.1972213
sI10
F15.518518
sI11
F9.0
sI12
F25.333334
sI13
F12.222222
sI14
F-19.555555
sI15
F29.444445
sI16
F-9.888889
sI17
F25.333334
sI18
F0.66081303
sI19
F-2.3075109
ssbsg15
g0
(g16
g2
Ntp201
Rp202
(dp203
g15
I0
sbsba(ics475_types
Instance
p204
(dp205
g10
(ics475_types
FeatureVector
p206
(dp207
g13
(dp208
I1
F6.0
sI2
F174.0
sI3
F9.0
sI6
F1.8888888
sI7
F1.0074061
sI8
F2.8888886
sI9
F4.0296297
sI10
F19.074074
sI11
F15.111111
sI12
F17.777779
sI13
F24.333334
sI14
F-11.888889
sI15
F-3.8888888
sI16
F15.777778
sI17
F24.333334
sI18
F0.38186744
sI19
F2.3950183
ssbsg15
g0
(g16
g2
Ntp209
Rp210
(dp211
g15
I1
sbsba(ics475_types
Instance
p212
(dp213
g10
(ics475_types
FeatureVector
p214
(dp215
g13
(dp216
I1
F140.0
sI2
F181.0
sI3
F9.0
sI4
F0.11111111
sI6
F0.8333333
sI7
F0.47777775
sI8
F1.2777777
sI9
F1.7074063
sI10
F19.296297
sI11
F15.444445
sI12
F18.444445
sI13
F24.0
sI14
F-11.555555
sI15
F-2.5555556
sI16
F14.111111
sI17
F24.0
sI18
F0.3576681
sI19
F2.4584713
ssbsg15
g0
(g16
g2
Ntp217
Rp218
(dp219
g15
I1
sbsba(ics475_types
Instance
p220
(dp221
g10
(ics475_types
FeatureVector
p222
(dp223
g13
(dp224
I1
F2.0
sI2
F245.0
sI3
F9.0
sI6
F1.8888888
sI7
F2.162963
sI8
F3.1666667
sI9
F3.2777781
sI10
F6.4074073
sI11
F6.2222223
sI12
F6.0
sI13
F7.0
sI14
F-0.5555556
sI15
F-1.2222222
sI16
F1.7777778
sI17
F7.2222223
sI18
F0.19104938
sI19
F1.7566451
ssbsg15
g0
(g16
g2
Ntp225
Rp226
(dp227
g15
I1
sbsba(ics475_types
Instance
p228
(dp229
g10
(ics475_types
FeatureVector
p230
(dp231
g13
(dp232
I1
F128.0
sI2
F116.0
sI3
F9.0
sI6
F0.77777785
sI7
F0.6962963
sI8
F0.8333333
sI9
F0.9222224
sI10
F1.962963
sI11
F0.22222222
sI12
F5.0
sI13
F0.6666667
sI14
F-5.2222223
sI15
F9.111111
sI16
F-3.8888888
sI17
F5.0
sI18
F0.9702381
sI19
F-2.1634343
ssbsg15
g0
(g16
g2
Ntp233
Rp234
(dp235
g15
I0
sbsba(ics475_types
Instance
p236
(dp237
g10
(ics475_types
FeatureVector
p238
(dp239
g13
(dp240
I1
F98.0
sI2
F144.0
sI3
F9.0
sI6
F0.22222221
sI7
F0.029629648
sI8
F0.33333334
sI9
F0.08888887
sI10
F1.0
sI12
F3.0
sI14
F-3.0
sI15
F6.0
sI16
F-3.0
sI17
F3.0
sI18
F1.0
sI19
F-2.0943952
ssbsg15
g0
(g16
g2
Ntp241
Rp242
(dp243
g15
I0
sbsba(ics475_types
Instance
p244
(dp245
g10
(ics475_types
FeatureVector
p246
(dp247
g13
(dp248
I1
F162.0
sI2
F237.0
sI3
F9.0
sI4
F0.11111111
sI6
F2.2777777
sI7
F1.1434193
sI8
F2.6666667
sI9
F2.564718
sI10
F13.222222
sI11
F10.888889
sI12
F10.0
sI13
F18.777779
sI14
F-7.0
sI15
F-9.666667
sI16
F16.666666
sI17
F18.777779
sI18
F0.47282594
sI19
F1.9903806
ssbsg15
g0
(g16
g2
Ntp249
Rp250
(dp251
g15
I1
sbsba(ics475_types
Instance
p252
(dp253
g10
(ics475_types
FeatureVector
p254
(dp255
g13
(dp256
I1
F59.0
sI2
F141.0
sI3
F9.0
sI4
F0.11111111
sI6
F2.3888888
sI7
F1.540803
sI8
F2.1666667
sI9
F1.278019
sI10
F12.666667
sI11
F7.888889
sI12
F18.555555
sI13
F11.555555
sI14
F-14.333333
sI15
F17.666666
sI16
F-3.3333333
sI17
F18.555555
sI18
F0.58577543
sI19
F-2.4515712
ssbsg15
g0
(g16
g2
Ntp257
Rp258
(dp259
g15
I0
sbsba(ics475_types
Instance
p260
(dp261
g10
(ics475_types
FeatureVector
p262
(dp263
g13
(dp264
I1
F46.0
sI2
F235.0
sI3
F9.0
sI6
F1.9444445
sI7
F1.8407409
sI8
F1.7222223
sI9
F3.574073
sI10
F10.888889
sI11
F7.5555553
sI12
F9.333334
sI13
F15.777778
sI14
F-10.0
sI15
F-4.6666665
sI16
F14.666667
sI17
F15.777778
sI18
F0.5203994
sI19
F2.3162425
ssbsg15
g0
(g16
g2
Ntp265
Rp266
(dp267
g15
I1
sbsba(ics475_types
Instance
p268
(dp269
g10
(ics475_types
FeatureVector
p270
(dp271
g13
(dp272
I1
F118.0
sI2
F109.0
sI3
F9.0
sI5
F0.11111111
sI6
F3.5555553
sI7
F2.6555324
sI8
F3.9999993
sI9
F3.0840094
sI10
F13.296296
sI11
F7.0
sI12
F22.333334
sI13
F10.555555
sI14
F-18.88889
sI15
F27.11111
sI16
F-8.222222
sI17
F22.333334
sI18
F0.694627
sI19
F-2.3440928
ssbsg15
g0
(g16
g2
Ntp273
Rp274
(dp275
g15
I0
sbsba(ics475_types
Instance
p276
(dp277
g10
(ics475_types
FeatureVector
p278
(dp279
g13
(dp280
I1
F124.0
sI2
F101.0
sI3
F9.0
sI5
F0.11111111
sI6
F3.3888886
sI7
F27.97407
sI8
F6.4444447
sI9
F59.496284
sI10
F10.185185
sI11
F5.7777777
sI12
F15.555555
sI13
F9.222222
sI14
F-13.222222
sI15
F16.11111
sI16
F-2.8888888
sI17
F15.555555
sI18
F0.70008737
sI19
F-2.4480398
ssbsg15
g0
(g16
g2
Ntp281
Rp282
(dp283
g15
I0
sbsba(ics475_types
Instance
p284
(dp285
g10
(ics475_types
FeatureVector
p286
(dp287
g13
(dp288
I1
F17.0
sI2
F110.0
sI3
F9.0
sI4
F0.11111111
sI6
F1.2777778
sI7
F1.2629629
sI8
F2.7222223
sI9
F2.9962952
sI10
F3.9629629
sI11
F1.4444444
sI12
F6.4444447
sI13
F4.0
sI14
F-7.5555553
sI15
F7.4444447
sI16
F0.11111111
sI17
F6.4444447
sI18
F0.80665785
sI19
F-2.6186507
ssbsg15
g0
(g16
g2
Ntp289
Rp290
(dp291
g15
I0
sbsba(ics475_types
Instance
p292
(dp293
g10
(ics475_types
FeatureVector
p294
(dp295
g13
(dp296
I1
F237.0
sI2
F191.0
sI3
F9.0
sI6
F1.0
sI7
F0.31111106
sI8
F1.5
sI9
F1.0111109
sI10
F7.3333335
sI11
F5.3333335
sI12
F5.4444447
sI13
F11.222222
sI14
F-6.0
sI15
F-5.6666665
sI16
F11.666667
sI17
F11.222222
sI18
F0.5358197
sI19
F2.1224225
ssbsg15
g0
(g16
g2
Ntp297
Rp298
(dp299
g15
I1
sbsba(ics475_types
Instance
p300
(dp301
g10
(ics475_types
FeatureVector
p302
(dp303
g13
(dp304
I1
F151.0
sI2
F187.0
sI3
F9.0
sI6
F1.2222222
sI7
F0.74074084
sI8
F2.0555556
sI9
F1.0407399
sI10
F11.62963
sI11
F9.333334
sI12
F9.666667
sI13
F15.888889
sI14
F-6.888889
sI15
F-5.888889
sI16
F12.777778
sI17
F15.888889
sI18
F0.42836255
sI19
F2.1566393
ssbsg15
g0
(g16
g2
Ntp305
Rp306
(dp307
g15
I1
sbsba(ics475_types
Instance
p308
(dp309
g10
(ics475_types
FeatureVector
p310
(dp311
g13
(dp312
I1
F27.0
sI2
F106.0
sI3
F9.0
sI6
F0.6111111
sI7
F0.41851848
sI8
F1.2777778
sI9
F0.5962963
sI10
F2.1851852
sI11
F0.33333334
sI12
F4.888889
sI13
F1.3333334
sI14
F-5.5555553
sI15
F8.111111
sI16
F-2.5555556
sI17
F4.888889
sI18
F0.9517196
sI19
F-2.2740705
ssbsg15
g0
(g16
g2
Ntp313
Rp314
(dp315
g15
I0
sbsba(ics475_types
Instance
p316
(dp317
g10
(ics475_types
FeatureVector
p318
(dp319
g13
(dp320
I1
F214.0
sI2
F246.0
sI3
F9.0
sI6
F2.8333328
sI7
F1.9177537
sI8
F2.9999993
sI9
F1.988857
sI10
F17.518518
sI11
F14.222222
sI12
F15.444445
sI13
F22.88889
sI14
F-9.888889
sI15
F-6.2222223
sI16
F16.11111
sI17
F22.88889
sI18
F0.39154765
sI19
F2.2328491
ssbsg15
g0
(g16
g2
Ntp321
Rp322
(dp323
g15
I1
sbsba(ics475_types
Instance
p324
(dp325
g10
(ics475_types
FeatureVector
p326
(dp327
g13
(dp328
I1
F10.0
sI2
F112.0
sI3
F9.0
sI6
F0.33333334
sI7
F0.42163706
sI8
F0.50000006
sI9
F0.1825741
sI10
F0.44444445
sI12
F1.2222222
sI13
F0.11111111
sI14
F-1.3333334
sI15
F2.3333333
sI16
F-1.0
sI17
F1.2222222
sI18
F0.6666667
sI19
F-2.1519136
ssbsg15
g0
(g16
g2
Ntp329
Rp330
(dp331
g15
I0
sbsba(ics475_types
Instance
p332
(dp333
g10
(ics475_types
FeatureVector
p334
(dp335
g13
(dp336
I1
F118.0
sI2
F167.0
sI3
F9.0
sI4
F0.11111111
sI6
F0.88888866
sI7
F0.5185182
sI8
F2.0555553
sI9
F0.99629617
sI10
F14.592592
sI11
F12.888889
sI12
F13.777778
sI13
F17.11111
sI14
F-5.111111
sI15
F-2.4444444
sI16
F7.5555553
sI17
F17.11111
sI18
F0.24844901
sI19
F2.3057292
ssbsg15
g0
(g16
g2
Ntp337
Rp338
(dp339
g15
I1
sbsba(ics475_types
Instance
p340
(dp341
g10
(ics475_types
FeatureVector
p342
(dp343
g13
(dp344
I1
F215.0
sI2
F123.0
sI3
F9.0
sI6
F0.33333334
sI7
F0.13333334
sI8
F0.6666667
sI9
F0.0444444
sI10
F1.3703704
sI12
F3.7777777
sI13
F0.33333334
sI14
F-4.111111
sI15
F7.2222223
sI16
F-3.1111112
sI17
F3.7777777
sI18
F1.0
sI19
F-2.1698651
ssbsg15
g0
(g16
g2
Ntp345
Rp346
(dp347
g15
I0
sbsba(ics475_types
Instance
p348
(dp349
g10
(ics475_types
FeatureVector
p350
(dp351
g13
(dp352
I1
F132.0
sI2
F124.0
sI3
F9.0
sI6
F0.22222221
sI7
F0.074074075
sI8
F0.22222221
sI9
F0.074074045
sI10
F1.074074
sI12
F3.2222223
sI14
F-3.2222223
sI15
F6.4444447
sI16
F-3.2222223
sI17
F3.2222223
sI18
F1.0
sI19
F-2.0943952
ssbsg15
g0
(g16
g2
Ntp353
Rp354
(dp355
g15
I0
sbsba(ics475_types
Instance
p356
(dp357
g10
(ics475_types
FeatureVector
p358
(dp359
g13
(dp360
I1
F2.0
sI2
F88.0
sI3
F9.0
sI6
F3.611111
sI7
F7.218519
sI8
F2.4999998
sI9
F5.855556
sI10
F7.7777777
sI11
F3.5555556
sI12
F13.333333
sI13
F6.4444447
sI14
F-12.666667
sI15
F16.666666
sI16
F-4.0
sI17
F13.333333
sI18
F0.7547033
sI19
F-2.3944926
ssbsg15
g0
(g16
g2
Ntp361
Rp362
(dp363
g15
I0
sbsba(ics475_types
Instance
p364
(dp365
g10
(ics475_types
FeatureVector
p366
(dp367
g13
(dp368
I1
F222.0
sI2
F194.0
sI3
F9.0
sI6
F2.2777774
sI7
F1.1434193
sI8
F2.2777777
sI9
F1.4207466
sI10
F20.185184
sI11
F16.555555
sI12
F17.88889
sI13
F26.11111
sI14
F-10.888889
sI15
F-6.888889
sI16
F17.777779
sI17
F26.11111
sI18
F0.3721296
sI19
F2.224382
ssbsg15
g0
(g16
g2
Ntp369
Rp370
(dp371
g15
I1
sbsba(ics475_types
Instance
p372
(dp373
g10
(ics475_types
FeatureVector
p374
(dp375
g13
(dp376
I1
F127.0
sI2
F143.0
sI3
F9.0
sI6
F1.5
sI7
F0.12222214
sI8
F0.88888884
sI9
F0.60740745
sI10
F4.185185
sI11
F0.8888889
sI12
F9.444445
sI13
F2.2222223
sI14
F-9.888889
sI15
F15.777778
sI16
F-5.888889
sI17
F9.444445
sI18
F0.915376
sI19
F-2.2574124
ssbsg15
g0
(g16
g2
Ntp377
Rp378
(dp379
g15
I0
sbsba(ics475_types
Instance
p380
(dp381
g10
(ics475_types
FeatureVector
p382
(dp383
g13
(dp384
I1
F205.0
sI2
F156.0
sI3
F9.0
sI6
F2.1666667
sI7
F1.2777781
sI8
F2.0
sI9
F2.3555562
sI10
F18.25926
sI11
F13.444445
sI12
F17.333334
sI13
F24.0
sI14
F-14.444445
sI15
F-2.7777777
sI16
F17.222221
sI17
F24.0
sI18
F0.44057688
sI19
F2.47582
ssbsg15
g0
(g16
g2
Ntp385
Rp386
(dp387
g15
I1
sbsba(ics475_types
Instance
p388
(dp389
g10
(ics475_types
FeatureVector
p390
(dp391
g13
(dp392
I1
F238.0
sI2
F211.0
sI3
F9.0
sI4
F0.11111111
sI6
F1.0555559
sI7
F0.49065375
sI8
F1.6111113
sI9
F1.2546215
sI10
F20.518518
sI11
F16.11111
sI12
F19.222221
sI13
F26.222221
sI14
F-13.222222
sI15
F-3.8888888
sI16
F17.11111
sI17
F26.222221
sI18
F0.38528243
sI19
F2.4163542
ssbsg15
g0
(g16
g2
Ntp393
Rp394
(dp395
g15
I1
sbsba(ics475_types
Instance
p396
(dp397
g10
(ics475_types
FeatureVector
p398
(dp399
g13
(dp400
I1
F239.0
sI2
F123.0
sI3
F9.0
sI6
F0.5
sI7
F0.077777736
sI8
F0.5
sI9
F0.16666667
sI10
F1.5185186
sI12
F4.2222223
sI13
F0.33333334
sI14
F-4.5555553
sI15
F8.111111
sI16
F-3.5555556
sI17
F4.2222223
sI18
F1.0
sI19
F-2.1640944
ssbsg15
g0
(g16
g2
Ntp401
Rp402
(dp403
g15
I0
sbsba(ics475_types
Instance
p404
(dp405
g10
(ics475_types
FeatureVector
p406
(dp407
g13
(dp408
I1
F58.0
sI2
F125.0
sI3
F9.0
sI6
F2.1666667
sI7
F1.1105559
sI8
F1.0555559
sI9
F0.90472007
sI10
F18.555555
sI11
F11.111111
sI12
F30.666666
sI13
F13.888889
sI14
F-22.333334
sI15
F36.333332
sI16
F-14.0
sI17
F30.666666
sI18
F0.6384555
sI19
F-2.2419562
ssbsg15
g0
(g16
g2
Ntp409
Rp410
(dp411
g15
I0
sbsba(ics475_types
Instance
p412
(dp413
g10
(ics475_types
FeatureVector
p414
(dp415
g13
(dp416
I1
F146.0
sI2
F238.0
sI3
F9.0
sI6
F2.0555556
sI7
F0.59629667
sI8
F2.6666665
sI9
F1.8666656
sI10
F17.777779
sI11
F15.0
sI12
F16.555555
sI13
F21.777779
sI14
F-8.333333
sI15
F-3.6666667
sI16
F12.0
sI17
F21.777779
sI18
F0.3152556
sI19
F2.3374724
ssbsg15
g0
(g16
g2
Ntp417
Rp418
(dp419
g15
I1
sbsba(ics475_types
Instance
p420
(dp421
g10
(ics475_types
FeatureVector
p422
(dp423
g13
(dp424
I1
F45.0
sI2
F185.0
sI3
F9.0
sI4
F0.11111111
sI6
F2.1666663
sI7
F3.7222214
sI8
F1.9444442
sI9
F2.6851857
sI10
F18.666666
sI11
F14.666667
sI12
F17.11111
sI13
F24.222221
sI14
F-12.0
sI15
F-4.6666665
sI16
F16.666666
sI17
F24.222221
sI18
F0.40087178
sI19
F2.3618267
ssbsg15
g0
(g16
g2
Ntp425
Rp426
(dp427
g15
I1
sbsba(ics475_types
Instance
p428
(dp429
g10
(ics475_types
FeatureVector
p430
(dp431
g13
(dp432
I1
F127.0
sI2
F120.0
sI3
F9.0
sI6
F0.5
sI7
F0.47777766
sI8
F0.72222215
sI9
F0.5962963
sI10
F1.5185186
sI11
F0.11111111
sI12
F4.111111
sI13
F0.33333334
sI14
F-4.2222223
sI15
F7.7777777
sI16
F-3.5555556
sI17
F4.111111
sI18
F0.984127
sI19
F-2.133095
ssbsg15
g0
(g16
g2
Ntp433
Rp434
(dp435
g15
I0
sbsba(ics475_types
Instance
p436
(dp437
g10
(ics475_types
FeatureVector
p438
(dp439
g13
(dp440
I1
F16.0
sI2
F82.0
sI3
F9.0
sI6
F4.3333335
sI7
F41.288895
sI8
F6.222223
sI9
F66.65185
sI10
F8.481482
sI11
F4.3333335
sI12
F14.555555
sI13
F6.5555553
sI14
F-12.444445
sI15
F18.222221
sI16
F-5.7777777
sI17
F14.555555
sI18
F0.7428191
sI19
F-2.3206284
ssbsg15
g0
(g16
g2
Ntp441
Rp442
(dp443
g15
I0
sbsba(ics475_types
Instance
p444
(dp445
g10
(ics475_types
FeatureVector
p446
(dp447
g13
(dp448
I1
F93.0
sI2
F236.0
sI3
F9.0
sI4
F0.11111111
sI6
F1.7777777
sI7
F2.6962965
sI8
F1.9999999
sI9
F0.93333334
sI10
F12.518518
sI11
F9.555555
sI12
F10.777778
sI13
F17.222223
sI14
F-8.888889
sI15
F-5.2222223
sI16
F14.111111
sI17
F17.222223
sI18
F0.44724658
sI19
F2.2671974
ssbsg15
g0
(g16
g2
Ntp449
Rp450
(dp451
g15
I1
sbsba(ics475_types
Instance
p452
(dp453
g10
(ics475_types
FeatureVector
p454
(dp455
g13
(dp456
I1
F237.0
sI2
F137.0
sI3
F9.0
sI6
F0.38888887
sI7
F0.1074074
sI8
F0.33333334
sI9
F0.04444445
sI10
F0.6666667
sI12
F2.0
sI14
F-2.0
sI15
F4.0
sI16
F-2.0
sI17
F2.0
sI18
F1.0
sI19
F-2.0943952
ssbsg15
g0
(g16
g2
Ntp457
Rp458
(dp459
g15
I0
sbsba(ics475_types
Instance
p460
(dp461
g10
(ics475_types
FeatureVector
p462
(dp463
g13
(dp464
I1
F254.0
sI2
F73.0
sI3
F9.0
sI6
F6.6666665
sI7
F7.865538
sI8
F9.444445
sI9
F12.33003
sI10
F34.703705
sI11
F20.555555
sI12
F57.333332
sI13
F26.222221
sI14
F-42.444443
sI15
F67.888885
sI16
F-25.444445
sI17
F57.333332
sI18
F0.6511328
sI19
F-2.2555614
ssbsg15
g0
(g16
g2
Ntp465
Rp466
(dp467
g15
I0
sbsba(ics475_types
Instance
p468
(dp469
g10
(ics475_types
FeatureVector
p470
(dp471
g13
(dp472
I1
F146.0
sI2
F201.0
sI3
F9.0
sI6
F0.61111087
sI7
F0.32773054
sI8
F1.0555555
sI9
F0.8004625
sI10
F10.666667
sI11
F8.666667
sI12
F7.0
sI13
F16.333334
sI14
F-6.0
sI15
F-11.0
sI16
F17.0
sI17
F16.333334
sI18
F0.5708515
sI19
F1.9092555
ssbsg15
g0
(g16
g2
Ntp473
Rp474
(dp475
g15
I1
sbsba(ics475_types
Instance
p476
(dp477
g10
(ics475_types
FeatureVector
p478
(dp479
g13
(dp480
I1
F54.0
sI2
F91.0
sI3
F9.0
sI6
F1.4444443
sI7
F1.540741
sI8
F0.8333333
sI9
F0.25555572
sI10
F3.2592592
sI11
F0.5555556
sI12
F8.0
sI13
F1.2222222
sI14
F-8.111111
sI15
F14.222222
sI16
F-6.111111
sI17
F8.0
sI18
F0.94481075
sI19
F-2.186723
ssbsg15
g0
(g16
g2
Ntp481
Rp482
(dp483
g15
I0
sbsba(ics475_types
Instance
p484
(dp485
g10
(ics475_types
FeatureVector
p486
(dp487
g13
(dp488
I1
F226.0
sI2
F233.0
sI3
F9.0
sI6
F2.7777774
sI7
F1.3185201
sI8
F1.777778
sI9
F1.0962962
sI10
F11.703704
sI11
F8.333334
sI12
F11.0
sI13
F15.777778
sI14
F-10.111111
sI15
F-2.1111112
sI16
F12.222222
sI17
F15.777778
sI18
F0.47394413
sI19
F2.476615
ssbsg15
g0
(g16
g2
Ntp489
Rp490
(dp491
g15
I1
sbsba(ics475_types
Instance
p492
(dp493
g10
(ics475_types
FeatureVector
p494
(dp495
g13
(dp496
I1
F3.0
sI2
F78.0
sI3
F9.0
sI5
F0.11111111
sI6
F14.833332
sI7
F356.16672
sI8
F43.333332
sI9
F662.35547
sI10
F79.666664
sI11
F70.77778
sI12
F91.44444
sI13
F76.77778
sI14
F-26.666666
sI15
F35.333332
sI16
F-8.666667
sI17
F91.44444
sI18
F0.26973316
sI19
F-2.4116454
ssbsg15
g0
(g16
g2
Ntp497
Rp498
(dp499
g15
I0
sbsba(ics475_types
Instance
p500
(dp501
g10
(ics475_types
FeatureVector
p502
(dp503
g13
(dp504
I1
F97.0
sI2
F123.0
sI3
F9.0
sI6
F0.38888887
sI7
F0.01851856
sI8
F0.16666666
sI9
F0.077777766
sI10
F1.1481482
sI12
F3.4444444
sI14
F-3.4444444
sI15
F6.888889
sI16
F-3.4444444
sI17
F3.4444444
sI18
F1.0
sI19
F-2.0943952
ssbsg15
g0
(g16
g2
Ntp505
Rp506
(dp507
g15
I0
sbsba(ics475_types
Instance
p508
(dp509
g10
(ics475_types
FeatureVector
p510
(dp511
g13
(dp512
I1
F115.0
sI2
F183.0
sI3
F9.0
sI6
F0.77777797
sI7
F0.38518497
sI8
F1.9999996
sI9
F1.4666661
sI10
F18.11111
sI11
F14.0
sI12
F17.333334
sI13
F23.0
sI14
F-12.333333
sI15
F-2.3333333
sI16
F14.666667
sI17
F23.0
sI18
F0.39236423
sI19
F2.4831982
ssbsg15
g0
(g16
g2
Ntp513
Rp514
(dp515
g15
I1
sbsba(ics475_types
Instance
p516
(dp517
g10
(ics475_types
FeatureVector
p518
(dp519
g13
(dp520
I1
F221.0
sI2
F195.0
sI3
F9.0
sI6
F1.2222223
sI7
F1.408966
sI8
F2.9444447
sI9
F1.5263131
sI10
F14.740741
sI11
F11.666667
sI12
F12.444445
sI13
F20.11111
sI14
F-9.222222
sI15
F-6.888889
sI16
F16.11111
sI17
F20.11111
sI18
F0.43448815
sI19
F2.1937644
ssbsg15
g0
(g16
g2
Ntp521
Rp522
(dp523
g15
I1
sbsba(ics475_types
Instance
p524
(dp525
g10
(ics475_types
FeatureVector
p526
(dp527
g13
(dp528
I1
F124.0
sI2
F183.0
sI3
F9.0
sI6
F1.7777778
sI7
F0.4296295
sI8
F2.2777774
sI9
F4.196296
sI10
F18.185184
sI11
F14.222222
sI12
F17.11111
sI13
F23.222221
sI14
F-11.888889
sI15
F-3.2222223
sI16
F15.111111
sI17
F23.222221
sI18
F0.38988227
sI19
F2.4280221
ssbsg15
g0
(g16
g2
Ntp529
Rp530
(dp531
g15
I1
sbsba(ics475_types
Instance
p532
(dp533
g10
(ics475_types
FeatureVector
p534
(dp535
g13
(dp536
I1
F145.0
sI2
F170.0
sI3
F9.0
sI6
F1.277778
sI7
F0.57413363
sI8
F1.222222
sI9
F0.86066276
sI10
F16.407408
sI11
F12.777778
sI12
F16.88889
sI13
F19.555555
sI14
F-10.888889
sI15
F1.4444444
sI16
F9.444445
sI17
F19.555555
sI18
F0.34671864
sI19
F2.7370737
ssbsg15
g0
(g16
g2
Ntp537
Rp538
(dp539
g15
I1
sbsba(ics475_types
Instance
p540
(dp541
g10
(ics475_types
FeatureVector
p542
(dp543
g13
(dp544
I1
F170.0
sI2
F226.0
sI3
F9.0
sI6
F1.5555553
sI7
F1.4246508
sI8
F2.3888888
sI9
F1.2895594
sI10
F11.888889
sI11
F10.111111
sI12
F8.0
sI13
F17.555555
sI14
F-5.3333335
sI15
F-11.666667
sI16
F17.0
sI17
F17.555555
sI18
F0.5483297
sI19
F1.872506
ssbsg15
g0
(g16
g2
Ntp545
Rp546
(dp547
g15
I1
sbsba(ics475_types
Instance
p548
(dp549
g10
(ics475_types
FeatureVector
p550
(dp551
g13
(dp552
I1
F6.0
sI2
F81.0
sI3
F9.0
sI5
F0.11111111
sI6
F4.111111
sI7
F8.740745
sI8
F5.722223
sI9
F28.50741
sI10
F12.481482
sI11
F7.6666665
sI12
F18.88889
sI13
F10.888889
sI14
F-14.444445
sI15
F19.222221
sI16
F-4.7777777
sI17
F18.88889
sI18
F0.6281558
sI19
F-2.388561
ssbsg15
g0
(g16
g2
Ntp553
Rp554
(dp555
g15
I0
sbsba(ics475_types
Instance
p556
(dp557
g10
(ics475_types
FeatureVector
p558
(dp559
g13
(dp560
I1
F32.0
sI2
F240.0
sI3
F9.0
sI6
F1.2777776
sI7
F1.540803
sI8
F2.2777777
sI9
F1.7051125
sI10
F12.148149
sI11
F9.777778
sI12
F9.333334
sI13
F17.333334
sI14
F-7.111111
sI15
F-8.444445
sI16
F15.555555
sI17
F17.333334
sI18
F0.47067475
sI19
F2.0438652
ssbsg15
g0
(g16
g2
Ntp561
Rp562
(dp563
g15
I1
sbsba(ics475_types
Instance
p564
(dp565
g10
(ics475_types
FeatureVector
p566
(dp567
g13
(dp568
I1
F4.0
sI2
F188.0
sI3
F9.0
sI6
F1.5555555
sI7
F0.68853056
sI8
F2.333333
sI9
F0.7601162
sI10
F15.740741
sI11
F13.333333
sI12
F14.0
sI13
F19.88889
sI14
F-7.2222223
sI15
F-5.2222223
sI16
F12.444445
sI17
F19.88889
sI18
F0.3424082
sI19
F2.2046695
ssbsg15
g0
(g16
g2
Ntp569
Rp570
(dp571
g15
I1
sbsba(ics475_types
Instance
p572
(dp573
g10
(ics475_types
FeatureVector
p574
(dp575
g13
(dp576
I1
F17.0
sI2
F98.0
sI3
F9.0
sI4
F0.11111111
sI6
F0.72222215
sI7
F0.71232533
sI8
F0.6666667
sI9
F0.73029673
sI10
F1.5185186
sI11
F0.33333334
sI12
F2.8888888
sI13
F1.3333334
sI14
F-3.5555556
sI15
F4.111111
sI16
F-0.5555556
sI17
F2.8888888
sI18
F0.9166667
sI19
F-2.4238
ssbsg15
g0
(g16
g2
Ntp577
Rp578
(dp579
g15
I0
sbsba(ics475_types
Instance
p580
(dp581
g10
(ics475_types
FeatureVector
p582
(dp583
g13
(dp584
I1
F81.0
sI2
F229.0
sI3
F9.0
sI4
F0.11111111
sI6
F2.4444444
sI7
F0.7851852
sI8
F2.0555553
sI9
F3.218518
sI10
F10.925926
sI11
F7.4444447
sI12
F10.666667
sI13
F14.666667
sI14
F-10.444445
sI15
F-0.7777778
sI16
F11.222222
sI17
F14.666667
sI18
F0.49614197
sI19
F2.5574577
ssbsg15
g0
(g16
g2
Ntp585
Rp586
(dp587
g15
I1
sbsba(ics475_types
Instance
p588
(dp589
g10
(ics475_types
FeatureVector
p590
(dp591
g13
(dp592
I1
F241.0
sI2
F90.0
sI3
F9.0
sI5
F0.11111111
sI6
F5.6666665
sI7
F23.377783
sI8
F6.7777786
sI9
F63.76296
sI10
F9.0
sI11
F4.7777777
sI12
F15.666667
sI13
F6.5555553
sI14
F-12.666667
sI15
F20.0
sI16
F-7.3333335
sI17
F15.666667
sI18
F0.7629189
sI19
F-2.2663894
ssbsg15
g0
(g16
g2
Ntp593
Rp594
(dp595
g15
I0
sbsba(ics475_types
Instance
p596
(dp597
g10
(ics475_types
FeatureVector
p598
(dp599
g13
(dp600
I1
F209.0
sI2
F249.0
sI3
F9.0
sI6
F2.4444444
sI7
F2.3851857
sI8
F2.8888886
sI9
F3.8074067
sI10
F8.555555
sI11
F8.0
sI12
F7.5555553
sI13
F10.111111
sI14
F-1.6666666
sI15
F-3.0
sI16
F4.6666665
sI17
F10.111111
sI18
F0.30902183
sI19
F1.9174206
ssbsg15
g0
(g16
g2
Ntp601
Rp602
(dp603
g15
I1
sbsba(ics475_types
Instance
p604
(dp605
g10
(ics475_types
FeatureVector
p606
(dp607
g13
(dp608
I1
F159.0
sI2
F210.0
sI3
F9.0
sI6
F1.4999999
sI7
F1.3666656
sI8
F1.5555555
sI9
F2.1629632
sI10
F12.962963
sI11
F9.444445
sI12
F12.0
sI13
F17.444445
sI14
F-10.555555
sI15
F-2.8888888
sI16
F13.444445
sI17
F17.444445
sI18
F0.4604365
sI19
F2.4287496
ssbsg15
g0
(g16
g2
Ntp609
Rp610
(dp611
g15
I1
sbsba(ics475_types
Instance
p612
(dp613
g10
(ics475_types
FeatureVector
p614
(dp615
g13
(dp616
I1
F75.0
sI2
F240.0
sI3
F9.0
sI6
F2.4444444
sI7
F1.9512578
sI8
F2.1111114
sI9
F1.3608272
sI10
F21.148148
sI11
F17.0
sI12
F17.88889
sI13
F28.555555
sI14
F-12.444445
sI15
F-9.777778
sI16
F22.222221
sI17
F28.555555
sI18
F0.41721755
sI19
F2.1755219
ssbsg15
g0
(g16
g2
Ntp617
Rp618
(dp619
g15
I1
sbsba(ics475_types
Instance
p620
(dp621
g10
(ics475_types
FeatureVector
p622
(dp623
g13
(dp624
I1
F91.0
sI2
F120.0
sI3
F9.0
sI6
F1.3888893
sI7
F0.9289578
sI8
F0.61111146
sI9
F0.77220225
sI10
F16.851852
sI11
F11.222222
sI12
F25.777779
sI13
F13.555555
sI14
F-16.88889
sI15
F26.777779
sI16
F-9.888889
sI17
F25.777779
sI18
F0.5621582
sI19
F-2.2308207
ssbsg15
g0
(g16
g2
Ntp625
Rp626
(dp627
g15
I0
sbsba(ics475_types
Instance
p628
(dp629
g10
(ics475_types
FeatureVector
p630
(dp631
g13
(dp632
I1
F44.0
sI2
F157.0
sI3
F9.0
sI6
F0.83333397
sI7
F0.30000025
sI8
F2.9444444
sI9
F7.6185203
sI10
F24.296297
sI11
F19.222221
sI12
F24.222221
sI13
F29.444445
sI14
F-15.222222
sI15
F-0.22222222
sI16
F15.444445
sI17
F29.444445
sI18
F0.35004318
sI19
F2.6043034
ssbsg15
g0
(g16
g2
Ntp633
Rp634
(dp635
g15
I1
sbsba(ics475_types
Instance
p636
(dp637
g10
(ics475_types
FeatureVector
p638
(dp639
g13
(dp640
I1
F124.0
sI2
F201.0
sI3
F9.0
sI6
F1.944445
sI7
F1.9597805
sI8
F2.0555556
sI9
F1.306678
sI10
F17.88889
sI11
F14.0
sI12
F14.888889
sI13
F24.777779
sI14
F-11.666667
sI15
F-9.0
sI16
F20.666666
sI17
F24.777779
sI18
F0.43971756
sI19
F2.1769927
ssbsg15
g0
(g16
g2
Ntp641
Rp642
(dp643
g15
I1
sbsba(ics475_types
Instance
p644
(dp645
g10
(ics475_types
FeatureVector
p646
(dp647
g13
(dp648
I1
F117.0
sI2
F224.0
sI3
F9.0
sI6
F3.0555556
sI7
F2.5596585
sI8
F3.0555556
sI9
F3.0215273
sI10
F20.25926
sI11
F15.444445
sI12
F17.777779
sI13
F27.555555
sI14
F-14.444445
sI15
F-7.4444447
sI16
F21.88889
sI17
F27.555555
sI18
F0.44151622
sI19
F2.3041532
ssbsg15
g0
(g16
g2
Ntp649
Rp650
(dp651
g15
I1
sbsba(ics475_types
Instance
p652
(dp653
g10
(ics475_types
FeatureVector
p654
(dp655
g13
(dp656
I1
F94.0
sI2
F144.0
sI3
F9.0
sI6
F0.44444442
sI7
F0.118518494
sI8
F0.49999997
sI9
F0.1666667
sI10
F1.1481482
sI12
F3.4444444
sI14
F-3.4444444
sI15
F6.888889
sI16
F-3.4444444
sI17
F3.4444444
sI18
F1.0
sI19
F-2.0943952
ssbsg15
g0
(g16
g2
Ntp657
Rp658
(dp659
g15
I0
sbsba(ics475_types
Instance
p660
(dp661
g10
(ics475_types
FeatureVector
p662
(dp663
g13
(dp664
I1
F34.0
sI2
F196.0
sI3
F9.0
sI6
F1.3888888
sI7
F2.0185175
sI8
F2.3888886
sI9
F1.2185196
sI10
F15.703704
sI11
F12.444445
sI12
F15.111111
sI13
F19.555555
sI14
F-9.777778
sI15
F-1.7777778
sI16
F11.555555
sI17
F19.555555
sI18
F0.36523178
sI19
F2.511766
ssbsg15
g0
(g16
g2
Ntp665
Rp666
(dp667
g15
I1
sbsba(ics475_types
Instance
p668
(dp669
g10
(ics475_types
FeatureVector
p670
(dp671
g13
(dp672
I1
F212.0
sI2
F160.0
sI3
F9.0
sI6
F1.4444441
sI7
F1.2938602
sI8
F1.4444443
sI9
F1.7722135
sI10
F23.25926
sI11
F17.777779
sI12
F23.444445
sI13
F28.555555
sI14
F-16.444445
sI15
F0.5555556
sI16
F15.888889
sI17
F28.555555
sI18
F0.37821564
sI19
F2.6425967
ssbsg15
g0
(g16
g2
Ntp673
Rp674
(dp675
g15
I1
sbsba(ics475_types
Instance
p676
(dp677
g10
(ics475_types
FeatureVector
p678
(dp679
g13
(dp680
I1
F21.0
sI2
F232.0
sI3
F9.0
sI6
F2.3888888
sI7
F2.6851852
sI8
F2.277778
sI9
F2.3740737
sI10
F13.555555
sI11
F11.333333
sI12
F12.333333
sI13
F17.0
sI14
F-6.6666665
sI15
F-3.6666667
sI16
F10.333333
sI17
F17.0
sI18
F0.32791784
sI19
F2.2831473
ssbsg15
g0
(g16
g2
Ntp681
Rp682
(dp683
g15
I1
sbsba(ics475_types
Instance
p684
(dp685
g10
(ics475_types
FeatureVector
p686
(dp687
g13
(dp688
I1
F106.0
sI2
F107.0
sI3
F9.0
sI6
F1.111111
sI7
F0.72008204
sI8
F0.6666667
sI9
F0.4216372
sI10
F22.555555
sI11
F13.0
sI12
F36.0
sI13
F18.666668
sI14
F-28.666666
sI15
F40.333332
sI16
F-11.666667
sI17
F36.0
sI18
F0.6385408
sI19
F-2.3546174
ssbsg15
g0
(g16
g2
Ntp689
Rp690
(dp691
g15
I0
sbsba(ics475_types
Instance
p692
(dp693
g10
(ics475_types
FeatureVector
p694
(dp695
g13
(dp696
I1
F123.0
sI2
F136.0
sI3
F9.0
sI6
F0.5555555
sI7
F1.0962964
sI8
F0.6666666
sI9
F1.3333331
sI10
F1.1111112
sI11
F0.11111111
sI12
F3.0
sI13
F0.22222222
sI14
F-3.0
sI15
F5.6666665
sI16
F-2.6666667
sI17
F3.0
sI18
F0.9861111
sI19
F-2.1109743
ssbsg15
g0
(g16
g2
Ntp697
Rp698
(dp699
g15
I0
sbsba(ics475_types
Instance
p700
(dp701
g10
(ics475_types
FeatureVector
p702
(dp703
g13
(dp704
I1
F44.0
sI2
F162.0
sI3
F9.0
sI6
F0.88888836
sI7
F0.4554205
sI8
F1.9444447
sI9
F1.3567389
sI10
F24.518518
sI11
F19.555555
sI12
F24.11111
sI13
F29.88889
sI14
F-14.888889
sI15
F-1.2222222
sI16
F16.11111
sI17
F29.88889
sI18
F0.34703225
sI19
F2.5573888
ssbsg15
g0
(g16
g2
Ntp705
Rp706
(dp707
g15
I1
sbsba(ics475_types
Instance
p708
(dp709
g10
(ics475_types
FeatureVector
p710
(dp711
g13
(dp712
I1
F14.0
sI2
F71.0
sI3
F9.0
sI6
F13.055554
sI7
F10.382501
sI8
F21.888885
sI9
F16.536379
sI10
F31.851852
sI11
F25.555555
sI12
F40.22222
sI13
F29.777779
sI14
F-18.88889
sI15
F25.11111
sI16
F-6.2222223
sI17
F40.22222
sI18
F0.39567065
sI19
F-2.4018247
ssbsg15
g0
(g16
g2
Ntp713
Rp714
(dp715
g15
I0
sbsba(ics475_types
Instance
p716
(dp717
g10
(ics475_types
FeatureVector
p718
(dp719
g13
(dp720
I1
F233.0
sI2
F184.0
sI3
F9.0
sI6
F0.5000002
sI7
F0.077777766
sI8
F0.7777777
sI9
F0.785185
sI10
F11.851851
sI11
F9.777778
sI12
F9.888889
sI13
F15.888889
sI14
F-6.2222223
sI15
F-5.888889
sI16
F12.111111
sI17
F15.888889
sI18
F0.40555555
sI19
F2.1286457
ssbsg15
g0
(g16
g2
Ntp721
Rp722
(dp723
g15
I1
sbsba(ics475_types
Instance
p724
(dp725
g10
(ics475_types
FeatureVector
p726
(dp727
g13
(dp728
I1
F180.0
sI2
F224.0
sI3
F9.0
sI6
F3.7222223
sI7
F3.7074065
sI8
F3.6111107
sI9
F5.618522
sI10
F15.185185
sI11
F11.666667
sI12
F13.333333
sI13
F20.555555
sI14
F-10.555555
sI15
F-5.5555553
sI16
F16.11111
sI17
F20.555555
sI18
F0.4433746
sI19
F2.2982552
ssbsg15
g0
(g16
g2
Ntp729
Rp730
(dp731
g15
I1
sbsba(ics475_types
Instance
p732
(dp733
g10
(ics475_types
FeatureVector
p734
(dp735
g13
(dp736
I1
F186.0
sI2
F218.0
sI3
F9.0
sI6
F1.1666666
sI7
F0.74444425
sI8
F1.1666665
sI9
F0.65555507
sI10
F13.703704
sI11
F10.666667
sI12
F12.666667
sI13
F17.777779
sI14
F-9.111111
sI15
F-3.1111112
sI16
F12.222222
sI17
F17.777779
sI18
F0.40134683
sI19
F2.3826835
ssbsg15
g0
(g16
g2
Ntp737
Rp738
(dp739
g15
I1
sbsba(ics475_types
Instance
p740
(dp741
g10
(ics475_types
FeatureVector
p742
(dp743
g13
(dp744
I1
F202.0
sI2
F208.0
sI3
F9.0
sI6
F1.7222223
sI7
F1.3962964
sI8
F1.8333334
sI9
F3.0555542
sI10
F19.25926
sI11
F15.555555
sI12
F17.666668
sI13
F24.555555
sI14
F-11.111111
sI15
F-4.7777777
sI16
F15.888889
sI17
F24.555555
sI18
F0.36886615
sI19
F2.3967707
ssbsg15
g0
(g16
g2
Ntp745
Rp746
(dp747
g15
I1
sbsba(ics475_types
Instance
p748
(dp749
g10
(ics475_types
FeatureVector
p750
(dp751
g13
(dp752
I1
F200.0
sI2
F165.0
sI3
F9.0
sI4
F0.11111111
sI6
F2.277778
sI7
F3.9740758
sI8
F1.7777776
sI9
F0.9185186
sI10
F17.333334
sI11
F12.888889
sI12
F16.444445
sI13
F22.666666
sI14
F-13.333333
sI15
F-2.6666667
sI16
F16.0
sI17
F22.666666
sI18
F0.43081954
sI19
F2.4711971
ssbsg15
g0
(g16
g2
Ntp753
Rp754
(dp755
g15
I1
sbsba(ics475_types
Instance
p756
(dp757
g10
(ics475_types
FeatureVector
p758
(dp759
g13
(dp760
I1
F116.0
sI2
F238.0
sI3
F9.0
sI6
F1.1666665
sI7
F0.87777746
sI8
F1.0555556
sI9
F2.2851841
sI10
F8.518518
sI11
F7.4444447
sI12
F5.6666665
sI13
F12.444445
sI14
F-3.2222223
sI15
F-8.555555
sI16
F11.777778
sI17
F12.444445
sI18
F0.54054004
sI19
F1.8447257
ssbsg15
g0
(g16
g2
Ntp761
Rp762
(dp763
g15
I1
sbsba(ics475_types
Instance
p764
(dp765
g10
(ics475_types
FeatureVector
p766
(dp767
g13
(dp768
I1
F158.0
sI2
F219.0
sI3
F9.0
sI4
F0.11111111
sI6
F2.277778
sI7
F3.5296311
sI8
F2.1111112
sI9
F4.074075
sI10
F14.888889
sI11
F11.444445
sI12
F13.555555
sI13
F19.666668
sI14
F-10.333333
sI15
F-4.0
sI16
F14.333333
sI17
F19.666668
sI18
F0.42601216
sI19
F2.3586955
ssbsg15
g0
(g16
g2
Ntp769
Rp770
(dp771
g15
I1
sbsba(ics475_types
Instance
p772
(dp773
g10
(ics475_types
FeatureVector
p774
(dp775
g13
(dp776
I1
F176.0
sI2
F233.0
sI3
F9.0
sI4
F0.11111111
sI6
F1.4444443
sI7
F1.1482676
sI8
F2.611111
sI9
F1.90224
sI10
F12.481482
sI11
F10.333334
sI12
F8.333334
sI13
F18.777779
sI14
F-6.4444447
sI15
F-12.444445
sI16
F18.88889
sI17
F18.777779
sI18
F0.554881
sI19
F1.9036856
ssbsg15
g0
(g16
g2
Ntp777
Rp778
(dp779
g15
I1
sbsba(ics475_types
Instance
p780
(dp781
g10
(ics475_types
FeatureVector
p782
(dp783
g13
(dp784
I1
F128.0
sI2
F175.0
sI3
F9.0
sI6
F2.1666667
sI7
F4.2111096
sI8
F2.7222214
sI9
F4.3296275
sI10
F23.777779
sI11
F20.88889
sI12
F21.777779
sI13
F28.666666
sI14
F-8.666667
sI15
F-6.0
sI16
F14.666667
sI17
F28.666666
sI18
F0.2849537
sI19
F2.2635381
ssbsg15
g0
(g16
g2
Ntp785
Rp786
(dp787
g15
I1
sbsba(ics475_types
Instance
p788
(dp789
g10
(ics475_types
FeatureVector
p790
(dp791
g13
(dp792
I1
F71.0
sI2
F125.0
sI3
F9.0
sI6
F0.6666667
sI7
F0.47140455
sI8
F0.7222223
sI9
F0.49065357
sI10
F16.407408
sI11
F12.444445
sI12
F23.666666
sI13
F13.111111
sI14
F-11.888889
sI15
F21.777779
sI16
F-9.888889
sI17
F25.333334
sI18
F0.56104016
sI19
F-1.7934027
ssbsg15
g0
(g16
g2
Ntp793
Rp794
(dp795
g15
I0
sbsba(ics475_types
Instance
p796
(dp797
g10
(ics475_types
FeatureVector
p798
(dp799
g13
(dp800
I1
F33.0
sI2
F117.0
sI3
F9.0
sI6
F0.2777778
sI7
F0.018518511
sI8
F0.11111111
sI9
F0.029629635
sI10
F1.074074
sI12
F3.1111112
sI13
F0.11111111
sI14
F-3.2222223
sI15
F6.111111
sI16
F-2.8888888
sI17
F3.1111112
sI18
F1.0
sI19
F-2.132635
ssbsg15
g0
(g16
g2
Ntp801
Rp802
(dp803
g15
I0
sbsba(ics475_types
Instance
p804
(dp805
g10
(ics475_types
FeatureVector
p806
(dp807
g13
(dp808
I1
F220.0
sI2
F124.0
sI3
F9.0
sI6
F0.22222221
sI7
F0.029629631
sI8
F0.44444442
sI9
F0.07407406
sI10
F0.8888889
sI12
F2.4444444
sI13
F0.22222222
sI14
F-2.6666667
sI15
F4.6666665
sI16
F-2.0
sI17
F2.4444444
sI18
F1.0
sI19
F-2.1617603
ssbsg15
g0
(g16
g2
Ntp809
Rp810
(dp811
g15
I0
sbsba(ics475_types
Instance
p812
(dp813
g10
(ics475_types
FeatureVector
p814
(dp815
g13
(dp816
I1
F234.0
sI2
F164.0
sI3
F9.0
sI6
F0.5000002
sI7
F0.2111112
sI8
F3.0
sI9
F8.04445
sI10
F13.666667
sI11
F11.666667
sI12
F15.0
sI13
F14.333333
sI14
F-6.0
sI15
F4.0
sI16
F2.0
sI17
F16.88889
sI18
F0.29914993
sI19
F2.87512
ssbsg15
g0
(g16
g2
Ntp817
Rp818
(dp819
g15
I1
sbsba(ics475_types
Instance
p820
(dp821
g10
(ics475_types
FeatureVector
p822
(dp823
g13
(dp824
I1
F225.0
sI2
F244.0
sI3
F9.0
sI6
F3.3888886
sI7
F2.1951127
sI8
F2.9999998
sI9
F1.5202343
sI10
F12.259259
sI11
F10.333334
sI12
F9.333334
sI13
F17.11111
sI14
F-5.7777777
sI15
F-8.777778
sI16
F14.555555
sI17
F17.11111
sI18
F0.48014903
sI19
F1.9879022
ssbsg15
g0
(g16
g2
Ntp825
Rp826
(dp827
g15
I1
sbsba(ics475_types
Instance
p828
(dp829
g10
(ics475_types
FeatureVector
p830
(dp831
g13
(dp832
I1
F217.0
sI2
F208.0
sI3
F9.0
sI6
F2.5000002
sI7
F2.1666656
sI8
F2.6666667
sI9
F2.4444458
sI10
F16.074074
sI11
F12.666667
sI12
F14.444445
sI13
F21.11111
sI14
F-10.222222
sI15
F-4.888889
sI16
F15.111111
sI17
F21.11111
sI18
F0.40212956
sI19
F2.3109324
ssbsg15
g0
(g16
g2
Ntp833
Rp834
(dp835
g15
I1
sbsba(ics475_types
Instance
p836
(dp837
g10
(ics475_types
FeatureVector
p838
(dp839
g13
(dp840
I1
F207.0
sI2
F217.0
sI3
F9.0
sI6
F0.77777785
sI7
F0.47407398
sI8
F2.0555556
sI9
F0.9074081
sI10
F6.296296
sI11
F5.0
sI12
F4.2222223
sI13
F9.666667
sI14
F-3.8888888
sI15
F-6.2222223
sI16
F10.111111
sI17
F9.666667
sI18
F0.58261186
sI19
F1.9761382
ssbsg15
g0
(g16
g2
Ntp841
Rp842
(dp843
g15
I1
sbsba(ics475_types
Instance
p844
(dp845
g10
(ics475_types
FeatureVector
p846
(dp847
g13
(dp848
I1
F94.0
sI2
F215.0
sI3
F9.0
sI6
F3.1111114
sI7
F5.0962954
sI8
F1.6111113
sI9
F1.1296293
sI10
F17.185184
sI11
F14.333333
sI12
F14.333333
sI13
F22.88889
sI14
F-8.555555
sI15
F-8.555555
sI16
F17.11111
sI17
F22.88889
sI18
F0.4043918
sI19
F2.1051967
ssbsg15
g0
(g16
g2
Ntp849
Rp850
(dp851
g15
I1
sbsba(ics475_types
Instance
p852
(dp853
g10
(ics475_types
FeatureVector
p854
(dp855
g13
(dp856
I1
F98.0
sI2
F107.0
sI3
F9.0
sI6
F4.6666665
sI7
F3.7333333
sI8
F3.9444447
sI9
F17.12963
sI10
F8.703704
sI11
F4.888889
sI12
F14.555555
sI13
F6.6666665
sI14
F-11.444445
sI15
F17.555555
sI16
F-6.111111
sI17
F14.555555
sI18
F0.69722587
sI19
F-2.2801461
ssbsg15
g0
(g16
g2
Ntp857
Rp858
(dp859
g15
I0
sbsba(ics475_types
Instance
p860
(dp861
g10
(ics475_types
FeatureVector
p862
(dp863
g13
(dp864
I1
F95.0
sI2
F127.0
sI3
F9.0
sI6
F0.22222222
sI7
F0.07407406
sI8
F0.22222222
sI9
F0.02962962
sI10
F0.6296296
sI12
F1.8888888
sI14
F-1.8888888
sI15
F3.7777777
sI16
F-1.8888888
sI17
F1.8888888
sI18
F1.0
sI19
F-2.0943952
ssbsg15
g0
(g16
g2
Ntp865
Rp866
(dp867
g15
I0
sbsba(ics475_types
Instance
p868
(dp869
g10
(ics475_types
FeatureVector
p870
(dp871
g13
(dp872
I1
F212.0
sI2
F239.0
sI3
F9.0
sI6
F1.9444443
sI7
F1.4516913
sI8
F2.3333333
sI9
F2.8205595
sI10
F10.37037
sI11
F7.6666665
sI12
F9.666667
sI13
F13.777778
sI14
F-8.111111
sI15
F-2.1111112
sI16
F10.222222
sI17
F13.777778
sI18
F0.4459687
sI19
F2.4263785
ssbsg15
g0
(g16
g2
Ntp873
Rp874
(dp875
g15
I1
sbsba(ics475_types
Instance
p876
(dp877
g10
(ics475_types
FeatureVector
p878
(dp879
g13
(dp880
I1
F41.0
sI2
F75.0
sI3
F9.0
sI5
F0.11111111
sI6
F15.388889
sI7
F19.136257
sI8
F26.611113
sI9
F31.71359
sI10
F55.0
sI11
F47.444443
sI12
F65.44444
sI13
F52.11111
sI14
F-22.666666
sI15
F31.333334
sI16
F-8.666667
sI17
F65.44444
sI18
F0.29780185
sI19
F-2.3567543
ssbsg15
g0
(g16
g2
Ntp881
Rp882
(dp883
g15
I0
sbsba(ics475_types
Instance
p884
(dp885
g10
(ics475_types
FeatureVector
p886
(dp887
g13
(dp888
I1
F4.0
sI2
F96.0
sI3
F9.0
sI6
F2.222222
sI7
F2.9629638
sI8
F1.5555555
sI9
F2.2518516
sI10
F3.5555556
sI11
F0.8888889
sI12
F7.7777777
sI13
F2.0
sI14
F-8.0
sI15
F12.666667
sI16
F-4.6666665
sI17
F7.7777777
sI18
F0.91006523
sI19
F-2.2444818
ssbsg15
g0
(g16
g2
Ntp889
Rp890
(dp891
g15
I0
sbsba(ics475_types
Instance
p892
(dp893
g10
(ics475_types
FeatureVector
p894
(dp895
g13
(dp896
I1
F235.0
sI2
F120.0
sI3
F9.0
sI6
F0.44444442
sI7
F0.3407407
sI8
F0.49999997
sI9
F0.30000004
sI10
F1.4444444
sI12
F4.0
sI13
F0.33333334
sI14
F-4.3333335
sI15
F7.6666665
sI16
F-3.3333333
sI17
F4.0
sI18
F1.0
sI19
F-2.1563656
ssbsg15
g0
(g16
g2
Ntp897
Rp898
(dp899
g15
I0
sbsba(ics475_types
Instance
p900
(dp901
g10
(ics475_types
FeatureVector
p902
(dp903
g13
(dp904
I1
F94.0
sI2
F224.0
sI3
F9.0
sI6
F1.3888887
sI7
F1.8407407
sI8
F0.9444442
sI9
F0.5518519
sI10
F13.444445
sI11
F10.0
sI12
F11.888889
sI13
F18.444445
sI14
F-10.333333
sI15
F-4.6666665
sI16
F15.0
sI17
F18.444445
sI18
F0.45764294
sI19
F2.3281083
ssbsg15
g0
(g16
g2
Ntp905
Rp906
(dp907
g15
I1
sbsba(ics475_types
Instance
p908
(dp909
g10
(ics475_types
FeatureVector
p910
(dp911
g13
(dp912
I1
F179.0
sI2
F150.0
sI3
F9.0
sI6
F1.055555
sI7
F0.1962963
sI8
F1.7222223
sI9
F1.6185163
sI10
F18.925926
sI11
F13.444445
sI12
F20.0
sI13
F23.333334
sI14
F-16.444445
sI15
F3.2222223
sI16
F13.222222
sI17
F23.333334
sI18
F0.42442176
sI19
F2.7916744
ssbsg15
g0
(g16
g2
Ntp913
Rp914
(dp915
g15
I1
sbsba(ics475_types
Instance
p916
(dp917
g10
(ics475_types
FeatureVector
p918
(dp919
g13
(dp920
I1
F72.0
sI2
F111.0
sI3
F9.0
sI6
F0.5
sI7
F0.3
sI8
F0.9444444
sI9
F1.396296
sI10
F1.2962962
sI12
F3.5555556
sI13
F0.33333334
sI14
F-3.8888888
sI15
F6.7777777
sI16
F-2.8888888
sI17
F3.5555556
sI18
F1.0
sI19
F-2.1394942
ssbsg15
g0
(g16
g2
Ntp921
Rp922
(dp923
g15
I0
sbsba(ics475_types
Instance
p924
(dp925
g10
(ics475_types
FeatureVector
p926
(dp927
g13
(dp928
I1
F55.0
sI2
F93.0
sI3
F9.0
sI4
F0.11111111
sI6
F0.83333343
sI7
F0.2999998
sI8
F1.388889
sI9
F1.7962962
sI10
F3.0
sI11
F0.5555556
sI12
F7.2222223
sI13
F1.2222222
sI14
F-7.3333335
sI15
F12.666667
sI16
F-5.3333335
sI17
F7.2222223
sI18
F0.9356702
sI19
F-2.1836095
ssbsg15
g0
(g16
g2
Ntp929
Rp930
(dp931
g15
I0
sbsba(ics475_types
Instance
p932
(dp933
g10
(ics475_types
FeatureVector
p934
(dp935
g13
(dp936
I1
F170.0
sI2
F185.0
sI3
F9.0
sI6
F0.611111
sI7
F0.44305348
sI8
F1.4444447
sI9
F1.0470417
sI10
F10.740741
sI11
F8.111112
sI12
F9.777778
sI13
F14.333333
sI14
F-7.888889
sI15
F-2.8888888
sI16
F10.777778
sI17
F14.333333
sI18
F0.4351852
sI19
F2.3628104
ssbsg15
g0
(g16
g2
Ntp937
Rp938
(dp939
g15
I1
sbsba(ics475_types
Instance
p940
(dp941
g10
(ics475_types
FeatureVector
p942
(dp943
g13
(dp944
I1
F245.0
sI2
F238.0
sI3
F9.0
sI4
F0.11111111
sI6
F1.6666665
sI7
F2.5385911
sI8
F2.3333333
sI9
F2.4404008
sI10
F8.925926
sI11
F6.3333335
sI12
F6.5555553
sI13
F13.888889
sI14
F-7.7777777
sI15
F-7.111111
sI16
F14.888889
sI17
F13.888889
sI18
F0.59701496
sI19
F2.1260629
ssbsg15
g0
(g16
g2
Ntp945
Rp946
(dp947
g15
I1
sbsba(ics475_types
Instance
p948
(dp949
g10
(ics475_types
FeatureVector
p950
(dp951
g13
(dp952
I1
F90.0
sI2
F189.0
sI3
F9.0
sI6
F0.88888884
sI7
F0.7793635
sI8
F1.0555555
sI9
F0.82775915
sI10
F12.888889
sI11
F10.444445
sI12
F9.444445
sI13
F18.777779
sI14
F-7.3333335
sI15
F-10.333333
sI16
F17.666666
sI17
F18.777779
sI18
F0.49709514
sI19
F1.9855517
ssbsg15
g0
(g16
g2
Ntp953
Rp954
(dp955
g15
I1
sbsba(ics475_types
Instance
p956
(dp957
g10
(ics475_types
FeatureVector
p958
(dp959
g13
(dp960
I1
F60.0
sI2
F132.0
sI3
F9.0
sI6
F0.11111113
sI7
F0.029629637
sI8
F0.22222222
sI9
F0.029629637
sI10
F0.37037036
sI12
F1.1111112
sI14
F-1.1111112
sI15
F2.2222223
sI16
F-1.1111112
sI17
F1.1111112
sI18
F0.8888889
sI19
F-2.0943952
ssbsg15
g0
(g16
g2
Ntp961
Rp962
(dp963
g15
I0
sbsba(ics475_types
Instance
p964
(dp965
g10
(ics475_types
FeatureVector
p966
(dp967
g13
(dp968
I1
F19.0
sI2
F133.0
sI3
F9.0
ssbsg15
g0
(g16
g2
Ntp969
Rp970
(dp971
g15
I0
sbsba(ics475_types
Instance
p972
(dp973
g10
(ics475_types
FeatureVector
p974
(dp975
g13
(dp976
I1
F232.0
sI2
F126.0
sI3
F9.0
sI5
F0.11111111
sI6
F2.3888888
sI7
F11.885187
sI8
F1.2222223
sI9
F6.2962966
sI10
F1.5185186
sI11
F0.44444445
sI12
F3.5555556
sI13
F0.5555556
sI14
F-3.2222223
sI15
F6.111111
sI16
F-2.8888888
sI17
F3.5555556
sI18
F0.96581197
sI19
F-2.1073034
ssbsg15
g0
(g16
g2
Ntp977
Rp978
(dp979
g15
I0
sbsba(ics475_types
Instance
p980
(dp981
g10
(ics475_types
FeatureVector
p982
(dp983
g13
(dp984
I1
F81.0
sI2
F126.0
sI3
F9.0
sI5
F0.11111111
sI6
F1.9444443
sI7
F1.12963
sI8
F1.0555555
sI9
F0.28518513
sI10
F2.9629629
sI11
F0.5555556
sI12
F6.5555553
sI13
F1.7777778
sI14
F-7.2222223
sI15
F10.777778
sI16
F-3.5555556
sI17
F6.5555553
sI18
F0.93570626
sI19
F-2.2890973
ssbsg15
g0
(g16
g2
Ntp985
Rp986
(dp987
g15
I0
sbsba(ics475_types
Instance
p988
(dp989
g10
(ics475_types
FeatureVector
p990
(dp991
g13
(dp992
I1
F231.0
sI2
F198.0
sI3
F9.0
sI4
F0.11111111
sI6
F0.9999997
sI7
F0.13333334
sI8
F1.111111
sI9
F1.2296298
sI10
F15.814815
sI11
F12.444445
sI12
F14.222222
sI13
F20.777779
sI14
F-10.111111
sI15
F-4.7777777
sI16
F14.888889
sI17
F20.777779
sI18
F0.40090325
sI19
F2.3248901
ssbsg15
g0
(g16
g2
Ntp993
Rp994
(dp995
g15
I1
sbsba(ics475_types
Instance
p996
(dp997
g10
(ics475_types
FeatureVector
p998
(dp999
g13
(dp1000
I1
F196.0
sI2
F100.0
sI3
F9.0
sI6
F7.277777
sI7
F83.351845
sI8
F5.777778
sI9
F68.87406
sI10
F8.148149
sI11
F4.666667
sI12
F13.333333
sI13
F6.4444447
sI14
F-10.444445
sI15
F15.555555
sI16
F-5.111111
sI17
F13.333333
sI18
F0.7380342
sI19
F-2.2898738
ssbsg15
g0
(g16
g2
Ntp1001
Rp1002
(dp1003
g15
I0
sbsba(ics475_types
Instance
p1004
(dp1005
g10
(ics475_types
FeatureVector
p1006
(dp1007
g13
(dp1008
I1
F224.0
sI2
F95.0
sI3
F9.0
sI6
F1.2222223
sI7
F0.47407404
sI8
F1.0555557
sI9
F0.7296295
sI10
F3.5185184
sI11
F0.8888889
sI12
F7.2222223
sI13
F2.4444444
sI14
F-7.888889
sI15
F11.111111
sI16
F-3.2222223
sI17
F7.2222223
sI18
F0.88955027
sI19
F-2.3489873
ssbsg15
g0
(g16
g2
Ntp1009
Rp1010
(dp1011
g15
I0
sbsba(ics475_types
Instance
p1012
(dp1013
g10
(ics475_types
FeatureVector
p1014
(dp1015
g13
(dp1016
I1
F45.0
sI2
F126.0
sI3
F9.0
sI6
F7.0
sI7
F3.870114
sI8
F2.5555556
sI9
F1.7971169
sI10
F10.185185
sI11
F4.888889
sI12
F17.222223
sI13
F8.444445
sI14
F-15.888889
sI15
F21.11111
sI16
F-5.2222223
sI17
F17.222223
sI18
F0.7364309
sI19
F-2.4498394
ssbsg15
g0
(g16
g2
Ntp1017
Rp1018
(dp1019
g15
I0
sbsba(ics475_types
Instance
p1020
(dp1021
g10
(ics475_types
FeatureVector
p1022
(dp1023
g13
(dp1024
I1
F29.0
sI2
F195.0
sI3
F9.0
sI6
F0.44444433
sI7
F0.40368652
sI8
F0.61111087
sI9
F0.6804136
sI10
F16.037037
sI11
F14.444445
sI12
F13.333333
sI13
F20.333334
sI14
F-4.7777777
sI15
F-8.111111
sI16
F12.888889
sI17
F20.333334
sI18
F0.34230694
sI19
F1.9430399
ssbsg15
g0
(g16
g2
Ntp1025
Rp1026
(dp1027
g15
I1
sbsba(ics475_types
Instance
p1028
(dp1029
g10
(ics475_types
FeatureVector
p1030
(dp1031
g13
(dp1032
I1
F203.0
sI2
F93.0
sI3
F9.0
sI6
F2.6666667
sI7
F6.4444437
sI8
F3.4444444
sI9
F11.674076
sI10
F6.7777777
sI11
F3.2222223
sI12
F11.888889
sI13
F5.2222223
sI14
F-10.666667
sI15
F15.333333
sI16
F-4.6666665
sI17
F11.888889
sI18
F0.7601911
sI19
F-2.332766
ssbsg15
g0
(g16
g2
Ntp1033
Rp1034
(dp1035
g15
I0
sbsba(ics475_types
Instance
p1036
(dp1037
g10
(ics475_types
FeatureVector
p1038
(dp1039
g13
(dp1040
I1
F33.0
sI2
F98.0
sI3
F9.0
sI6
F0.6111111
sI7
F0.611616
sI8
F1.3333331
sI9
F0.9189368
sI10
F2.0370371
sI11
F0.5555556
sI12
F3.5555556
sI13
F2.0
sI14
F-4.4444447
sI15
F4.5555553
sI16
F-0.11111111
sI17
F3.5555556
sI18
F0.8833333
sI19
F-2.5488977
ssbsg15
g0
(g16
g2
Ntp1041
Rp1042
(dp1043
g15
I0
sbsba(ics475_types
Instance
p1044
(dp1045
g10
(ics475_types
FeatureVector
p1046
(dp1047
g13
(dp1048
I1
F131.0
sI2
F208.0
sI3
F9.0
sI6
F1.388889
sI7
F0.41851857
sI8
F0.611111
sI9
F0.24074061
sI10
F16.185184
sI11
F12.777778
sI12
F15.0
sI13
F20.777779
sI14
F-10.222222
sI15
F-3.5555556
sI16
F13.777778
sI17
F20.777779
sI18
F0.3831675
sI19
F2.3919957
ssbsg15
g0
(g16
g2
Ntp1049
Rp1050
(dp1051
g15
I1
sbsba(ics475_types
Instance
p1052
(dp1053
g10
(ics475_types
FeatureVector
p1054
(dp1055
g13
(dp1056
I1
F230.0
sI2
F98.0
sI3
F9.0
sI6
F0.38888884
sI7
F0.15185185
sI8
F0.38888887
sI9
F0.06296294
sI10
F1.4074074
sI12
F4.111111
sI13
F0.11111111
sI14
F-4.2222223
sI15
F8.111111
sI16
F-3.8888888
sI17
F4.111111
sI18
F1.0
sI19
F-2.1137195
ssbsg15
g0
(g16
g2
Ntp1057
Rp1058
(dp1059
g15
I0
sbsba(ics475_types
Instance
p1060
(dp1061
g10
(ics475_types
FeatureVector
p1062
(dp1063
g13
(dp1064
I1
F199.0
sI2
F100.0
sI3
F9.0
sI6
F2.3888886
sI7
F1.4407414
sI8
F2.4444444
sI9
F6.02963
sI10
F6.0740743
sI11
F2.7777777
sI12
F11.555555
sI13
F3.8888888
sI14
F-9.888889
sI15
F16.444445
sI16
F-6.5555553
sI17
F11.555555
sI18
F0.7738155
sI19
F-2.2262468
ssbsg15
g0
(g16
g2
Ntp1065
Rp1066
(dp1067
g15
I0
sbsba(ics475_types
Instance
p1068
(dp1069
g10
(ics475_types
FeatureVector
p1070
(dp1071
g13
(dp1072
I1
F1.0
sI2
F81.0
sI3
F9.0
sI6
F12.166667
sI7
F267.45554
sI8
F9.222222
sI9
F205.36296
sI10
F21.333334
sI11
F14.0
sI12
F30.555555
sI13
F19.444445
sI14
F-22.0
sI15
F27.666666
sI16
F-5.6666665
sI17
F30.555555
sI18
F0.5952822
sI19
F-2.438409
ssbsg15
g0
(g16
g2
Ntp1073
Rp1074
(dp1075
g15
I0
sbsba(ics475_types
Instance
p1076
(dp1077
g10
(ics475_types
FeatureVector
p1078
(dp1079
g13
(dp1080
I1
F49.0
sI2
F116.0
sI3
F9.0
sI6
F1.3333334
sI7
F0.31111145
sI8
F2.111111
sI9
F1.3185191
sI10
F3.0
sI11
F0.8888889
sI12
F6.0
sI13
F2.1111112
sI14
F-6.3333335
sI15
F9.0
sI16
F-2.6666667
sI17
F6.0
sI18
F0.8755291
sI19
F-2.3130133
ssbsg15
g0
(g16
g2
Ntp1081
Rp1082
(dp1083
g15
I0
sbsba(ics475_types
Instance
p1084
(dp1085
g10
(ics475_types
FeatureVector
p1086
(dp1087
g13
(dp1088
I1
F33.0
sI2
F100.0
sI3
F9.0
sI6
F0.72222227
sI7
F0.53402746
sI8
F0.66666675
sI9
F0.3651482
sI10
F1.2222222
sI11
F0.11111111
sI12
F2.7777777
sI13
F0.7777778
sI14
F-3.3333333
sI15
F4.6666665
sI16
F-1.3333334
sI17
F2.7777777
sI18
F0.9777778
sI19
F-2.3370957
ssbsg15
g0
(g16
g2
Ntp1089
Rp1090
(dp1091
g15
I0
sbsba(ics475_types
Instance
p1092
(dp1093
g10
(ics475_types
FeatureVector
p1094
(dp1095
g13
(dp1096
I1
F39.0
sI2
F246.0
sI3
F9.0
sI4
F0.11111111
sI6
F2.277778
sI7
F3.2629633
sI8
F1.8333334
sI9
F2.4333339
sI10
F15.37037
sI11
F12.555555
sI12
F13.111111
sI13
F20.444445
sI14
F-8.444445
sI15
F-6.7777777
sI16
F15.222222
sI17
F20.444445
sI18
F0.3938387
sI19
F2.170543
ssbsg15
g0
(g16
g2
Ntp1097
Rp1098
(dp1099
g15
I1
sbsba(ics475_types
Instance
p1100
(dp1101
g10
(ics475_types
FeatureVector
p1102
(dp1103
g13
(dp1104
I1
F140.0
sI2
F247.0
sI3
F9.0
sI6
F2.5000002
sI7
F3.1888885
sI8
F2.6666667
sI9
F3.555555
sI10
F8.111111
sI11
F6.0
sI12
F5.888889
sI13
F12.444445
sI14
F-6.3333335
sI15
F-6.6666665
sI16
F13.0
sI17
F12.444445
sI18
F0.5634669
sI19
F2.1178858
ssbsg15
g0
(g16
g2
Ntp1105
Rp1106
(dp1107
g15
I1
sbsba(ics475_types
Instance
p1108
(dp1109
g10
(ics475_types
FeatureVector
p1110
(dp1111
g13
(dp1112
I1
F199.0
sI2
F220.0
sI3
F9.0
sI6
F1.1666667
sI7
F0.83333284
sI8
F0.88888884
sI9
F0.47407386
sI10
F6.6296296
sI11
F5.3333335
sI12
F5.0
sI13
F9.555555
sI14
F-3.8888888
sI15
F-4.888889
sI16
F8.777778
sI17
F9.555555
sI18
F0.5039001
sI19
F2.0308669
ssbsg15
g0
(g16
g2
Ntp1113
Rp1114
(dp1115
g15
I1
sbsba(ics475_types
Instance
p1116
(dp1117
g10
(ics475_types
FeatureVector
p1118
(dp1119
g13
(dp1120
I1
F102.0
sI2
F203.0
sI3
F9.0
sI6
F0.6666665
sI7
F0.760117
sI8
F1.3333331
sI9
F0.8944272
sI10
F9.777778
sI11
F7.4444447
sI12
F6.4444447
sI13
F15.444445
sI14
F-7.0
sI15
F-10.0
sI16
F17.0
sI17
F15.444445
sI18
F0.5918262
sI19
F1.9847853
ssbsg15
g0
(g16
g2
Ntp1121
Rp1122
(dp1123
g15
I1
sbsba(ics475_types
Instance
p1124
(dp1125
g10
(ics475_types
FeatureVector
p1126
(dp1127
g13
(dp1128
I1
F37.0
sI2
F104.0
sI3
F9.0
sI6
F7.8333325
sI7
F9.713106
sI8
F22.111109
sI9
F21.61858
sI10
F18.62963
sI11
F14.888889
sI12
F23.444445
sI13
F17.555555
sI14
F-11.222222
sI15
F14.444445
sI16
F-3.2222223
sI17
F23.444445
sI18
F0.6076133
sI19
F-2.4250698
ssbsg15
g0
(g16
g2
Ntp1129
Rp1130
(dp1131
g15
I0
sbsba(ics475_types
Instance
p1132
(dp1133
g10
(ics475_types
FeatureVector
p1134
(dp1135
g13
(dp1136
I1
F29.0
sI2
F85.0
sI3
F9.0
sI6
F2.833333
sI7
F2.9420328
sI8
F2.3888888
sI9
F3.0508046
sI10
F4.0740743
sI11
F2.1111112
sI12
F6.7777777
sI13
F3.3333333
sI14
F-5.888889
sI15
F8.111111
sI16
F-2.2222223
sI17
F6.7777777
sI18
F0.76296294
sI19
F-2.3698635
ssbsg15
g0
(g16
g2
Ntp1137
Rp1138
(dp1139
g15
I0
sbsba(ics475_types
Instance
p1140
(dp1141
g10
(ics475_types
FeatureVector
p1142
(dp1143
g13
(dp1144
I1
F217.0
sI2
F115.0
sI3
F9.0
sI6
F1.1666666
sI7
F0.34444454
sI8
F0.5555555
sI9
F0.38518524
sI10
F1.8888888
sI11
F0.22222222
sI12
F4.666667
sI13
F0.7777778
sI14
F-5.0
sI15
F8.333333
sI16
F-3.3333333
sI17
F4.666667
sI18
F0.962963
sI19
F-2.2166038
ssbsg15
g0
(g16
g2
Ntp1145
Rp1146
(dp1147
g15
I0
sbsba(ics475_types
Instance
p1148
(dp1149
g10
(ics475_types
FeatureVector
p1150
(dp1151
g13
(dp1152
I1
F95.0
sI2
F95.0
sI3
F9.0
sI6
F0.72222227
sI7
F0.8185186
sI8
F1.111111
sI9
F0.25185192
sI10
F6.4814816
sI11
F2.3333335
sI12
F12.555555
sI13
F4.5555553
sI14
F-12.444445
sI15
F18.222221
sI16
F-5.7777777
sI17
F12.555555
sI18
F0.816909
sI19
F-2.322295
ssbsg15
g0
(g16
g2
Ntp1153
Rp1154
(dp1155
g15
I0
sbsba(ics475_types
Instance
p1156
(dp1157
g10
(ics475_types
FeatureVector
p1158
(dp1159
g13
(dp1160
I1
F17.0
sI2
F108.0
sI3
F9.0
sI6
F1.2777778
sI7
F0.64693
sI8
F1.1666666
sI9
F0.91287076
sI10
F1.8518518
sI11
F0.5555556
sI12
F3.3333333
sI13
F1.6666666
sI14
F-3.8888888
sI15
F4.4444447
sI16
F-0.5555556
sI17
F3.3333333
sI18
F0.8759259
sI19
F-2.463852
ssbsg15
g0
(g16
g2
Ntp1161
Rp1162
(dp1163
g15
I0
sbsba(ics475_types
Instance
p1164
(dp1165
g10
(ics475_types
FeatureVector
p1166
(dp1167
g13
(dp1168
I1
F55.0
sI2
F209.0
sI3
F9.0
sI4
F0.11111111
sI6
F1.8333331
sI7
F1.2952907
sI8
F1.3888888
sI9
F0.99814624
sI10
F12.518518
sI11
F10.333334
sI12
F10.333334
sI13
F16.88889
sI14
F-6.5555553
sI15
F-6.5555553
sI16
F13.111111
sI17
F16.88889
sI18
F0.40790388
sI19
F2.0992203
ssbsg15
g0
(g16
g2
Ntp1169
Rp1170
(dp1171
g15
I1
sbsba(ics475_types
Instance
p1172
(dp1173
g10
(ics475_types
FeatureVector
p1174
(dp1175
g13
(dp1176
I1
F145.0
sI2
F248.0
sI3
F9.0
sI6
F2.0555553
sI7
F1.7180947
sI8
F2.111111
sI9
F1.3770607
sI10
F26.88889
sI11
F23.222221
sI12
F25.11111
sI13
F32.333336
sI14
F-11.0
sI15
F-5.3333335
sI16
F16.333334
sI17
F32.333336
sI18
F0.2916751
sI19
F2.2850983
ssbsg15
g0
(g16
g2
Ntp1177
Rp1178
(dp1179
g15
I1
sbsba(ics475_types
Instance
p1180
(dp1181
g10
(ics475_types
FeatureVector
p1182
(dp1183
g13
(dp1184
I1
F144.0
sI2
F169.0
sI3
F9.0
sI6
F1.1111107
sI7
F0.77936363
sI8
F1.3888884
sI9
F0.74286735
sI10
F17.11111
sI11
F13.444445
sI12
F18.0
sI13
F19.88889
sI14
F-11.0
sI15
F2.6666667
sI16
F8.333333
sI17
F19.88889
sI18
F0.32496518
sI19
F2.8348217
ssbsg15
g0
(g16
g2
Ntp1185
Rp1186
(dp1187
g15
I1
sbsba(ics475_types
Instance
p1188
(dp1189
g10
(ics475_types
FeatureVector
p1190
(dp1191
g13
(dp1192
I1
F124.0
sI2
F113.0
sI3
F9.0
sI6
F0.38888887
sI7
F0.38968176
sI8
F0.2777778
sI9
F0.3277307
sI10
F0.962963
sI12
F2.7777777
sI13
F0.11111111
sI14
F-2.8888888
sI15
F5.4444447
sI16
F-2.5555556
sI17
F2.7777777
sI18
F1.0
sI19
F-2.123254
ssbsg15
g0
(g16
g2
Ntp1193
Rp1194
(dp1195
g15
I0
sbsba(ics475_types
Instance
p1196
(dp1197
g10
(ics475_types
FeatureVector
p1198
(dp1199
g13
(dp1200
I1
F95.0
sI2
F141.0
sI3
F9.0
sI6
F0.72222215
sI7
F0.24074078
sI8
F0.72222215
sI9
F0.1518519
sI10
F1.5555556
sI11
F0.11111111
sI12
F3.6666667
sI13
F0.8888889
sI14
F-4.3333335
sI15
F6.3333335
sI16
F-2.0
sI17
F3.6666667
sI18
F0.9777778
sI19
F-2.2859912
ssbsg15
g0
(g16
g2
Ntp1201
Rp1202
(dp1203
g15
I0
sbsba(ics475_types
Instance
p1204
(dp1205
g10
(ics475_types
FeatureVector
p1206
(dp1207
g13
(dp1208
I1
F158.0
sI2
F195.0
sI3
F9.0
sI6
F2.4444442
sI7
F2.3444183
sI8
F2.8333333
sI9
F1.7224011
sI10
F11.703704
sI11
F9.444445
sI12
F8.555555
sI13
F17.11111
sI14
F-6.7777777
sI15
F-9.444445
sI16
F16.222221
sI17
F17.11111
sI18
F0.5177167
sI19
F2.011228
ssbsg15
g0
(g16
g2
Ntp1209
Rp1210
(dp1211
g15
I1
sbsba(ics475_types
Instance
p1212
(dp1213
g10
(ics475_types
FeatureVector
p1214
(dp1215
g13
(dp1216
I1
F9.0
sI2
F131.0
sI3
F9.0
ssbsg15
g0
(g16
g2
Ntp1217
Rp1218
(dp1219
g15
I0
sbsba(ics475_types
Instance
p1220
(dp1221
g10
(ics475_types
FeatureVector
p1222
(dp1223
g13
(dp1224
I1
F242.0
sI2
F183.0
sI3
F9.0
sI6
F1.4999999
sI7
F0.9368979
sI8
F2.1666667
sI9
F1.798147
sI10
F15.37037
sI11
F12.666667
sI12
F12.444445
sI13
F21.0
sI14
F-8.111111
sI15
F-8.777778
sI16
F16.88889
sI17
F21.0
sI18
F0.42024404
sI19
F2.0758736
ssbsg15
g0
(g16
g2
Ntp1225
Rp1226
(dp1227
g15
I1
sbsba(ics475_types
Instance
p1228
(dp1229
g10
(ics475_types
FeatureVector
p1230
(dp1231
g13
(dp1232
I1
F31.0
sI2
F88.0
sI3
F9.0
sI4
F0.11111111
sI6
F0.88888884
sI7
F0.60740745
sI8
F2.1666665
sI9
F1.9888896
sI10
F5.259259
sI11
F1.5555556
sI12
F10.111111
sI13
F4.111111
sI14
F-11.111111
sI15
F14.555555
sI16
F-3.4444444
sI17
F10.111111
sI18
F0.85137916
sI19
F-2.3966565
ssbsg15
g0
(g16
g2
Ntp1233
Rp1234
(dp1235
g15
I0
sbsba(ics475_types
Instance
p1236
(dp1237
g10
(ics475_types
FeatureVector
p1238
(dp1239
g13
(dp1240
I1
F115.0
sI2
F182.0
sI3
F9.0
sI6
F0.5555558
sI7
F1.0470418
sI8
F0.7222228
sI9
F1.1434194
sI10
F17.592592
sI11
F15.444445
sI12
F14.0
sI13
F23.333334
sI14
F-6.4444447
sI15
F-10.777778
sI16
F17.222221
sI17
F23.333334
sI18
F0.39944676
sI19
F1.9375944
ssbsg15
g0
(g16
g2
Ntp1241
Rp1242
(dp1243
g15
I1
sbsba(ics475_types
Instance
p1244
(dp1245
g10
(ics475_types
FeatureVector
p1246
(dp1247
g13
(dp1248
I1
F225.0
sI2
F91.0
sI3
F9.0
sI6
F0.6666667
sI7
F0.3555557
sI8
F0.6666667
sI9
F0.31111112
sI10
F3.6666667
sI11
F1.1111112
sI12
F8.0
sI13
F1.8888888
sI14
F-7.6666665
sI15
F13.0
sI16
F-5.3333335
sI17
F8.0
sI18
F0.86781305
sI19
F-2.2177355
ssbsg15
g0
(g16
g2
Ntp1249
Rp1250
(dp1251
g15
I0
sbsba(ics475_types
Instance
p1252
(dp1253
g10
(ics475_types
FeatureVector
p1254
(dp1255
g13
(dp1256
I1
F44.0
sI2
F123.0
sI3
F9.0
sI6
F1.0555556
sI7
F0.99629647
sI8
F1.0000001
sI9
F0.8444444
sI10
F1.4814814
sI11
F0.22222222
sI12
F3.6666667
sI13
F0.5555556
sI14
F-3.7777777
sI15
F6.5555553
sI16
F-2.7777777
sI17
F3.6666667
sI18
F0.96190476
sI19
F-2.1617603
ssbsg15
g0
(g16
g2
Ntp1257
Rp1258
(dp1259
g15
I0
sbsba(ics475_types
Instance
p1260
(dp1261
g10
(ics475_types
FeatureVector
p1262
(dp1263
g13
(dp1264
I1
F235.0
sI2
F249.0
sI3
F9.0
sI5
F0.11111111
sI6
F1.6111113
sI7
F2.4259405
sI8
F2.666667
sI9
F1.5055449
sI10
F22.851852
sI11
F19.777779
sI12
F21.222221
sI13
F27.555555
sI14
F-9.222222
sI15
F-4.888889
sI16
F14.111111
sI17
F27.555555
sI18
F0.28660962
sI19
F2.2826295
ssbsg15
g0
(g16
g2
Ntp1265
Rp1266
(dp1267
g15
I1
sbsba(ics475_types
Instance
p1268
(dp1269
g10
(ics475_types
FeatureVector
p1270
(dp1271
g13
(dp1272
I1
F72.0
sI2
F191.0
sI3
F9.0
sI4
F0.11111111
sI6
F1.2777777
sI7
F0.5074075
sI8
F3.1111114
sI9
F4.6074066
sI10
F15.185185
sI11
F12.111111
sI12
F14.888889
sI13
F18.555555
sI14
F-9.222222
sI15
F-0.8888889
sI16
F10.111111
sI17
F18.555555
sI18
F0.3503698
sI19
F2.545329
ssbsg15
g0
(g16
g2
Ntp1273
Rp1274
(dp1275
g15
I1
sbsba(ics475_types
Instance
p1276
(dp1277
g10
(ics475_types
FeatureVector
p1278
(dp1279
g13
(dp1280
I1
F183.0
sI2
F157.0
sI3
F9.0
sI6
F0.6666667
sI7
F0.4216376
sI8
F2.1111114
sI9
F0.62063295
sI10
F19.666666
sI11
F16.444445
sI12
F18.666668
sI13
F23.88889
sI14
F-9.666667
sI15
F-3.0
sI16
F12.666667
sI17
F23.88889
sI18
F0.31418663
sI19
F2.4052022
ssbsg15
g0
(g16
g2
Ntp1281
Rp1282
(dp1283
g15
I1
sbsba(ics475_types
Instance
p1284
(dp1285
g10
(ics475_types
FeatureVector
p1286
(dp1287
g13
(dp1288
I1
F215.0
sI2
F190.0
sI3
F9.0
sI4
F0.11111111
sI6
F1.388889
sI7
F1.0417223
sI8
F2.6111114
sI9
F1.8429048
sI10
F19.88889
sI11
F16.0
sI12
F17.11111
sI13
F26.555555
sI14
F-11.666667
sI15
F-8.333333
sI16
F20.0
sI17
F26.555555
sI18
F0.40352198
sI19
F2.2044082
ssbsg15
g0
(g16
g2
Ntp1289
Rp1290
(dp1291
g15
I1
sbsba(ics475_types
Instance
p1292
(dp1293
g10
(ics475_types
FeatureVector
p1294
(dp1295
g13
(dp1296
I1
F221.0
sI2
F201.0
sI3
F9.0
sI4
F0.11111111
sI6
F1.4444443
sI7
F1.1287485
sI8
F2.4444447
sI9
F0.8344436
sI10
F19.148148
sI11
F14.666667
sI12
F17.666668
sI13
F25.11111
sI14
F-13.444445
sI15
F-4.4444447
sI16
F17.88889
sI17
F25.11111
sI18
F0.41676173
sI19
F2.389747
ssbsg15
g0
(g16
g2
Ntp1297
Rp1298
(dp1299
g15
I1
sbsba(ics475_types
Instance
p1300
(dp1301
g10
(ics475_types
FeatureVector
p1302
(dp1303
g13
(dp1304
I1
F139.0
sI2
F121.0
sI3
F9.0
sI6
F1.0555555
sI7
F0.41851884
sI8
F1.1666666
sI9
F0.83333385
sI10
F3.7037036
sI11
F0.7777778
sI12
F7.7777777
sI13
F2.5555556
sI14
F-8.777778
sI15
F12.222222
sI16
F-3.4444444
sI17
F7.7777777
sI18
F0.9074074
sI19
F-2.351514
ssbsg15
g0
(g16
g2
Ntp1305
Rp1306
(dp1307
g15
I0
sbsba(ics475_types
Instance
p1308
(dp1309
g10
(ics475_types
FeatureVector
p1310
(dp1311
g13
(dp1312
I1
F31.0
sI2
F68.0
sI3
F9.0
sI6
F27.944443
sI7
F203.35188
sI8
F18.277777
sI9
F338.64075
sI10
F47.185184
sI11
F38.555557
sI12
F60.11111
sI13
F42.88889
sI14
F-25.88889
sI15
F38.77778
sI16
F-12.888889
sI17
F60.11111
sI18
F0.41303283
sI19
F-2.3086562
ssbsg15
g0
(g16
g2
Ntp1313
Rp1314
(dp1315
g15
I0
sbsba(ics475_types
Instance
p1316
(dp1317
g10
(ics475_types
FeatureVector
p1318
(dp1319
g13
(dp1320
I1
F169.0
sI2
F199.0
sI3
F9.0
sI6
F1.277778
sI7
F0.4430534
sI8
F1.277778
sI9
F1.041722
sI10
F14.518518
sI11
F11.111111
sI12
F14.555555
sI13
F17.88889
sI14
F-10.222222
sI15
F0.11111111
sI16
F10.111111
sI17
F17.88889
sI18
F0.37847343
sI19
F2.6341755
ssbsg15
g0
(g16
g2
Ntp1321
Rp1322
(dp1323
g15
I1
sbsba(ics475_types
Instance
p1324
(dp1325
g10
(ics475_types
FeatureVector
p1326
(dp1327
g13
(dp1328
I1
F81.0
sI2
F145.0
sI3
F9.0
sI5
F0.11111111
sI6
F4.5555553
sI7
F4.5346413
sI8
F7.5
sI9
F6.1128287
sI10
F13.444445
sI11
F9.888889
sI12
F20.11111
sI13
F10.333334
sI14
F-10.666667
sI15
F20.0
sI16
F-9.333333
sI17
F20.11111
sI18
F0.53272784
sI19
F-2.0623195
ssbsg15
g0
(g16
g2
Ntp1329
Rp1330
(dp1331
g15
I0
sbsba(ics475_types
Instance
p1332
(dp1333
g10
(ics475_types
FeatureVector
p1334
(dp1335
g13
(dp1336
I1
F49.0
sI2
F240.0
sI3
F9.0
sI5
F0.11111111
sI6
F3.0555553
sI7
F1.638654
sI8
F2.0555556
sI9
F1.7437719
sI10
F20.444445
sI11
F15.222222
sI12
F18.777779
sI13
F27.333334
sI14
F-15.666667
sI15
F-5.0
sI16
F20.666666
sI17
F27.333334
sI18
F0.44580838
sI19
F2.4207911
ssbsg15
g0
(g16
g2
Ntp1337
Rp1338
(dp1339
g15
I1
sbsba(ics475_types
Instance
p1340
(dp1341
g10
(ics475_types
FeatureVector
p1342
(dp1343
g13
(dp1344
I1
F90.0
sI2
F237.0
sI3
F9.0
sI6
F2.4444444
sI7
F1.327766
sI8
F2.7222216
sI9
F2.678446
sI10
F22.222221
sI11
F17.555555
sI12
F19.666668
sI13
F29.444445
sI14
F-14.0
sI15
F-7.6666665
sI16
F21.666666
sI17
F29.444445
sI18
F0.41374576
sI19
F2.2802892
ssbsg15
g0
(g16
g2
Ntp1345
Rp1346
(dp1347
g15
I1
sbsba(ics475_types
Instance
p1348
(dp1349
g10
(ics475_types
FeatureVector
p1350
(dp1351
g13
(dp1352
I1
F19.0
sI2
F184.0
sI3
F9.0
sI6
F0.5555555
sI7
F0.34426498
sI8
F0.8333333
sI9
F0.62360954
sI10
F14.222222
sI11
F12.333333
sI12
F11.0
sI13
F19.333334
sI14
F-5.6666665
sI15
F-9.666667
sI16
F15.333333
sI17
F19.333334
sI18
F0.43115196
sI19
F1.9378915
ssbsg15
g0
(g16
g2
Ntp1353
Rp1354
(dp1355
g15
I1
sbsba(ics475_types
Instance
p1356
(dp1357
g10
(ics475_types
FeatureVector
p1358
(dp1359
g13
(dp1360
I1
F85.0
sI2
F124.0
sI3
F9.0
sI6
F1.2222227
sI7
F0.93491936
sI8
F2.3888893
sI9
F1.6788442
sI10
F14.666667
sI11
F7.5555553
sI12
F24.11111
sI13
F12.333333
sI14
F-21.333334
sI15
F28.333334
sI16
F-7.0
sI17
F24.11111
sI18
F0.6911226
sI19
F-2.3966818
ssbsg15
g0
(g16
g2
Ntp1361
Rp1362
(dp1363
g15
I0
sbsba(ics475_types
Instance
p1364
(dp1365
g10
(ics475_types
FeatureVector
p1366
(dp1367
g13
(dp1368
I1
F47.0
sI2
F175.0
sI3
F9.0
sI6
F1.3333327
sI7
F0.78881073
sI8
F1.166666
sI9
F0.88819396
sI10
F23.74074
sI11
F18.666668
sI12
F23.777779
sI13
F28.777779
sI14
F-15.222222
sI15
F0.11111111
sI16
F15.111111
sI17
F28.777779
sI18
F0.35148725
sI19
F2.630157
ssbsg15
g0
(g16
g2
Ntp1369
Rp1370
(dp1371
g15
I1
sbsba(ics475_types
Instance
p1372
(dp1373
g10
(ics475_types
FeatureVector
p1374
(dp1375
g13
(dp1376
I1
F20.0
sI2
F117.0
sI3
F9.0
ssbsg15
g0
(g16
g2
Ntp1377
Rp1378
(dp1379
g15
I0
sbsba(ics475_types
Instance
p1380
(dp1381
g10
(ics475_types
FeatureVector
p1382
(dp1383
g13
(dp1384
I1
F228.0
sI2
F91.0
sI3
F9.0
sI6
F0.72222227
sI7
F0.1962963
sI8
F1.1111112
sI9
F0.38518512
sI10
F2.6296296
sI11
F0.44444445
sI12
F6.2222223
sI13
F1.2222222
sI14
F-6.5555553
sI15
F10.777778
sI16
F-4.2222223
sI17
F6.2222223
sI18
F0.9398148
sI19
F-2.2257352
ssbsg15
g0
(g16
g2
Ntp1385
Rp1386
(dp1387
g15
I0
sbsba(ics475_types
Instance
p1388
(dp1389
g10
(ics475_types
FeatureVector
p1390
(dp1391
g13
(dp1392
I1
F48.0
sI2
F192.0
sI3
F9.0
sI6
F1.2222224
sI7
F1.0074071
sI8
F2.8888886
sI9
F4.8296304
sI10
F9.962963
sI11
F8.666667
sI12
F7.4444447
sI13
F13.777778
sI14
F-3.8888888
sI15
F-7.5555553
sI16
F11.444445
sI17
F13.777778
sI18
F0.47623578
sI19
F1.908457
ssbsg15
g0
(g16
g2
Ntp1393
Rp1394
(dp1395
g15
I1
sbsba(ics475_types
Instance
p1396
(dp1397
g10
(ics475_types
FeatureVector
p1398
(dp1399
g13
(dp1400
I1
F26.0
sI2
F82.0
sI3
F9.0
sI6
F1.5555553
sI7
F0.4740743
sI8
F2.111111
sI9
F4.3851857
sI10
F5.5925927
sI11
F1.7777778
sI12
F10.222222
sI13
F4.7777777
sI14
F-11.444445
sI15
F13.888889
sI16
F-2.4444444
sI17
F10.222222
sI18
F0.843607
sI19
F-2.4519827
ssbsg15
g0
(g16
g2
Ntp1401
Rp1402
(dp1403
g15
I0
sbsba(ics475_types
Instance
p1404
(dp1405
g10
(ics475_types
FeatureVector
p1406
(dp1407
g13
(dp1408
I1
F150.0
sI2
F144.0
sI3
F9.0
sI6
F0.55555564
sI7
F0.074074075
sI8
F0.6111111
sI9
F0.15185197
sI10
F2.5185184
sI11
F0.11111111
sI12
F6.5555553
sI13
F0.8888889
sI14
F-7.2222223
sI15
F12.111111
sI16
F-4.888889
sI17
F6.5555553
sI18
F0.9861111
sI19
F-2.2121625
ssbsg15
g0
(g16
g2
Ntp1409
Rp1410
(dp1411
g15
I0
sbsba(ics475_types
Instance
p1412
(dp1413
g10
(ics475_types
FeatureVector
p1414
(dp1415
g13
(dp1416
I1
F226.0
sI2
F72.0
sI3
F9.0
sI6
F1.2777778
sI7
F0.81851846
sI8
F1.3888888
sI9
F1.4407405
sI10
F4.5185184
sI11
F1.5555556
sI12
F9.444445
sI13
F2.5555556
sI14
F-8.888889
sI15
F14.777778
sI16
F-5.888889
sI17
F9.444445
sI18
F0.84168977
sI19
F-2.2167206
ssbsg15
g0
(g16
g2
Ntp1417
Rp1418
(dp1419
g15
I0
sbsba(ics475_types
Instance
p1420
(dp1421
g10
(ics475_types
FeatureVector
p1422
(dp1423
g13
(dp1424
I1
F236.0
sI2
F240.0
sI3
F9.0
sI6
F2.5555553
sI7
F1.6688874
sI8
F3.3888886
sI9
F2.4532666
sI10
F22.481482
sI11
F19.555555
sI12
F19.777779
sI13
F28.11111
sI14
F-8.777778
sI15
F-8.111111
sI16
F16.88889
sI17
F28.11111
sI18
F0.329382
sI19
F2.1418114
ssbsg15
g0
(g16
g2
Ntp1425
Rp1426
(dp1427
g15
I1
sbsba(ics475_types
Instance
p1428
(dp1429
g10
(ics475_types
FeatureVector
p1430
(dp1431
g13
(dp1432
I1
F231.0
sI2
F124.0
sI3
F9.0
sI6
F3.4444447
sI7
F14.962965
sI8
F1.8333334
sI9
F6.4333353
sI10
F3.0
sI11
F1.4444444
sI12
F5.888889
sI13
F1.6666666
sI14
F-4.6666665
sI15
F8.666667
sI16
F-4.0
sI17
F5.888889
sI18
F0.895369
sI19
F-2.118937
ssbsg15
g0
(g16
g2
Ntp1433
Rp1434
(dp1435
g15
I0
sbsba(ics475_types
Instance
p1436
(dp1437
g10
(ics475_types
FeatureVector
p1438
(dp1439
g13
(dp1440
I1
F234.0
sI2
F110.0
sI3
F9.0
sI6
F0.8333333
sI7
F0.21111107
sI8
F0.5
sI9
F0.56666666
sI10
F1.8148148
sI11
F0.11111111
sI12
F4.888889
sI13
F0.44444445
sI14
F-5.111111
sI15
F9.222222
sI16
F-4.111111
sI17
F4.888889
sI18
F0.984127
sI19
F-2.1525068
ssbsg15
g0
(g16
g2
Ntp1441
Rp1442
(dp1443
g15
I0
sbsba(ics475_types
Instance
p1444
(dp1445
g10
(ics475_types
FeatureVector
p1446
(dp1447
g13
(dp1448
I1
F62.0
sI2
F223.0
sI3
F9.0
sI6
F2.5
sI7
F5.722223
sI8
F1.6666666
sI9
F2.4444442
sI10
F6.6666665
sI11
F4.888889
sI12
F4.666667
sI13
F10.444445
sI14
F-5.3333335
sI15
F-6.0
sI16
F11.333333
sI17
F10.444445
sI18
F0.5931498
sI19
F2.0465877
ssbsg15
g0
(g16
g2
Ntp1449
Rp1450
(dp1451
g15
I1
sbsba(ics475_types
Instance
p1452
(dp1453
g10
(ics475_types
FeatureVector
p1454
(dp1455
g13
(dp1456
I1
F234.0
sI2
F122.0
sI3
F9.0
sI6
F1.7222222
sI7
F7.8407397
sI8
F1.3888888
sI9
F7.574073
sI10
F2.2592592
sI11
F0.5555556
sI12
F5.2222223
sI13
F1.0
sI14
F-5.111111
sI15
F8.888889
sI16
F-3.7777777
sI17
F5.2222223
sI18
F0.96031743
sI19
F-2.1732037
ssbsg15
g0
(g16
g2
Ntp1457
Rp1458
(dp1459
g15
I0
sbsba(ics475_types
Instance
p1460
(dp1461
g10
(ics475_types
FeatureVector
p1462
(dp1463
g13
(dp1464
I1
F21.0
sI2
F216.0
sI3
F9.0
sI4
F0.11111111
sI6
F3.833333
sI7
F0.69999796
sI8
F0.8333333
sI9
F0.47777775
sI10
F16.555555
sI11
F13.111111
sI12
F14.0
sI13
F22.555555
sI14
F-10.333333
sI15
F-7.6666665
sI16
F18.0
sI17
F22.555555
sI18
F0.426777
sI19
F2.2093086
ssbsg15
g0
(g16
g2
Ntp1465
Rp1466
(dp1467
g15
I1
sbsba(ics475_types
Instance
p1468
(dp1469
g10
(ics475_types
FeatureVector
p1470
(dp1471
g13
(dp1472
I1
F216.0
sI2
F169.0
sI3
F9.0
sI6
F0.8333333
sI7
F0.3888888
sI8
F1.9444443
sI9
F0.41851807
sI10
F16.592592
sI11
F12.777778
sI12
F15.666667
sI13
F21.333334
sI14
F-11.444445
sI15
F-2.7777777
sI16
F14.222222
sI17
F21.333334
sI18
F0.40075645
sI19
F2.44578
ssbsg15
g0
(g16
g2
Ntp1473
Rp1474
(dp1475
g15
I1
sbsba(ics475_types
Instance
p1476
(dp1477
g10
(ics475_types
FeatureVector
p1478
(dp1479
g13
(dp1480
I1
F220.0
sI2
F120.0
sI3
F9.0
sI6
F0.38888893
sI7
F0.062962964
sI8
F0.38888887
sI9
F0.062962994
sI10
F1.0
sI12
F3.0
sI14
F-3.0
sI15
F6.0
sI16
F-3.0
sI17
F3.0
sI18
F1.0
sI19
F-2.0943952
ssbsg15
g0
(g16
g2
Ntp1481
Rp1482
(dp1483
g15
I0
sbsba(ics475_types
Instance
p1484
(dp1485
g10
(ics475_types
FeatureVector
p1486
(dp1487
g13
(dp1488
I1
F117.0
sI2
F137.0
sI3
F9.0
sI6
F0.27777776
sI7
F0.3896817
sI8
F0.38888887
sI9
F0.25092417
sI10
F0.7777778
sI12
F2.2222223
sI13
F0.11111111
sI14
F-2.3333333
sI15
F4.3333335
sI16
F-2.0
sI17
F2.2222223
sI18
F1.0
sI19
F-2.123254
ssbsg15
g0
(g16
g2
Ntp1489
Rp1490
(dp1491
g15
I0
sbsba(ics475_types
Instance
p1492
(dp1493
g10
(ics475_types
FeatureVector
p1494
(dp1495
g13
(dp1496
I1
F45.0
sI2
F108.0
sI3
F9.0
sI5
F0.11111111
sI6
F25.5
sI7
F12.795401
sI8
F27.277779
sI9
F15.930981
sI10
F49.814816
sI11
F41.77778
sI12
F61.11111
sI13
F46.555557
sI14
F-24.11111
sI15
F33.88889
sI16
F-9.777778
sI17
F61.11111
sI18
F0.35897508
sI19
F-2.3604913
ssbsg15
g0
(g16
g2
Ntp1497
Rp1498
(dp1499
g15
I0
sbsba(ics475_types
Instance
p1500
(dp1501
g10
(ics475_types
FeatureVector
p1502
(dp1503
g13
(dp1504
I1
F226.0
sI2
F84.0
sI3
F9.0
sI6
F3.055556
sI7
F3.9740732
sI8
F1.7777778
sI9
F2.6962967
sI10
F4.5555553
sI11
F1.5555556
sI12
F9.0
sI13
F3.1111112
sI14
F-9.0
sI15
F13.333333
sI16
F-4.3333335
sI17
F9.0
sI18
F0.84772927
sI19
F-2.3057292
ssbsg15
g0
(g16
g2
Ntp1505
Rp1506
(dp1507
g15
I0
sbsba(ics475_types
Instance
p1508
(dp1509
g10
(ics475_types
FeatureVector
p1510
(dp1511
g13
(dp1512
I1
F136.0
sI2
F216.0
sI3
F9.0
sI4
F0.11111111
sI6
F2.7777774
sI7
F1.3277673
sI8
F2.7222226
sI9
F2.984528
sI10
F15.074074
sI11
F11.444445
sI12
F13.222222
sI13
F20.555555
sI14
F-10.888889
sI15
F-5.5555553
sI16
F16.444445
sI17
F20.555555
sI18
F0.44167453
sI19
F2.2845712
ssbsg15
g0
(g16
g2
Ntp1513
Rp1514
(dp1515
g15
I1
sbsba(ics475_types
Instance
p1516
(dp1517
g10
(ics475_types
FeatureVector
p1518
(dp1519
g13
(dp1520
I1
F23.0
sI2
F113.0
sI3
F9.0
sI6
F0.611111
sI7
F0.28518534
sI8
F0.6666666
sI9
F0.48888886
sI10
F1.4074074
sI11
F0.11111111
sI12
F3.4444444
sI13
F0.6666667
sI14
F-3.8888888
sI15
F6.111111
sI16
F-2.2222223
sI17
F3.4444444
sI18
F0.9814815
sI19
F-2.2375617
ssbsg15
g0
(g16
g2
Ntp1521
Rp1522
(dp1523
g15
I0
sbsba(ics475_types
Instance
p1524
(dp1525
g10
(ics475_types
FeatureVector
p1526
(dp1527
g13
(dp1528
I1
F68.0
sI2
F103.0
sI3
F9.0
sI6
F0.66666675
sI7
F0.57777774
sI8
F1.111111
sI9
F0.96296334
sI10
F2.148148
sI11
F0.11111111
sI12
F5.6666665
sI13
F0.6666667
sI14
F-6.111111
sI15
F10.555555
sI16
F-4.4444447
sI17
F5.6666665
sI18
F0.9876543
sI19
F-2.1854658
ssbsg15
g0
(g16
g2
Ntp1529
Rp1530
(dp1531
g15
I0
sbsba(ics475_types
Instance
p1532
(dp1533
g10
(ics475_types
FeatureVector
p1534
(dp1535
g13
(dp1536
I1
F80.0
sI2
F87.0
sI3
F9.0
sI5
F0.11111111
sI6
F24.388891
sI7
F572.9964
sI8
F44.722225
sI9
F1386.3292
sI10
F67.44444
sI11
F58.77778
sI12
F79.0
sI13
F64.55556
sI14
F-26.0
sI15
F34.666668
sI16
F-8.666667
sI17
F79.0
sI18
F0.30628127
sI19
F-2.4221272
ssbsg15
g0
(g16
g2
Ntp1537
Rp1538
(dp1539
g15
I0
sbsba(ics475_types
Instance
p1540
(dp1541
g10
(ics475_types
FeatureVector
p1542
(dp1543
g13
(dp1544
I1
F201.0
sI2
F86.0
sI3
F9.0
sI5
F0.11111111
sI6
F9.5
sI7
F222.70003
sI8
F8.777779
sI9
F105.54074
sI10
F13.407408
sI11
F8.777778
sI12
F19.88889
sI13
F11.555555
sI14
F-13.888889
sI15
F19.444445
sI16
F-5.5555553
sI17
F19.88889
sI18
F0.6309454
sI19
F-2.363577
ssbsg15
g0
(g16
g2
Ntp1545
Rp1546
(dp1547
g15
I0
sbsba(ics475_types
Instance
p1548
(dp1549
g10
(ics475_types
FeatureVector
p1550
(dp1551
g13
(dp1552
I1
F152.0
sI2
F220.0
sI3
F9.0
sI6
F0.94444466
sI7
F0.6851854
sI8
F1.4444448
sI9
F2.1629636
sI10
F14.62963
sI11
F11.555555
sI12
F13.111111
sI13
F19.222221
sI14
F-9.222222
sI15
F-4.5555553
sI16
F13.777778
sI17
F19.222221
sI18
F0.41670507
sI19
F2.3068845
ssbsg15
g0
(g16
g2
Ntp1553
Rp1554
(dp1555
g15
I1
sbsba(ics475_types
Instance
p1556
(dp1557
g10
(ics475_types
FeatureVector
p1558
(dp1559
g13
(dp1560
I1
F232.0
sI2
F175.0
sI3
F9.0
sI6
F1.1666669
sI7
F0.62360954
sI8
F2.8333333
sI9
F2.1679492
sI10
F15.37037
sI11
F12.444445
sI12
F13.555555
sI13
F20.11111
sI14
F-8.777778
sI15
F-5.4444447
sI16
F14.222222
sI17
F20.11111
sI18
F0.38741234
sI19
F2.2421958
ssbsg15
g0
(g16
g2
Ntp1561
Rp1562
(dp1563
g15
I1
sbsba(ics475_types
Instance
p1564
(dp1565
g10
(ics475_types
FeatureVector
p1566
(dp1567
g13
(dp1568
I1
F6.0
sI2
F120.0
sI3
F9.0
sI6
F0.33333328
sI7
F0.08888888
sI8
F0.5
sI9
F0.077777766
sI10
F1.1481482
sI11
F0.22222222
sI12
F3.0
sI13
F0.22222222
sI14
F-2.7777777
sI15
F5.5555553
sI16
F-2.7777777
sI17
F3.0
sI18
F1.0
sI19
F-2.0572872
ssbsg15
g0
(g16
g2
Ntp1569
Rp1570
(dp1571
g15
I0
sbsba(ics475_types
Instance
p1572
(dp1573
g10
(ics475_types
FeatureVector
p1574
(dp1575
g13
(dp1576
I1
F56.0
sI2
F107.0
sI3
F9.0
sI5
F0.11111111
sI6
F4.555556
sI7
F13.407408
sI8
F6.7777786
sI9
F23.185177
sI10
F7.962963
sI11
F4.5555553
sI12
F13.0
sI13
F6.3333335
sI14
F-10.222222
sI15
F15.111111
sI16
F-4.888889
sI17
F13.0
sI18
F0.7305922
sI19
F-2.2917624
ssbsg15
g0
(g16
g2
Ntp1577
Rp1578
(dp1579
g15
I0
sbsba(ics475_types
Instance
p1580
(dp1581
g10
(ics475_types
FeatureVector
p1582
(dp1583
g13
(dp1584
I1
F157.0
sI2
F184.0
sI3
F9.0
sI6
F1.2777777
sI7
F0.77407444
sI8
F1.3333334
sI9
F0.8444448
sI10
F19.444445
sI11
F15.222222
sI12
F18.222221
sI13
F24.88889
sI14
F-12.666667
sI15
F-3.6666667
sI16
F16.333334
sI17
F24.88889
sI18
F0.3882103
sI19
F2.4194453
ssbsg15
g0
(g16
g2
Ntp1585
Rp1586
(dp1587
g15
I1
sbsba(ics475_types
Instance
p1588
(dp1589
g10
(ics475_types
FeatureVector
p1590
(dp1591
g13
(dp1592
I1
F11.0
sI2
F118.0
sI3
F9.0
sI6
F0.27777776
sI7
F0.15185185
sI8
F0.38888893
sI9
F0.06296293
sI10
F0.7037037
sI12
F2.0
sI13
F0.11111111
sI14
F-2.1111112
sI15
F3.8888888
sI16
F-1.7777778
sI17
F2.0
sI18
F1.0
sI19
F-2.132635
ssbsg15
g0
(g16
g2
Ntp1593
Rp1594
(dp1595
g15
I0
sbsba(ics475_types
Instance
p1596
(dp1597
g10
(ics475_types
FeatureVector
p1598
(dp1599
g13
(dp1600
I1
F88.0
sI2
F211.0
sI3
F9.0
sI4
F0.22222222
sI6
F1.388889
sI7
F0.87981474
sI8
F2.4444444
sI9
F1.4555134
sI10
F10.814815
sI11
F8.888889
sI12
F7.6666665
sI13
F15.888889
sI14
F-5.7777777
sI15
F-9.444445
sI16
F15.222222
sI17
F15.888889
sI18
F0.52432793
sI19
F1.9408315
ssbsg15
g0
(g16
g2
Ntp1601
Rp1602
(dp1603
g15
I1
sbsba(ics475_types
Instance
p1604
(dp1605
g10
(ics475_types
FeatureVector
p1606
(dp1607
g13
(dp1608
I1
F34.0
sI2
F169.0
sI3
F9.0
sI6
F0.8333333
sI7
F0.5055251
sI8
F1.6111112
sI9
F0.8798151
sI10
F12.814815
sI11
F10.666667
sI12
F9.777778
sI13
F18.0
sI14
F-6.4444447
sI15
F-9.111111
sI16
F15.555555
sI17
F18.0
sI18
F0.46356925
sI19
F1.9931829
ssbsg15
g0
(g16
g2
Ntp1609
Rp1610
(dp1611
g15
I1
sbsba(ics475_types
Instance
p1612
(dp1613
g10
(ics475_types
FeatureVector
p1614
(dp1615
g13
(dp1616
I1
F78.0
sI2
F99.0
sI3
F9.0
sI6
F1.611111
sI7
F8.018518
sI8
F3.0555553
sI9
F14.7740755
sI10
F4.148148
sI11
F1.1111112
sI12
F9.0
sI13
F2.3333335
sI14
F-9.111111
sI15
F14.555555
sI16
F-5.4444447
sI17
F9.0
sI18
F0.91089994
sI19
F-2.2556732
ssbsg15
g0
(g16
g2
Ntp1617
Rp1618
(dp1619
g15
I0
sbsba(ics475_types
Instance
p1620
(dp1621
g10
(ics475_types
FeatureVector
p1622
(dp1623
g13
(dp1624
I1
F157.0
sI2
F221.0
sI3
F9.0
sI6
F1.0555555
sI7
F0.6469299
sI8
F1.2222222
sI9
F0.6206328
sI10
F12.111111
sI11
F10.222222
sI12
F8.111112
sI13
F18.0
sI14
F-5.6666665
sI15
F-12.0
sI16
F17.666666
sI17
F18.0
sI18
F0.5491797
sI19
F1.8771459
ssbsg15
g0
(g16
g2
Ntp1625
Rp1626
(dp1627
g15
I1
sbsba(ics475_types
Instance
p1628
(dp1629
g10
(ics475_types
FeatureVector
p1630
(dp1631
g13
(dp1632
I1
F58.0
sI2
F109.0
sI3
F9.0
sI6
F0.8888889
sI7
F0.25185165
sI8
F2.8333333
sI9
F1.677777
sI10
F4.296296
sI11
F1.4444444
sI12
F8.444445
sI13
F3.0
sI14
F-8.555555
sI15
F12.444445
sI16
F-3.8888888
sI17
F8.444445
sI18
F0.8644824
sI19
F-2.2837873
ssbsg15
g0
(g16
g2
Ntp1633
Rp1634
(dp1635
g15
I0
sbsba(ics475_types
Instance
p1636
(dp1637
g10
(ics475_types
FeatureVector
p1638
(dp1639
g13
(dp1640
I1
F186.0
sI2
F173.0
sI3
F9.0
sI6
F1.4444445
sI7
F0.82963055
sI8
F2.1111114
sI9
F1.9851853
sI10
F17.148148
sI11
F13.555555
sI12
F15.555555
sI13
F22.333334
sI14
F-10.777778
sI15
F-4.7777777
sI16
F15.555555
sI17
F22.333334
sI18
F0.39643326
sI19
F2.332739
ssbsg15
g0
(g16
g2
Ntp1641
Rp1642
(dp1643
g15
I1
sbsba(ics475_types
Instance
p1644
(dp1645
g10
(ics475_types
FeatureVector
p1646
(dp1647
g13
(dp1648
I1
F74.0
sI2
F129.0
sI3
F9.0
sI6
F0.22222222
sI7
F0.029629637
sI8
F0.11111111
sI9
F0.029629635
sI10
F0.5185185
sI12
F1.5555556
sI14
F-1.5555556
sI15
F3.1111112
sI16
F-1.5555556
sI17
F1.5555556
sI18
F1.0
sI19
F-2.0943952
ssbsg15
g0
(g16
g2
Ntp1649
Rp1650
(dp1651
g15
I0
sbsba(ics475_types
Instance
p1652
(dp1653
g10
(ics475_types
FeatureVector
p1654
(dp1655
g13
(dp1656
I1
F14.0
sI2
F95.0
sI3
F9.0
sI6
F1.3333334
sI7
F0.699206
sI8
F1.1111112
sI9
F0.62063295
sI10
F2.2592592
sI11
F0.6666667
sI12
F3.8888888
sI13
F2.2222223
sI14
F-4.7777777
sI15
F4.888889
sI16
F-0.11111111
sI17
F3.8888888
sI18
F0.8740741
sI19
F-2.5527236
ssbsg15
g0
(g16
g2
Ntp1657
Rp1658
(dp1659
g15
I0
sbsba(ics475_types
Instance
p1660
(dp1661
g10
(ics475_types
FeatureVector
p1662
(dp1663
g13
(dp1664
I1
F163.0
sI2
F210.0
sI3
F9.0
sI6
F1.5555555
sI7
F0.5443307
sI8
F1.4999999
sI9
F0.9603243
sI10
F11.851851
sI11
F9.333334
sI12
F8.888889
sI13
F17.333334
sI14
F-7.5555553
sI15
F-8.888889
sI16
F16.444445
sI17
F17.333334
sI18
F0.48873982
sI19
F2.0437257
ssbsg15
g0
(g16
g2
Ntp1665
Rp1666
(dp1667
g15
I1
sbsba(ics475_types
Instance
p1668
(dp1669
g10
(ics475_types
FeatureVector
p1670
(dp1671
g13
(dp1672
I1
F121.0
sI2
F237.0
sI3
F9.0
sI6
F1.3333331
sI7
F1.155555
sI8
F1.5555553
sI9
F0.785185
sI10
F7.4814816
sI11
F6.111111
sI12
F5.111111
sI13
F11.222222
sI14
F-4.111111
sI15
F-7.111111
sI16
F11.222222
sI17
F11.222222
sI18
F0.55723476
sI19
F1.9384677
ssbsg15
g0
(g16
g2
Ntp1673
Rp1674
(dp1675
g15
I1
sbsba(ics475_types
Instance
p1676
(dp1677
g10
(ics475_types
FeatureVector
p1678
(dp1679
g13
(dp1680
I1
F140.0
sI2
F125.0
sI3
F9.0
sI6
F0.66666657
sI7
F0.22222227
sI8
F2.6666667
sI9
F3.7777781
sI10
F3.925926
sI11
F1.5555556
sI12
F7.7777777
sI13
F2.4444444
sI14
F-7.111111
sI15
F11.555555
sI16
F-4.4444447
sI17
F7.7777777
sI18
F0.85319865
sI19
F-2.2342408
ssbsg15
g0
(g16
g2
Ntp1681
Rp1682
(dp1683
g15
I0
sbsba(ics475_types
Instance
p1684
(dp1685
g10
(ics475_types
FeatureVector
p1686
(dp1687
g13
(dp1688
I1
F63.0
sI2
F122.0
sI3
F9.0
sI10
F0.33333334
sI12
F1.0
sI14
F-1.0
sI15
F2.0
sI16
F-1.0
sI17
F1.0
sI18
F1.0
sI19
F-2.0943952
ssbsg15
g0
(g16
g2
Ntp1689
Rp1690
(dp1691
g15
I0
sbsba(ics475_types
Instance
p1692
(dp1693
g10
(ics475_types
FeatureVector
p1694
(dp1695
g13
(dp1696
I1
F76.0
sI2
F249.0
sI3
F9.0
sI4
F0.11111111
sI6
F2.0555558
sI7
F2.0629644
sI8
F2.3333335
sI9
F5.5111136
sI10
F13.37037
sI11
F12.222222
sI12
F13.111111
sI13
F14.777778
sI14
F-3.4444444
sI15
F-0.7777778
sI16
F4.2222223
sI17
F15.0
sI18
F0.20324889
sI19
F2.5634372
ssbsg15
g0
(g16
g2
Ntp1697
Rp1698
(dp1699
g15
I1
sbsba(ics475_types
Instance
p1700
(dp1701
g10
(ics475_types
FeatureVector
p1702
(dp1703
g13
(dp1704
I1
F212.0
sI2
F235.0
sI3
F9.0
sI6
F1.4444447
sI7
F1.4555132
sI8
F1.944445
sI9
F2.2648687
sI10
F25.88889
sI11
F21.11111
sI12
F24.0
sI13
F32.555557
sI14
F-14.333333
sI15
F-5.6666665
sI16
F20.0
sI17
F32.555557
sI18
F0.35188085
sI19
F2.3560238
ssbsg15
g0
(g16
g2
Ntp1705
Rp1706
(dp1707
g15
I1
sbsba(ics475_types
Instance
p1708
(dp1709
g10
(ics475_types
FeatureVector
p1710
(dp1711
g13
(dp1712
I1
F231.0
sI2
F124.0
sI3
F9.0
sI6
F3.4444447
sI7
F14.962965
sI8
F1.8333334
sI9
F6.4333353
sI10
F3.0
sI11
F1.4444444
sI12
F5.888889
sI13
F1.6666666
sI14
F-4.6666665
sI15
F8.666667
sI16
F-4.0
sI17
F5.888889
sI18
F0.895369
sI19
F-2.118937
ssbsg15
g0
(g16
g2
Ntp1713
Rp1714
(dp1715
g15
I0
sbsba(ics475_types
Instance
p1716
(dp1717
g10
(ics475_types
FeatureVector
p1718
(dp1719
g13
(dp1720
I1
F142.0
sI2
F208.0
sI3
F9.0
sI6
F1.9444442
sI7
F2.6407385
sI8
F2.4999995
sI9
F1.3222219
sI10
F18.555555
sI11
F15.444445
sI12
F14.888889
sI13
F25.333334
sI14
F-9.333333
sI15
F-11.0
sI16
F20.333334
sI17
F25.333334
sI18
F0.4408947
sI19
F2.1022124
ssbsg15
g0
(g16
g2
Ntp1721
Rp1722
(dp1723
g15
I1
sbsba(ics475_types
Instance
p1724
(dp1725
g10
(ics475_types
FeatureVector
p1726
(dp1727
g13
(dp1728
I1
F245.0
sI2
F249.0
sI3
F9.0
sI6
F2.0
sI7
F1.2888895
sI8
F1.4999999
sI9
F0.61111146
sI10
F14.740741
sI11
F10.777778
sI12
F15.333333
sI13
F18.11111
sI14
F-11.888889
sI15
F1.7777778
sI16
F10.111111
sI17
F18.11111
sI18
F0.40621215
sI19
F2.7435553
ssbsg15
g0
(g16
g2
Ntp1729
Rp1730
(dp1731
g15
I1
sbsba(ics475_types
Instance
p1732
(dp1733
g10
(ics475_types
FeatureVector
p1734
(dp1735
g13
(dp1736
I1
F96.0
sI2
F130.0
sI3
F9.0
sI6
F0.5555555
sI7
F0.45542008
sI8
F1.2222222
sI9
F0.65546143
sI10
F2.4074075
sI11
F0.44444445
sI12
F5.0
sI13
F1.7777778
sI14
F-5.888889
sI15
F7.7777777
sI16
F-1.8888888
sI17
F5.0
sI18
F0.93121696
sI19
F-2.3662155
ssbsg15
g0
(g16
g2
Ntp1737
Rp1738
(dp1739
g15
I0
sbsba(ics475_types
Instance
p1740
(dp1741
g10
(ics475_types
FeatureVector
p1742
(dp1743
g13
(dp1744
I1
F89.0
sI2
F221.0
sI3
F9.0
sI6
F1.3888888
sI7
F1.4851848
sI8
F1.4444445
sI9
F1.5851862
sI10
F14.074074
sI11
F10.666667
sI12
F12.444445
sI13
F19.11111
sI14
F-10.222222
sI15
F-4.888889
sI16
F15.111111
sI17
F19.11111
sI18
F0.44601154
sI19
F2.3172119
ssbsg15
g0
(g16
g2
Ntp1745
Rp1746
(dp1747
g15
I1
sbsba(ics475_types
Instance
p1748
(dp1749
g10
(ics475_types
FeatureVector
p1750
(dp1751
g13
(dp1752
I1
F63.0
sI2
F201.0
sI3
F9.0
sI6
F1.4444445
sI7
F0.9185186
sI8
F0.94444424
sI9
F0.5518518
sI10
F7.7777777
sI11
F6.2222223
sI12
F5.5555553
sI13
F11.555555
sI14
F-4.6666665
sI15
F-6.6666665
sI16
F11.333333
sI17
F11.555555
sI18
F0.54320127
sI19
F1.9829868
ssbsg15
g0
(g16
g2
Ntp1753
Rp1754
(dp1755
g15
I1
sbsba(ics475_types
Instance
p1756
(dp1757
g10
(ics475_types
FeatureVector
p1758
(dp1759
g13
(dp1760
I1
F96.0
sI2
F96.0
sI3
F9.0
sI6
F1.0
sI7
F1.5111109
sI8
F0.8333333
sI9
F0.29999986
sI10
F6.296296
sI11
F2.6666667
sI12
F11.888889
sI13
F4.3333335
sI14
F-10.888889
sI15
F16.777779
sI16
F-5.888889
sI17
F11.888889
sI18
F0.7788625
sI19
F-2.2757916
ssbsg15
g0
(g16
g2
Ntp1761
Rp1762
(dp1763
g15
I0
sbsba(ics475_types
Instance
p1764
(dp1765
g10
(ics475_types
FeatureVector
p1766
(dp1767
g13
(dp1768
I1
F47.0
sI2
F209.0
sI3
F9.0
sI6
F1.7222222
sI7
F1.2895589
sI8
F1.388889
sI9
F0.92895794
sI10
F11.62963
sI11
F9.555555
sI12
F9.222222
sI13
F16.11111
sI14
F-6.2222223
sI15
F-7.2222223
sI16
F13.444445
sI17
F16.11111
sI18
F0.46432462
sI19
F2.0609548
ssbsg15
g0
(g16
g2
Ntp1769
Rp1770
(dp1771
g15
I1
sbsba(ics475_types
Instance
p1772
(dp1773
g10
(ics475_types
FeatureVector
p1774
(dp1775
g13
(dp1776
I1
F94.0
sI2
F127.0
sI3
F9.0
sI6
F0.77777785
sI7
F0.5018486
sI8
F0.77777773
sI9
F0.6885305
sI10
F2.7407408
sI11
F0.5555556
sI12
F5.5555553
sI13
F2.1111112
sI14
F-6.5555553
sI15
F8.444445
sI16
F-1.8888888
sI17
F5.5555553
sI18
F0.91534394
sI19
F-2.4089394
ssbsg15
g0
(g16
g2
Ntp1777
Rp1778
(dp1779
g15
I0
sbsba(ics475_types
Instance
p1780
(dp1781
g10
(ics475_types
FeatureVector
p1782
(dp1783
g13
(dp1784
I1
F58.0
sI2
F128.0
sI3
F9.0
sI4
F0.11111111
sI6
F2.9444447
sI7
F1.75647
sI8
F2.4444444
sI9
F1.6821501
sI10
F16.481482
sI11
F10.111111
sI12
F25.88889
sI13
F13.444445
sI14
F-19.11111
sI15
F28.222221
sI16
F-9.111111
sI17
F25.88889
sI18
F0.6133847
sI19
F-2.3163002
ssbsg15
g0
(g16
g2
Ntp1785
Rp1786
(dp1787
g15
I0
sbsba(ics475_types
Instance
p1788
(dp1789
g10
(ics475_types
FeatureVector
p1790
(dp1791
g13
(dp1792
I1
F152.0
sI2
F247.0
sI3
F9.0
sI5
F0.22222222
sI6
F1.6111107
sI7
F1.2185191
sI8
F7.1111107
sI9
F4.340751
sI10
F21.925926
sI11
F21.11111
sI12
F25.11111
sI13
F19.555555
sI14
F-2.4444444
sI15
F9.555555
sI16
F-7.111111
sI17
F25.11111
sI18
F0.21578804
sI19
F-1.7554835
ssbsg15
g0
(g16
g2
Ntp1793
Rp1794
(dp1795
g15
I1
sbsba(ics475_types
Instance
p1796
(dp1797
g10
(ics475_types
FeatureVector
p1798
(dp1799
g13
(dp1800
I1
F33.0
sI2
F94.0
sI3
F9.0
sI6
F1.3333336
sI7
F0.21081811
sI8
F2.5555556
sI9
F1.6420401
sI10
F5.888889
sI11
F3.2222223
sI12
F7.7777777
sI13
F6.6666665
sI14
F-8.0
sI15
F5.6666665
sI16
F2.3333333
sI17
F7.7777777
sI18
F0.60978836
sI19
F-2.869948
ssbsg15
g0
(g16
g2
Ntp1801
Rp1802
(dp1803
g15
I0
sbsba(ics475_types
Instance
p1804
(dp1805
g10
(ics475_types
FeatureVector
p1806
(dp1807
g13
(dp1808
I1
F234.0
sI2
F177.0
sI3
F9.0
sI6
F1.111111
sI7
F0.4740733
sI8
F0.88888884
sI9
F0.5629634
sI10
F16.25926
sI11
F12.555555
sI12
F15.444445
sI13
F20.777779
sI14
F-11.111111
sI15
F-2.4444444
sI16
F13.555555
sI17
F20.777779
sI18
F0.3963988
sI19
F2.4621184
ssbsg15
g0
(g16
g2
Ntp1809
Rp1810
(dp1811
g15
I1
sbsba(ics475_types
Instance
p1812
(dp1813
g10
(ics475_types
FeatureVector
p1814
(dp1815
g13
(dp1816
I1
F224.0
sI2
F73.0
sI3
F9.0
sI6
F1.5
sI7
F1.2777776
sI8
F2.3333333
sI9
F1.0666656
sI10
F5.814815
sI11
F2.3333335
sI12
F10.666667
sI13
F4.4444447
sI14
F-10.444445
sI15
F14.555555
sI16
F-4.111111
sI17
F10.666667
sI18
F0.7899301
sI19
F-2.3556414
ssbsg15
g0
(g16
g2
Ntp1817
Rp1818
(dp1819
g15
I0
sbsba(ics475_types
Instance
p1820
(dp1821
g10
(ics475_types
FeatureVector
p1822
(dp1823
g13
(dp1824
I1
F71.0
sI2
F187.0
sI3
F9.0
sI6
F2.0
sI7
F1.6329935
sI8
F3.555555
sI9
F1.8698399
sI10
F18.666666
sI11
F14.666667
sI12
F16.222223
sI13
F25.11111
sI14
F-12.0
sI15
F-7.3333335
sI16
F19.333334
sI17
F25.11111
sI18
F0.43121487
sI19
F2.2543035
ssbsg15
g0
(g16
g2
Ntp1825
Rp1826
(dp1827
g15
I1
sbsba(ics475_types
Instance
p1828
(dp1829
g10
(ics475_types
FeatureVector
p1830
(dp1831
g13
(dp1832
I1
F68.0
sI2
F122.0
sI3
F9.0
sI6
F2.777778
sI7
F2.0294137
sI8
F1.5555559
sI9
F1.9962927
sI10
F20.148148
sI11
F14.222222
sI12
F31.11111
sI13
F15.111111
sI14
F-17.777779
sI15
F32.88889
sI16
F-15.111111
sI17
F31.11111
sI18
F0.54582953
sI19
F-2.0601704
ssbsg15
g0
(g16
g2
Ntp1833
Rp1834
(dp1835
g15
I0
sbsba(ics475_types
Instance
p1836
(dp1837
g10
(ics475_types
FeatureVector
p1838
(dp1839
g13
(dp1840
I1
F68.0
sI2
F172.0
sI3
F9.0
sI6
F1.0555553
sI7
F1.0628396
sI8
F2.3333337
sI9
F1.6996722
sI10
F30.11111
sI11
F24.555555
sI12
F30.11111
sI13
F35.666668
sI14
F-16.666666
sI16
F16.666666
sI17
F35.666668
sI18
F0.31229463
sI19
F2.6178014
ssbsg15
g0
(g16
g2
Ntp1841
Rp1842
(dp1843
g15
I1
sbsba(ics475_types
Instance
p1844
(dp1845
g10
(ics475_types
FeatureVector
p1846
(dp1847
g13
(dp1848
I1
F93.0
sI2
F236.0
sI3
F9.0
sI4
F0.11111111
sI6
F1.7777777
sI7
F2.6962965
sI8
F1.9999999
sI9
F0.93333334
sI10
F12.518518
sI11
F9.555555
sI12
F10.777778
sI13
F17.222223
sI14
F-8.888889
sI15
F-5.2222223
sI16
F14.111111
sI17
F17.222223
sI18
F0.44724658
sI19
F2.2671974
ssbsg15
g0
(g16
g2
Ntp1849
Rp1850
(dp1851
g15
I1
sbsba(ics475_types
Instance
p1852
(dp1853
g10
(ics475_types
FeatureVector
p1854
(dp1855
g13
(dp1856
I1
F14.0
sI2
F120.0
sI3
F9.0
sI6
F0.3333333
sI7
F0.13333331
sI8
F0.44444442
sI9
F0.29629624
sI10
F1.5925926
sI12
F3.8888888
sI13
F0.8888889
sI14
F-4.7777777
sI15
F6.888889
sI16
F-2.1111112
sI17
F3.8888888
sI18
F1.0
sI19
F-2.3157208
ssbsg15
g0
(g16
g2
Ntp1857
Rp1858
(dp1859
g15
I0
sbsba(ics475_types
Instance
p1860
(dp1861
g10
(ics475_types
FeatureVector
p1862
(dp1863
g13
(dp1864
I1
F214.0
sI2
F121.0
sI3
F9.0
sI6
F0.2777778
sI7
F0.06296298
sI8
F0.11111111
sI9
F0.07407408
sI10
F1.1481482
sI12
F3.3333333
sI13
F0.11111111
sI14
F-3.4444444
sI15
F6.5555553
sI16
F-3.1111112
sI17
F3.3333333
sI18
F1.0
sI19
F-2.132635
ssbsg15
g0
(g16
g2
Ntp1865
Rp1866
(dp1867
g15
I0
sbsba(ics475_types
Instance
p1868
(dp1869
g10
(ics475_types
FeatureVector
p1870
(dp1871
g13
(dp1872
I1
F96.0
sI2
F133.0
sI3
F9.0
sI6
F0.055555556
sI7
F0.01851852
sI8
F0.22222222
sI9
F0.029629637
sI10
F0.4814815
sI12
F1.4444444
sI14
F-1.4444444
sI15
F2.8888888
sI16
F-1.4444444
sI17
F1.4444444
sI18
F1.0
sI19
F-2.0943952
ssbsg15
g0
(g16
g2
Ntp1873
Rp1874
(dp1875
g15
I0
sbsba(ics475_types
Instance
p1876
(dp1877
g10
(ics475_types
FeatureVector
p1878
(dp1879
g13
(dp1880
I1
F23.0
sI2
F92.0
sI3
F9.0
sI5
F0.11111111
sI6
F4.111111
sI7
F4.63641
sI8
F7.0
sI9
F5.688196
sI10
F12.666667
sI11
F8.777778
sI12
F18.666668
sI13
F10.555555
sI14
F-11.666667
sI15
F18.0
sI16
F-6.3333335
sI17
F18.666668
sI18
F0.56489813
sI19
F-2.2805607
ssbsg15
g0
(g16
g2
Ntp1881
Rp1882
(dp1883
g15
I0
sbsba(ics475_types
Instance
p1884
(dp1885
g10
(ics475_types
FeatureVector
p1886
(dp1887
g13
(dp1888
I1
F74.0
sI2
F129.0
sI3
F9.0
sI6
F0.22222222
sI7
F0.029629637
sI8
F0.11111111
sI9
F0.029629635
sI10
F0.5185185
sI12
F1.5555556
sI14
F-1.5555556
sI15
F3.1111112
sI16
F-1.5555556
sI17
F1.5555556
sI18
F1.0
sI19
F-2.0943952
ssbsg15
g0
(g16
g2
Ntp1889
Rp1890
(dp1891
g15
I0
sbsba(ics475_types
Instance
p1892
(dp1893
g10
(ics475_types
FeatureVector
p1894
(dp1895
g13
(dp1896
I1
F104.0
sI2
F139.0
sI3
F9.0
sI6
F0.33333334
sI7
F0.5163977
sI8
F0.33333334
sI9
F0.5163977
sI10
F0.6666667
sI12
F1.7777778
sI13
F0.22222222
sI14
F-2.0
sI15
F3.3333333
sI16
F-1.3333334
sI17
F1.7777778
sI18
F1.0
sI19
F-2.1507304
ssbsg15
g0
(g16
g2
Ntp1897
Rp1898
(dp1899
g15
I0
sbsba(ics475_types
Instance
p1900
(dp1901
g10
(ics475_types
FeatureVector
p1902
(dp1903
g13
(dp1904
I1
F54.0
sI2
F126.0
sI3
F9.0
sI6
F0.6666666
sI7
F0.31111127
sI8
F0.49999997
sI9
F0.16666673
sI10
F1.4074074
sI12
F3.6666667
sI13
F0.5555556
sI14
F-4.2222223
sI15
F6.7777777
sI16
F-2.5555556
sI17
F3.6666667
sI18
F1.0
sI19
F-2.229939
ssbsg15
g0
(g16
g2
Ntp1905
Rp1906
(dp1907
g15
I0
sbsba(ics475_types
Instance
p1908
(dp1909
g10
(ics475_types
FeatureVector
p1910
(dp1911
g13
(dp1912
I1
F23.0
sI2
F129.0
sI3
F9.0
sI6
F0.5
sI7
F0.077777795
sI8
F0.38888887
sI9
F0.15185186
sI10
F0.5185185
sI12
F1.5555556
sI14
F-1.5555556
sI15
F3.1111112
sI16
F-1.5555556
sI17
F1.5555556
sI18
F0.7777778
sI19
F-2.0943952
ssbsg15
g0
(g16
g2
Ntp1913
Rp1914
(dp1915
g15
I0
sbsba(ics475_types
Instance
p1916
(dp1917
g10
(ics475_types
FeatureVector
p1918
(dp1919
g13
(dp1920
I1
F217.0
sI2
F245.0
sI3
F9.0
sI4
F0.11111111
sI5
F0.11111111
sI6
F3.1666667
sI7
F3.0166214
sI8
F2.1666667
sI9
F1.2427571
sI10
F9.740741
sI11
F7.4444447
sI12
F7.111111
sI13
F14.666667
sI14
F-6.888889
sI15
F-7.888889
sI16
F14.777778
sI17
F14.666667
sI18
F0.57276654
sI19
F2.0694523
ssbsg15
g0
(g16
g2
Ntp1921
Rp1922
(dp1923
g15
I1
sbsba(ics475_types
Instance
p1924
(dp1925
g10
(ics475_types
FeatureVector
p1926
(dp1927
g13
(dp1928
I1
F163.0
sI2
F177.0
sI3
F9.0
sI4
F0.11111111
sI6
F1.1666673
sI7
F0.7
sI8
F2.5
sI9
F0.7888896
sI10
F24.518518
sI11
F21.222221
sI12
F21.444445
sI13
F30.88889
sI14
F-9.888889
sI15
F-9.222222
sI16
F19.11111
sI17
F30.88889
sI18
F0.3211389
sI19
F2.1254158
ssbsg15
g0
(g16
g2
Ntp1929
Rp1930
(dp1931
g15
I1
sbsba(ics475_types
Instance
p1932
(dp1933
g10
(ics475_types
FeatureVector
p1934
(dp1935
g13
(dp1936
I1
F18.0
sI2
F90.0
sI3
F9.0
sI6
F1.0555555
sI7
F0.37407416
sI8
F0.6666667
sI9
F0.22222227
sI10
F2.8148148
sI11
F0.5555556
sI12
F6.888889
sI13
F1.0
sI14
F-6.7777777
sI15
F12.222222
sI16
F-5.4444447
sI17
F6.888889
sI18
F0.9261464
sI19
F-2.1643226
ssbsg15
g0
(g16
g2
Ntp1937
Rp1938
(dp1939
g15
I0
sbsba(ics475_types
Instance
p1940
(dp1941
g10
(ics475_types
FeatureVector
p1942
(dp1943
g13
(dp1944
I1
F140.0
sI2
F161.0
sI3
F9.0
sI6
F0.27777767
sI7
F0.3277306
sI8
F0.7777777
sI9
F0.6206328
sI10
F15.740741
sI11
F12.444445
sI12
F14.333333
sI13
F20.444445
sI14
F-9.888889
sI15
F-4.2222223
sI16
F14.111111
sI17
F20.444445
sI18
F0.39095718
sI19
F2.3451326
ssbsg15
g0
(g16
g2
Ntp1945
Rp1946
(dp1947
g15
I1
sbsba(ics475_types
Instance
p1948
(dp1949
g10
(ics475_types
FeatureVector
p1950
(dp1951
g13
(dp1952
I1
F63.0
sI2
F220.0
sI3
F9.0
sI6
F3.055556
sI7
F15.2629595
sI8
F3.6666667
sI9
F6.0888896
sI10
F8.185185
sI11
F6.5555553
sI12
F6.4444447
sI13
F11.555555
sI14
F-4.888889
sI15
F-5.2222223
sI16
F10.111111
sI17
F11.555555
sI18
F0.48671728
sI19
F2.0931497
ssbsg15
g0
(g16
g2
Ntp1953
Rp1954
(dp1955
g15
I1
sbsba(ics475_types
Instance
p1956
(dp1957
g10
(ics475_types
FeatureVector
p1958
(dp1959
g13
(dp1960
I1
F19.0
sI2
F90.0
sI3
F9.0
sI6
F1.3888888
sI7
F1.8851852
sI8
F1.1111112
sI9
F2.1185184
sI10
F3.4074075
sI11
F0.8888889
sI12
F7.888889
sI13
F1.4444444
sI14
F-7.5555553
sI15
F13.444445
sI16
F-5.888889
sI17
F7.888889
sI18
F0.904321
sI19
F-2.1660802
ssbsg15
g0
(g16
g2
Ntp1961
Rp1962
(dp1963
g15
I0
sbsba(ics475_types
Instance
p1964
(dp1965
g10
(ics475_types
FeatureVector
p1966
(dp1967
g13
(dp1968
I1
F215.0
sI2
F219.0
sI3
F9.0
sI6
F2.5555556
sI7
F2.2377238
sI8
F3.2222223
sI9
F2.491467
sI10
F13.222222
sI11
F10.333334
sI12
F10.222222
sI13
F19.11111
sI14
F-8.666667
sI15
F-9.0
sI16
F17.666666
sI17
F19.11111
sI18
F0.49459508
sI19
F2.0861003
ssbsg15
g0
(g16
g2
Ntp1969
Rp1970
(dp1971
g15
I1
sbsba(ics475_types
Instance
p1972
(dp1973
g10
(ics475_types
FeatureVector
p1974
(dp1975
g13
(dp1976
I1
F38.0
sI2
F241.0
sI3
F9.0
sI6
F2.055556
sI7
F0.5741337
sI8
F1.5555559
sI9
F1.4246509
sI10
F14.333333
sI11
F10.888889
sI12
F14.0
sI13
F18.11111
sI14
F-10.333333
sI15
F-1.0
sI16
F11.333333
sI17
F18.11111
sI18
F0.3999011
sI19
F2.544142
ssbsg15
g0
(g16
g2
Ntp1977
Rp1978
(dp1979
g15
I1
sbsba(ics475_types
Instance
p1980
(dp1981
g10
(ics475_types
FeatureVector
p1982
(dp1983
g13
(dp1984
I1
F200.0
sI2
F250.0
sI3
F9.0
sI6
F2.2777777
sI7
F1.420746
sI8
F1.4444445
sI9
F1.0255988
sI10
F9.222222
sI11
F6.5555553
sI12
F7.3333335
sI13
F13.777778
sI14
F-8.0
sI15
F-5.6666665
sI16
F13.666667
sI17
F13.777778
sI18
F0.5633903
sI19
F2.1929355
ssbsg15
g0
(g16
g2
Ntp1985
Rp1986
(dp1987
g15
I1
sbsba(ics475_types
Instance
p1988
(dp1989
g10
(ics475_types
FeatureVector
p1990
(dp1991
g13
(dp1992
I1
F16.0
sI2
F246.0
sI3
F9.0
sI4
F0.11111111
sI6
F2.3888888
sI7
F1.0851847
sI8
F1.722222
sI9
F1.7518522
sI10
F9.407408
sI11
F9.555555
sI12
F10.111111
sI13
F8.555555
sI14
F0.44444445
sI15
F2.1111112
sI16
F-2.5555556
sI17
F10.333334
sI18
F0.16335146
sI19
F-1.1905607
ssbsg15
g0
(g16
g2
Ntp1993
Rp1994
(dp1995
g15
I1
sbsba(ics475_types
Instance
p1996
(dp1997
g10
(ics475_types
FeatureVector
p1998
(dp1999
g13
(dp2000
I1
F113.0
sI2
F130.0
sI3
F9.0
sI6
F0.27777776
sI7
F0.25092423
sI8
F0.33333328
sI9
F0.3651483
sI10
F0.8888889
sI12
F2.5555556
sI13
F0.11111111
sI14
F-2.6666667
sI15
F5.0
sI16
F-2.3333333
sI17
F2.5555556
sI18
F1.0
sI19
F-2.123254
ssbsg15
g0
(g16
g2
Ntp2001
Rp2002
(dp2003
g15
I0
sbsba(ics475_types
Instance
p2004
(dp2005
g10
(ics475_types
FeatureVector
p2006
(dp2007
g13
(dp2008
I1
F175.0
sI2
F212.0
sI3
F9.0
sI4
F0.11111111
sI6
F1.0000001
sI7
F0.666667
sI8
F1.8333334
sI9
F1.345775
sI10
F12.296296
sI11
F10.0
sI12
F9.0
sI13
F17.88889
sI14
F-6.888889
sI15
F-9.888889
sI16
F16.777779
sI17
F17.88889
sI18
F0.4987573
sI19
F1.9744948
ssbsg15
g0
(g16
g2
Ntp2009
Rp2010
(dp2011
g15
I1
sbsba(ics475_types
Instance
p2012
(dp2013
g10
(ics475_types
FeatureVector
p2014
(dp2015
g13
(dp2016
I1
F127.0
sI2
F143.0
sI3
F9.0
sI6
F1.5
sI7
F0.12222214
sI8
F0.88888884
sI9
F0.60740745
sI10
F4.185185
sI11
F0.8888889
sI12
F9.444445
sI13
F2.2222223
sI14
F-9.888889
sI15
F15.777778
sI16
F-5.888889
sI17
F9.444445
sI18
F0.915376
sI19
F-2.2574124
ssbsg15
g0
(g16
g2
Ntp2017
Rp2018
(dp2019
g15
I0
sbsba(ics475_types
Instance
p2020
(dp2021
g10
(ics475_types
FeatureVector
p2022
(dp2023
g13
(dp2024
I1
F71.0
sI2
F180.0
sI3
F9.0
sI4
F0.11111111
sI6
F1.222222
sI7
F0.5629625
sI8
F3.0
sI9
F1.8666646
sI10
F22.333334
sI11
F18.333334
sI12
F21.444445
sI13
F27.222221
sI14
F-12.0
sI15
F-2.6666667
sI16
F14.666667
sI17
F27.222221
sI18
F0.3273826
sI19
F2.4538307
ssbsg15
g0
(g16
g2
Ntp2025
Rp2026
(dp2027
g15
I1
sbsba(ics475_types
Instance
p2028
(dp2029
g10
(ics475_types
FeatureVector
p2030
(dp2031
g13
(dp2032
I1
F115.0
sI2
F138.0
sI3
F9.0
sI6
F0.33333334
sI7
F0.0888889
sI8
F0.33333334
sI9
F0.1777778
sI10
F0.7777778
sI12
F2.3333335
sI14
F-2.3333333
sI15
F4.6666665
sI16
F-2.3333333
sI17
F2.3333335
sI18
F1.0
sI19
F-2.0943952
ssbsg15
g0
(g16
g2
Ntp2033
Rp2034
(dp2035
g15
I0
sbsba(ics475_types
Instance
p2036
(dp2037
g10
(ics475_types
FeatureVector
p2038
(dp2039
g13
(dp2040
I1
F91.0
sI2
F247.0
sI3
F9.0
sI6
F2.6666665
sI7
F1.2472191
sI8
F2.222222
sI9
F1.4246507
sI10
F12.62963
sI11
F9.555555
sI12
F12.444445
sI13
F15.888889
sI14
F-9.222222
sI15
F-0.5555556
sI16
F9.777778
sI17
F15.888889
sI18
F0.4018332
sI19
F2.55309
ssbsg15
g0
(g16
g2
Ntp2041
Rp2042
(dp2043
g15
I1
sbsba(ics475_types
Instance
p2044
(dp2045
g10
(ics475_types
FeatureVector
p2046
(dp2047
g13
(dp2048
I1
F62.0
sI2
F223.0
sI3
F9.0
sI6
F2.5
sI7
F5.722223
sI8
F1.6666666
sI9
F2.4444442
sI10
F6.6666665
sI11
F4.888889
sI12
F4.666667
sI13
F10.444445
sI14
F-5.3333335
sI15
F-6.0
sI16
F11.333333
sI17
F10.444445
sI18
F0.5931498
sI19
F2.0465877
ssbsg15
g0
(g16
g2
Ntp2049
Rp2050
(dp2051
g15
I1
sbsba(ics475_types
Instance
p2052
(dp2053
g10
(ics475_types
FeatureVector
p2054
(dp2055
g13
(dp2056
I1
F107.0
sI2
F210.0
sI3
F9.0
sI6
F0.9444445
sI7
F0.5962963
sI8
F1.8333335
sI9
F0.65555495
sI10
F15.111111
sI11
F11.222222
sI12
F14.222222
sI13
F19.88889
sI14
F-11.666667
sI15
F-2.6666667
sI16
F14.333333
sI17
F19.88889
sI18
F0.43576914
sI19
F2.4615993
ssbsg15
g0
(g16
g2
Ntp2057
Rp2058
(dp2059
g15
I1
sbsba(ics475_types
Instance
p2060
(dp2061
g10
(ics475_types
FeatureVector
p2062
(dp2063
g13
(dp2064
I1
F53.0
sI2
F135.0
sI3
F9.0
sI6
F0.5555555
sI7
F0.2074075
sI8
F0.33333334
sI9
F0.08888893
sI10
F0.7407407
sI12
F2.1111112
sI13
F0.11111111
sI14
F-2.2222223
sI15
F4.111111
sI16
F-1.8888888
sI17
F2.1111112
sI18
F0.8888889
sI19
F-2.1374457
ssbsg15
g0
(g16
g2
Ntp2065
Rp2066
(dp2067
g15
I0
sbsba(ics475_types
Instance
p2068
(dp2069
g10
(ics475_types
FeatureVector
p2070
(dp2071
g13
(dp2072
I1
F49.0
sI2
F112.0
sI3
F9.0
sI4
F0.11111111
sI6
F1.3333334
sI7
F1.3777776
sI8
F1.5555555
sI9
F1.7185184
sI10
F3.8148148
sI11
F1.1111112
sI12
F7.2222223
sI13
F3.1111112
sI14
F-8.111111
sI15
F10.222222
sI16
F-2.1111112
sI17
F7.2222223
sI18
F0.86766475
sI19
F-2.4357176
ssbsg15
g0
(g16
g2
Ntp2073
Rp2074
(dp2075
g15
I0
sbsba(ics475_types
Instance
p2076
(dp2077
g10
(ics475_types
FeatureVector
p2078
(dp2079
g13
(dp2080
I1
F234.0
sI2
F161.0
sI3
F9.0
sI6
F0.888889
sI7
F0.501849
sI8
F1.6111113
sI9
F1.4050179
sI10
F19.037037
sI11
F15.111111
sI12
F17.0
sI13
F25.0
sI14
F-11.777778
sI15
F-6.111111
sI16
F17.88889
sI17
F25.0
sI18
F0.39559862
sI19
F2.292736
ssbsg15
g0
(g16
g2
Ntp2081
Rp2082
(dp2083
g15
I1
sbsba(ics475_types
Instance
p2084
(dp2085
g10
(ics475_types
FeatureVector
p2086
(dp2087
g13
(dp2088
I1
F29.0
sI2
F195.0
sI3
F9.0
sI6
F0.44444433
sI7
F0.40368652
sI8
F0.61111087
sI9
F0.6804136
sI10
F16.037037
sI11
F14.444445
sI12
F13.333333
sI13
F20.333334
sI14
F-4.7777777
sI15
F-8.111111
sI16
F12.888889
sI17
F20.333334
sI18
F0.34230694
sI19
F1.9430399
ssbsg15
g0
(g16
g2
Ntp2089
Rp2090
(dp2091
g15
I1
sbsba(ics475_types
Instance
p2092
(dp2093
g10
(ics475_types
FeatureVector
p2094
(dp2095
g13
(dp2096
I1
F100.0
sI2
F115.0
sI3
F9.0
sI4
F0.11111111
sI6
F0.77777785
sI7
F0.16296305
sI8
F0.7222223
sI9
F0.32962963
sI10
F2.7407408
sI11
F0.33333334
sI12
F6.2222223
sI13
F1.6666666
sI14
F-7.2222223
sI15
F10.444445
sI16
F-3.2222223
sI17
F6.2222223
sI18
F0.9543651
sI19
F-2.3218653
ssbsg15
g0
(g16
g2
Ntp2097
Rp2098
(dp2099
g15
I0
sbsba(ics475_types
Instance
p2100
(dp2101
g10
(ics475_types
FeatureVector
p2102
(dp2103
g13
(dp2104
I1
F94.0
sI2
F246.0
sI3
F9.0
sI6
F2.3333333
sI7
F1.6193275
sI8
F2.7222223
sI9
F0.77220213
sI10
F22.814816
sI11
F18.88889
sI12
F19.666668
sI13
F29.88889
sI14
F-11.777778
sI15
F-9.444445
sI16
F21.222221
sI17
F29.88889
sI18
F0.37479976
sI19
F2.1589146
ssbsg15
g0
(g16
g2
Ntp2105
Rp2106
(dp2107
g15
I1
sbsba(ics475_types
Instance
p2108
(dp2109
g10
(ics475_types
FeatureVector
p2110
(dp2111
g13
(dp2112
I1
F69.0
sI2
F139.0
sI3
F9.0
sI6
F2.8333328
sI7
F1.7732588
sI8
F2.1111112
sI9
F1.6688871
sI10
F18.074074
sI11
F16.0
sI12
F22.555555
sI13
F15.666667
sI14
F-6.2222223
sI15
F13.444445
sI16
F-7.2222223
sI17
F23.88889
sI18
F0.38661182
sI19
F-1.7028334
ssbsg15
g0
(g16
g2
Ntp2113
Rp2114
(dp2115
g15
I0
sbsba(ics475_types
Instance
p2116
(dp2117
g10
(ics475_types
FeatureVector
p2118
(dp2119
g13
(dp2120
I1
F100.0
sI2
F111.0
sI3
F9.0
sI6
F3.7222223
sI7
F20.951847
sI8
F4.111111
sI9
F19.496296
sI10
F4.888889
sI11
F2.2222223
sI12
F9.111111
sI13
F3.3333333
sI14
F-8.0
sI15
F12.666667
sI16
F-4.6666665
sI17
F9.111111
sI18
F0.8646644
sI19
F-2.2164733
ssbsg15
g0
(g16
g2
Ntp2121
Rp2122
(dp2123
g15
I0
sbsba(ics475_types
Instance
p2124
(dp2125
g10
(ics475_types
FeatureVector
p2126
(dp2127
g13
(dp2128
I1
F96.0
sI2
F236.0
sI3
F9.0
sI6
F1.7222222
sI7
F3.840741
sI8
F1.7222223
sI9
F1.1296297
sI10
F13.962963
sI11
F10.777778
sI12
F12.444445
sI13
F18.666668
sI14
F-9.555555
sI15
F-4.5555553
sI16
F14.111111
sI17
F18.666668
sI18
F0.42423514
sI19
F2.3206298
ssbsg15
g0
(g16
g2
Ntp2129
Rp2130
(dp2131
g15
I1
sbsba(ics475_types
Instance
p2132
(dp2133
g10
(ics475_types
FeatureVector
p2134
(dp2135
g13
(dp2136
I1
F78.0
sI2
F100.0
sI3
F9.0
sI6
F1.5555553
sI7
F8.296297
sI8
F2.5555556
sI9
F8.829631
sI10
F4.5925927
sI11
F1.4444444
sI12
F9.444445
sI13
F2.8888888
sI14
F-9.444445
sI15
F14.555555
sI16
F-5.111111
sI17
F9.444445
sI18
F0.87633204
sI19
F-2.2805398
ssbsg15
g0
(g16
g2
Ntp2137
Rp2138
(dp2139
g15
I0
sbsba(ics475_types
Instance
p2140
(dp2141
g10
(ics475_types
FeatureVector
p2142
(dp2143
g13
(dp2144
I1
F192.0
sI2
F239.0
sI3
F9.0
sI4
F0.11111111
sI6
F2.4999998
sI7
F2.4333322
sI8
F2.277778
sI9
F1.3074071
sI10
F15.148149
sI11
F12.222222
sI12
F14.555555
sI13
F18.666668
sI14
F-8.777778
sI15
F-1.7777778
sI16
F10.555555
sI17
F18.666668
sI18
F0.34430414
sI19
F2.482445
ssbsg15
g0
(g16
g2
Ntp2145
Rp2146
(dp2147
g15
I1
sbsba(ics475_types
Instance
p2148
(dp2149
g10
(ics475_types
FeatureVector
p2150
(dp2151
g13
(dp2152
I1
F23.0
sI2
F237.0
sI3
F9.0
sI6
F1.6666666
sI7
F2.444445
sI8
F1.7777777
sI9
F2.074075
sI10
F5.851852
sI11
F4.2222223
sI12
F4.5555553
sI13
F8.777778
sI14
F-4.888889
sI15
F-3.8888888
sI16
F8.777778
sI17
F8.777778
sI18
F0.54126585
sI19
F2.1805263
ssbsg15
g0
(g16
g2
Ntp2153
Rp2154
(dp2155
g15
I1
sbsba(ics475_types
Instance
p2156
(dp2157
g10
(ics475_types
FeatureVector
p2158
(dp2159
g13
(dp2160
I1
F18.0
sI2
F66.0
sI3
F9.0
sI6
F8.666665
sI7
F9.089677
sI8
F10.944443
sI9
F5.289054
sI10
F39.88889
sI11
F32.333336
sI12
F49.555557
sI13
F37.77778
sI14
F-22.666666
sI15
F29.0
sI16
F-6.3333335
sI17
F49.555557
sI18
F0.3501687
sI19
F-2.43063
ssbsg15
g0
(g16
g2
Ntp2161
Rp2162
(dp2163
g15
I0
sbsba(ics475_types
Instance
p2164
(dp2165
g10
(ics475_types
FeatureVector
p2166
(dp2167
g13
(dp2168
I1
F63.0
sI2
F201.0
sI3
F9.0
sI6
F1.4444445
sI7
F0.9185186
sI8
F0.94444424
sI9
F0.5518518
sI10
F7.7777777
sI11
F6.2222223
sI12
F5.5555553
sI13
F11.555555
sI14
F-4.6666665
sI15
F-6.6666665
sI16
F11.333333
sI17
F11.555555
sI18
F0.54320127
sI19
F1.9829868
ssbsg15
g0
(g16
g2
Ntp2169
Rp2170
(dp2171
g15
I1
sbsba(ics475_types
Instance
p2172
(dp2173
g10
(ics475_types
FeatureVector
p2174
(dp2175
g13
(dp2176
I1
F132.0
sI2
F91.0
sI3
F9.0
sI5
F0.11111111
sI6
F18.944445
sI7
F188.50739
sI8
F33.444447
sI9
F889.3629
sI10
F42.814816
sI11
F35.88889
sI12
F52.666668
sI13
F39.88889
sI14
F-20.777779
sI15
F29.555555
sI16
F-8.777778
sI17
F52.666668
sI18
F0.39882392
sI19
F-2.3460567
ssbsg15
g0
(g16
g2
Ntp2177
Rp2178
(dp2179
g15
I0
sbsba(ics475_types
Instance
p2180
(dp2181
g10
(ics475_types
FeatureVector
p2182
(dp2183
g13
(dp2184
I1
F241.0
sI2
F218.0
sI3
F9.0
sI6
F1.7777777
sI7
F3.4962964
sI8
F1.6666664
sI9
F1.0222222
sI10
F8.444445
sI11
F5.4444447
sI12
F7.3333335
sI13
F12.555555
sI14
F-9.0
sI15
F-3.3333333
sI16
F12.333333
sI17
F12.555555
sI18
F0.5692659
sI19
F2.361442
ssbsg15
g0
(g16
g2
Ntp2185
Rp2186
(dp2187
g15
I1
sbsba(ics475_types
Instance
p2188
(dp2189
g10
(ics475_types
FeatureVector
p2190
(dp2191
g13
(dp2192
I1
F18.0
sI2
F87.0
sI3
F9.0
sI6
F1.5555555
sI7
F1.9626132
sI8
F1.8888887
sI9
F1.7469552
sI10
F2.925926
sI11
F1.2222222
sI12
F5.6666665
sI13
F1.8888888
sI14
F-5.111111
sI15
F8.222222
sI16
F-3.1111112
sI17
F5.6666665
sI18
F0.86277056
sI19
F-2.2294934
ssbsg15
g0
(g16
g2
Ntp2193
Rp2194
(dp2195
g15
I0
sbsba(ics475_types
Instance
p2196
(dp2197
g10
(ics475_types
FeatureVector
p2198
(dp2199
g13
(dp2200
I1
F5.0
sI2
F118.0
sI3
F9.0
sI6
F0.22222222
sI7
F0.07407408
sI8
F0.33333334
sI9
F0.0888889
sI10
F0.9259259
sI12
F2.5555556
sI13
F0.22222222
sI14
F-2.7777777
sI15
F4.888889
sI16
F-2.1111112
sI17
F2.5555556
sI18
F1.0
sI19
F-2.1712801
ssbsg15
g0
(g16
g2
Ntp2201
Rp2202
(dp2203
g15
I0
sbsba(ics475_types
Instance
p2204
(dp2205
g10
(ics475_types
FeatureVector
p2206
(dp2207
g13
(dp2208
I1
F18.0
sI2
F90.0
sI3
F9.0
sI6
F1.0555555
sI7
F0.37407416
sI8
F0.6666667
sI9
F0.22222227
sI10
F2.8148148
sI11
F0.5555556
sI12
F6.888889
sI13
F1.0
sI14
F-6.7777777
sI15
F12.222222
sI16
F-5.4444447
sI17
F6.888889
sI18
F0.9261464
sI19
F-2.1643226
ssbsg15
g0
(g16
g2
Ntp2209
Rp2210
(dp2211
g15
I0
sbsba(ics475_types
Instance
p2212
(dp2213
g10
(ics475_types
FeatureVector
p2214
(dp2215
g13
(dp2216
I1
F25.0
sI2
F91.0
sI3
F9.0
sI6
F1.611111
sI7
F4.3740745
sI8
F1.388889
sI9
F0.99629617
sI10
F3.8888888
sI11
F0.8888889
sI12
F8.111112
sI13
F2.6666667
sI14
F-9.0
sI15
F12.666667
sI16
F-3.6666667
sI17
F8.111112
sI18
F0.9114478
sI19
F-2.3545752
ssbsg15
g0
(g16
g2
Ntp2217
Rp2218
(dp2219
g15
I0
sbsba(ics475_types
Instance
p2220
(dp2221
g10
(ics475_types
FeatureVector
p2222
(dp2223
g13
(dp2224
I1
F225.0
sI2
F222.0
sI3
F9.0
sI4
F0.11111111
sI6
F1.5
sI7
F0.4777781
sI8
F1.7777778
sI9
F1.7185186
sI10
F14.0
sI11
F10.777778
sI12
F13.666667
sI13
F17.555555
sI14
F-9.666667
sI15
F-1.0
sI16
F10.666667
sI17
F17.555555
sI18
F0.38572726
sI19
F2.5573087
ssbsg15
g0
(g16
g2
Ntp2225
Rp2226
(dp2227
g15
I1
sbsba(ics475_types
Instance
p2228
(dp2229
g10
(ics475_types
FeatureVector
p2230
(dp2231
g13
(dp2232
I1
F33.0
sI2
F142.0
sI3
F9.0
sI6
F1.888889
sI7
F1.3770607
sI8
F0.88888884
sI9
F1.4089661
sI10
F3.851852
sI11
F1.6666666
sI12
F7.2222223
sI13
F2.6666667
sI14
F-6.5555553
sI15
F10.111111
sI16
F-3.5555556
sI17
F7.2222223
sI18
F0.8135803
sI19
F-2.2806025
ssbsg15
g0
(g16
g2
Ntp2233
Rp2234
(dp2235
g15
I0
sbsba(ics475_types
Instance
p2236
(dp2237
g10
(ics475_types
FeatureVector
p2238
(dp2239
g13
(dp2240
I1
F86.0
sI2
F187.0
sI3
F9.0
sI6
F1.1111108
sI7
F0.7200825
sI8
F1.4444445
sI9
F0.750309
sI10
F13.740741
sI11
F11.666667
sI12
F10.333334
sI13
F19.222221
sI14
F-6.2222223
sI15
F-10.222222
sI16
F16.444445
sI17
F19.222221
sI18
F0.46332908
sI19
F1.9414649
ssbsg15
g0
(g16
g2
Ntp2241
Rp2242
(dp2243
g15
I1
sbsba(ics475_types
Instance
p2244
(dp2245
g10
(ics475_types
FeatureVector
p2246
(dp2247
g13
(dp2248
I1
F245.0
sI2
F176.0
sI3
F9.0
sI6
F1.0000006
sI7
F0.516398
sI8
F1.0
sI9
F0.5577736
sI10
F18.481482
sI11
F15.111111
sI12
F17.0
sI13
F23.333334
sI14
F-10.111111
sI15
F-4.4444447
sI16
F14.555555
sI17
F23.333334
sI18
F0.35206997
sI19
F2.332243
ssbsg15
g0
(g16
g2
Ntp2249
Rp2250
(dp2251
g15
I1
sbsba(ics475_types
Instance
p2252
(dp2253
g10
(ics475_types
FeatureVector
p2254
(dp2255
g13
(dp2256
I1
F88.0
sI2
F136.0
sI3
F9.0
sI6
F1.8333331
sI7
F1.149879
sI8
F2.0555553
sI9
F2.112573
sI10
F8.0
sI11
F4.111111
sI12
F13.222222
sI13
F6.6666665
sI14
F-11.666667
sI15
F15.666667
sI16
F-4.0
sI17
F13.222222
sI18
F0.6950877
sI19
F-2.412671
ssbsg15
g0
(g16
g2
Ntp2257
Rp2258
(dp2259
g15
I0
sbsba(ics475_types
Instance
p2260
(dp2261
g10
(ics475_types
FeatureVector
p2262
(dp2263
g13
(dp2264
I1
F114.0
sI2
F181.0
sI3
F9.0
sI6
F1.1111107
sI7
F0.38518563
sI8
F0.88888866
sI9
F1.0962963
sI10
F19.925926
sI11
F15.888889
sI12
F18.777779
sI13
F25.11111
sI14
F-12.111111
sI15
F-3.4444444
sI16
F15.555555
sI17
F25.11111
sI18
F0.36658052
sI19
F2.420823
ssbsg15
g0
(g16
g2
Ntp2265
Rp2266
(dp2267
g15
I1
sbsba(ics475_types
Instance
p2268
(dp2269
g10
(ics475_types
FeatureVector
p2270
(dp2271
g13
(dp2272
I1
F116.0
sI2
F211.0
sI3
F9.0
sI6
F1.722222
sI7
F1.1296293
sI8
F1.6111113
sI9
F1.7074069
sI10
F13.740741
sI11
F11.111111
sI12
F12.333333
sI13
F17.777779
sI14
F-7.888889
sI15
F-4.2222223
sI16
F12.111111
sI17
F17.777779
sI18
F0.37534603
sI19
F2.2920406
ssbsg15
g0
(g16
g2
Ntp2273
Rp2274
(dp2275
g15
I1
sbsba(ics475_types
Instance
p2276
(dp2277
g10
(ics475_types
FeatureVector
p2278
(dp2279
g13
(dp2280
I1
F4.0
sI2
F248.0
sI3
F9.0
sI6
F3.333334
sI7
F1.8135293
sI8
F3.2222226
sI9
F1.2590408
sI10
F19.555555
sI11
F15.555555
sI12
F16.666668
sI13
F26.444445
sI14
F-12.0
sI15
F-8.666667
sI16
F20.666666
sI17
F26.444445
sI18
F0.42215064
sI19
F2.205099
ssbsg15
g0
(g16
g2
Ntp2281
Rp2282
(dp2283
g15
I1
sbsba(ics475_types
Instance
p2284
(dp2285
g10
(ics475_types
FeatureVector
p2286
(dp2287
g13
(dp2288
I1
F162.0
sI2
F227.0
sI3
F9.0
sI6
F1.3888888
sI7
F0.99629617
sI8
F3.1666667
sI9
F8.611113
sI10
F13.962963
sI11
F10.111111
sI12
F14.444445
sI13
F17.333334
sI14
F-11.555555
sI15
F1.4444444
sI16
F10.111111
sI17
F17.444445
sI18
F0.42550126
sI19
F2.7070513
ssbsg15
g0
(g16
g2
Ntp2289
Rp2290
(dp2291
g15
I1
sbsba(ics475_types
Instance
p2292
(dp2293
g10
(ics475_types
FeatureVector
p2294
(dp2295
g13
(dp2296
I1
F10.0
sI2
F223.0
sI3
F9.0
sI4
F0.11111111
sI6
F1.5000001
sI7
F1.0697871
sI8
F3.555556
sI9
F2.9489486
sI10
F15.037037
sI11
F13.777778
sI12
F12.888889
sI13
F18.444445
sI14
F-3.7777777
sI15
F-6.4444447
sI16
F10.222222
sI17
F18.444445
sI18
F0.33066535
sI19
F1.9109454
ssbsg15
g0
(g16
g2
Ntp2297
Rp2298
(dp2299
g15
I1
sbsba(ics475_types
Instance
p2300
(dp2301
g10
(ics475_types
FeatureVector
p2302
(dp2303
g13
(dp2304
I1
F21.0
sI2
F64.0
sI3
F9.0
sI6
F16.277779
sI7
F12.948471
sI8
F20.222223
sI9
F17.629103
sI10
F31.0
sI11
F24.666666
sI12
F38.0
sI13
F30.333334
sI14
F-19.0
sI15
F21.0
sI16
F-2.0
sI17
F38.0
sI18
F0.40074632
sI19
F-2.593825
ssbsg15
g0
(g16
g2
Ntp2305
Rp2306
(dp2307
g15
I0
sbsba(ics475_types
Instance
p2308
(dp2309
g10
(ics475_types
FeatureVector
p2310
(dp2311
g13
(dp2312
I1
F245.0
sI2
F73.0
sI3
F9.0
sI6
F8.222222
sI7
F6.2739906
sI8
F10.722222
sI9
F7.6809044
sI10
F46.666668
sI11
F32.11111
sI12
F70.111115
sI13
F37.77778
sI14
F-43.666668
sI15
F70.333336
sI16
F-26.666666
sI17
F70.111115
sI18
F0.5490324
sI19
F-2.2512536
ssbsg15
g0
(g16
g2
Ntp2313
Rp2314
(dp2315
g15
I0
sbsba(ics475_types
Instance
p2316
(dp2317
g10
(ics475_types
FeatureVector
p2318
(dp2319
g13
(dp2320
I1
F25.0
sI2
F138.0
sI3
F9.0
sI4
F0.11111111
sI6
F1.2777777
sI7
F1.1434193
sI8
F0.72222215
sI9
F0.49065349
sI10
F5.185185
sI11
F2.0
sI12
F9.333334
sI13
F4.2222223
sI14
F-9.555555
sI15
F12.444445
sI16
F-2.8888888
sI17
F9.333334
sI18
F0.7900112
sI19
F-2.4068089
ssbsg15
g0
(g16
g2
Ntp2321
Rp2322
(dp2323
g15
I0
sbsba(ics475_types
Instance
p2324
(dp2325
g10
(ics475_types
FeatureVector
p2326
(dp2327
g13
(dp2328
I1
F9.0
sI2
F76.0
sI3
F9.0
sI6
F1.2777778
sI7
F1.4207457
sI8
F1.6666666
sI9
F1.8618987
sI10
F2.4444444
sI11
F0.8888889
sI12
F4.666667
sI13
F1.7777778
sI14
F-4.6666665
sI15
F6.6666665
sI16
F-2.0
sI17
F4.666667
sI18
F0.87222224
sI19
F-2.3408008
ssbsg15
g0
(g16
g2
Ntp2329
Rp2330
(dp2331
g15
I0
sbsba(ics475_types
Instance
p2332
(dp2333
g10
(ics475_types
FeatureVector
p2334
(dp2335
g13
(dp2336
I1
F232.0
sI2
F175.0
sI3
F9.0
sI6
F1.1666669
sI7
F0.62360954
sI8
F2.8333333
sI9
F2.1679492
sI10
F15.37037
sI11
F12.444445
sI12
F13.555555
sI13
F20.11111
sI14
F-8.777778
sI15
F-5.4444447
sI16
F14.222222
sI17
F20.11111
sI18
F0.38741234
sI19
F2.2421958
ssbsg15
g0
(g16
g2
Ntp2337
Rp2338
(dp2339
g15
I1
sbsba(ics475_types
Instance
p2340
(dp2341
g10
(ics475_types
FeatureVector
p2342
(dp2343
g13
(dp2344
I1
F110.0
sI2
F92.0
sI3
F9.0
sI4
F0.11111111
sI6
F1.8888887
sI7
F4.0296297
sI8
F2.277778
sI9
F3.529629
sI10
F7.4444447
sI11
F3.2222223
sI12
F12.666667
sI13
F6.4444447
sI14
F-12.666667
sI15
F15.666667
sI16
F-3.0
sI17
F12.666667
sI18
F0.7590125
sI19
F-2.452176
ssbsg15
g0
(g16
g2
Ntp2345
Rp2346
(dp2347
g15
I0
sbsba(ics475_types
Instance
p2348
(dp2349
g10
(ics475_types
FeatureVector
p2350
(dp2351
g13
(dp2352
I1
F28.0
sI2
F114.0
sI3
F9.0
sI6
F0.8333333
sI7
F0.43333334
sI8
F1.1666666
sI9
F0.25555548
sI10
F1.8518518
sI11
F0.11111111
sI12
F4.666667
sI13
F0.7777778
sI14
F-5.2222223
sI15
F8.444445
sI16
F-3.2222223
sI17
F4.666667
sI18
F0.984127
sI19
F-2.222661
ssbsg15
g0
(g16
g2
Ntp2353
Rp2354
(dp2355
g15
I0
sbsba(ics475_types
Instance
p2356
(dp2357
g10
(ics475_types
FeatureVector
p2358
(dp2359
g13
(dp2360
I1
F118.0
sI2
F85.0
sI3
F9.0
sI6
F3.2777777
sI7
F4.418521
sI8
F2.277778
sI9
F6.8185186
sI10
F8.185185
sI11
F3.5555556
sI12
F14.888889
sI13
F6.111111
sI14
F-13.888889
sI15
F20.11111
sI16
F-6.2222223
sI17
F14.888889
sI18
F0.7741213
sI19
F-2.3290927
ssbsg15
g0
(g16
g2
Ntp2361
Rp2362
(dp2363
g15
I0
sbsba(ics475_types
Instance
p2364
(dp2365
g10
(ics475_types
FeatureVector
p2366
(dp2367
g13
(dp2368
I1
F237.0
sI2
F106.0
sI3
F9.0
sI6
F0.9444444
sI7
F0.15185204
sI8
F0.8333333
sI9
F0.47777775
sI10
F2.4074075
sI11
F0.44444445
sI12
F6.111111
sI13
F0.6666667
sI14
F-5.888889
sI15
F11.111111
sI16
F-5.2222223
sI17
F6.111111
sI18
F0.9404762
sI19
F-2.133095
ssbsg15
g0
(g16
g2
Ntp2369
Rp2370
(dp2371
g15
I0
sbsba(ics475_types
Instance
p2372
(dp2373
g10
(ics475_types
FeatureVector
p2374
(dp2375
g13
(dp2376
I1
F27.0
sI2
F134.0
sI3
F9.0
sI6
F1.111111
sI7
F0.9813067
sI8
F1.6111113
sI9
F1.0628402
sI10
F8.703704
sI11
F3.6666667
sI12
F15.888889
sI13
F6.5555553
sI14
F-15.111111
sI15
F21.555555
sI16
F-6.4444447
sI17
F15.888889
sI18
F0.772831
sI19
F-2.3430035
ssbsg15
g0
(g16
g2
Ntp2377
Rp2378
(dp2379
g15
I0
sbsba(ics475_types
Instance
p2380
(dp2381
g10
(ics475_types
FeatureVector
p2382
(dp2383
g13
(dp2384
I1
F54.0
sI2
F140.0
sI3
F9.0
sI4
F0.11111111
sI6
F0.72222215
sI7
F0.4430532
sI8
F1.7777777
sI9
F1.0470418
sI10
F8.333333
sI11
F3.7777777
sI12
F14.0
sI13
F7.2222223
sI14
F-13.666667
sI15
F17.0
sI16
F-3.3333333
sI17
F14.0
sI18
F0.73447025
sI19
F-2.4423232
ssbsg15
g0
(g16
g2
Ntp2385
Rp2386
(dp2387
g15
I0
sbsba(ics475_types
Instance
p2388
(dp2389
g10
(ics475_types
FeatureVector
p2390
(dp2391
g13
(dp2392
I1
F131.0
sI2
F234.0
sI3
F9.0
sI6
F0.8333333
sI7
F0.29999986
sI8
F0.88888884
sI9
F0.60740733
sI10
F5.740741
sI11
F4.0
sI12
F4.4444447
sI13
F8.777778
sI14
F-5.2222223
sI15
F-3.8888888
sI16
F9.111111
sI17
F8.777778
sI18
F0.55661374
sI19
F2.1935678
ssbsg15
g0
(g16
g2
Ntp2393
Rp2394
(dp2395
g15
I1
sbsba(ics475_types
Instance
p2396
(dp2397
g10
(ics475_types
FeatureVector
p2398
(dp2399
g13
(dp2400
I1
F10.0
sI2
F94.0
sI3
F9.0
sI6
F0.4444445
sI7
F0.11851851
sI8
F0.72222227
sI9
F0.1962963
sI10
F2.2592592
sI11
F0.11111111
sI12
F6.0
sI13
F0.6666667
sI14
F-6.4444447
sI15
F11.222222
sI16
F-4.7777777
sI17
F6.0
sI18
F0.9861111
sI19
F-2.189708
ssbsg15
g0
(g16
g2
Ntp2401
Rp2402
(dp2403
g15
I0
sbsba(ics475_types
Instance
p2404
(dp2405
g10
(ics475_types
FeatureVector
p2406
(dp2407
g13
(dp2408
I1
F1.0
sI2
F81.0
sI3
F9.0
sI6
F12.166667
sI7
F267.45554
sI8
F9.222222
sI9
F205.36296
sI10
F21.333334
sI11
F14.0
sI12
F30.555555
sI13
F19.444445
sI14
F-22.0
sI15
F27.666666
sI16
F-5.6666665
sI17
F30.555555
sI18
F0.5952822
sI19
F-2.438409
ssbsg15
g0
(g16
g2
Ntp2409
Rp2410
(dp2411
g15
I0
sbsba(ics475_types
Instance
p2412
(dp2413
g10
(ics475_types
FeatureVector
p2414
(dp2415
g13
(dp2416
I1
F123.0
sI2
F143.0
sI3
F9.0
sI6
F0.2777778
sI7
F0.3896817
sI8
F0.2777778
sI9
F0.13608274
sI10
F0.4074074
sI12
F1.2222222
sI14
F-1.2222222
sI15
F2.4444444
sI16
F-1.2222222
sI17
F1.2222222
sI18
F0.7777778
sI19
F-2.0943952
ssbsg15
g0
(g16
g2
Ntp2417
Rp2418
(dp2419
g15
I0
sbsba(ics475_types
Instance
p2420
(dp2421
g10
(ics475_types
FeatureVector
p2422
(dp2423
g13
(dp2424
I1
F197.0
sI2
F156.0
sI3
F9.0
sI6
F0.9444439
sI7
F0.49065349
sI8
F2.0555558
sI9
F1.705112
sI10
F16.925926
sI11
F13.444445
sI12
F15.555555
sI13
F21.777779
sI14
F-10.444445
sI15
F-4.111111
sI16
F14.555555
sI17
F21.777779
sI18
F0.38463837
sI19
F2.3635807
ssbsg15
g0
(g16
g2
Ntp2425
Rp2426
(dp2427
g15
I1
sbsba(ics475_types
Instance
p2428
(dp2429
g10
(ics475_types
FeatureVector
p2430
(dp2431
g13
(dp2432
I1
F18.0
sI2
F123.0
sI3
F9.0
sI6
F0.72222227
sI7
F0.86296284
sI8
F0.6111111
sI9
F0.41851848
sI10
F1.074074
sI11
F0.11111111
sI12
F2.6666667
sI13
F0.44444445
sI14
F-2.8888888
sI15
F4.7777777
sI16
F-1.8888888
sI17
F2.6666667
sI18
F0.9814815
sI19
F-2.1692097
ssbsg15
g0
(g16
g2
Ntp2433
Rp2434
(dp2435
g15
I0
sbsba(ics475_types
Instance
p2436
(dp2437
g10
(ics475_types
FeatureVector
p2438
(dp2439
g13
(dp2440
I1
F119.0
sI2
F169.0
sI3
F9.0
sI6
F1.166667
sI7
F0.98319227
sI8
F0.9999997
sI9
F0.91893625
sI10
F25.962963
sI11
F20.88889
sI12
F25.0
sI13
F32.0
sI14
F-15.222222
sI15
F-2.8888888
sI16
F18.11111
sI17
F32.0
sI18
F0.34778315
sI19
F2.4790645
ssbsg15
g0
(g16
g2
Ntp2441
Rp2442
(dp2443
g15
I1
sbsba(ics475_types
Instance
p2444
(dp2445
g10
(ics475_types
FeatureVector
p2446
(dp2447
g13
(dp2448
I1
F205.0
sI2
F204.0
sI3
F9.0
sI6
F1.555555
sI7
F0.9583939
sI8
F1.8888887
sI9
F1.7722135
sI10
F19.0
sI11
F14.333333
sI12
F17.11111
sI13
F25.555555
sI14
F-14.0
sI15
F-5.6666665
sI16
F19.666666
sI17
F25.555555
sI18
F0.43934208
sI19
F2.3487284
ssbsg15
g0
(g16
g2
Ntp2449
Rp2450
(dp2451
g15
I1
sbsba(ics475_types
Instance
p2452
(dp2453
g10
(ics475_types
FeatureVector
p2454
(dp2455
g13
(dp2456
I1
F85.0
sI2
F225.0
sI3
F9.0
sI6
F1.5
sI7
F1.0055401
sI8
F1.6111113
sI9
F1.2895594
sI10
F16.185184
sI11
F14.444445
sI12
F12.777778
sI13
F21.333334
sI14
F-5.2222223
sI15
F-10.222222
sI16
F15.444445
sI17
F21.333334
sI18
F0.40115124
sI19
F1.8910155
ssbsg15
g0
(g16
g2
Ntp2457
Rp2458
(dp2459
g15
I1
sbsba(ics475_types
Instance
p2460
(dp2461
g10
(ics475_types
FeatureVector
p2462
(dp2463
g13
(dp2464
I1
F152.0
sI2
F199.0
sI3
F9.0
sI6
F1.111111
sI7
F0.5185188
sI8
F0.8333337
sI9
F0.2555551
sI10
F17.962963
sI11
F15.222222
sI12
F15.444445
sI13
F23.222221
sI14
F-8.222222
sI15
F-7.5555553
sI16
F15.777778
sI17
F23.222221
sI18
F0.34806257
sI19
F2.129513
ssbsg15
g0
(g16
g2
Ntp2465
Rp2466
(dp2467
g15
I1
sbsba(ics475_types
Instance
p2468
(dp2469
g10
(ics475_types
FeatureVector
p2470
(dp2471
g13
(dp2472
I1
F45.0
sI2
F89.0
sI3
F9.0
sI6
F0.7777777
sI7
F0.3407409
sI8
F0.77777773
sI9
F0.47407398
sI10
F2.2962964
sI11
F0.11111111
sI12
F6.4444447
sI13
F0.33333334
sI14
F-6.5555553
sI15
F12.444445
sI16
F-5.888889
sI17
F6.4444447
sI18
F0.9861111
sI19
F-2.1239047
ssbsg15
g0
(g16
g2
Ntp2473
Rp2474
(dp2475
g15
I0
sbsba(ics475_types
Instance
p2476
(dp2477
g10
(ics475_types
FeatureVector
p2478
(dp2479
g13
(dp2480
I1
F220.0
sI2
F220.0
sI3
F9.0
sI4
F0.11111111
sI6
F2.277778
sI7
F1.12963
sI8
F2.2777777
sI9
F4.151854
sI10
F6.4444447
sI11
F5.6666665
sI12
F5.3333335
sI13
F8.333334
sI14
F-2.3333333
sI15
F-3.3333333
sI16
F5.6666665
sI17
F8.333334
sI18
F0.42735383
sI19
F1.9843658
ssbsg15
g0
(g16
g2
Ntp2481
Rp2482
(dp2483
g15
I1
sbsba(ics475_types
Instance
p2484
(dp2485
g10
(ics475_types
FeatureVector
p2486
(dp2487
g13
(dp2488
I1
F200.0
sI2
F245.0
sI3
F9.0
sI4
F0.11111111
sI6
F1.4999999
sI7
F0.9222229
sI8
F1.0555552
sI9
F0.5074078
sI10
F16.11111
sI11
F11.888889
sI12
F15.0
sI13
F21.444445
sI14
F-12.666667
sI15
F-3.3333333
sI16
F16.0
sI17
F21.444445
sI18
F0.44538036
sI19
F2.432783
ssbsg15
g0
(g16
g2
Ntp2489
Rp2490
(dp2491
g15
I1
sbsba(ics475_types
Instance
p2492
(dp2493
g10
(ics475_types
FeatureVector
p2494
(dp2495
g13
(dp2496
I1
F51.0
sI2
F237.0
sI3
F9.0
sI4
F0.11111111
sI6
F2.5555556
sI7
F2.5356712
sI8
F2.3333333
sI9
F1.2292727
sI10
F14.148149
sI11
F11.111111
sI12
F13.0
sI13
F18.333334
sI14
F-9.111111
sI15
F-3.4444444
sI16
F12.555555
sI17
F18.333334
sI18
F0.39798474
sI19
F2.3784301
ssbsg15
g0
(g16
g2
Ntp2497
Rp2498
(dp2499
g15
I1
sbsba(ics475_types
Instance
p2500
(dp2501
g10
(ics475_types
FeatureVector
p2502
(dp2503
g13
(dp2504
I1
F39.0
sI2
F124.0
sI3
F9.0
sI5
F0.11111111
sI6
F5.3333335
sI7
F4.774935
sI8
F6.5000005
sI9
F4.544838
sI10
F7.5925927
sI11
F4.111111
sI12
F12.888889
sI13
F5.7777777
sI14
F-10.444445
sI15
F15.888889
sI16
F-5.4444447
sI17
F12.888889
sI18
F0.7721516
sI19
F-2.2657473
ssbsg15
g0
(g16
g2
Ntp2505
Rp2506
(dp2507
g15
I0
sbsba(ics475_types
Instance
p2508
(dp2509
g10
(ics475_types
FeatureVector
p2510
(dp2511
g13
(dp2512
I1
F129.0
sI2
F91.0
sI3
F9.0
sI5
F0.11111111
sI6
F27.277779
sI7
F752.24066
sI8
F25.277779
sI9
F377.9295
sI10
F44.296295
sI11
F38.444443
sI12
F52.666668
sI13
F41.77778
sI14
F-17.555555
sI15
F25.11111
sI16
F-7.5555553
sI17
F52.666668
sI18
F0.34888473
sI19
F-2.3202722
ssbsg15
g0
(g16
g2
Ntp2513
Rp2514
(dp2515
g15
I0
sbsba(ics475_types
Instance
p2516
(dp2517
g10
(ics475_types
FeatureVector
p2518
(dp2519
g13
(dp2520
I1
F34.0
sI2
F164.0
sI3
F9.0
sI6
F0.888889
sI7
F0.40368673
sI8
F1.2777778
sI9
F0.49065349
sI10
F11.333333
sI11
F9.222222
sI12
F10.333334
sI13
F14.444445
sI14
F-6.3333335
sI15
F-3.0
sI16
F9.333333
sI17
F14.444445
sI18
F0.367923
sI19
F2.291118
ssbsg15
g0
(g16
g2
Ntp2521
Rp2522
(dp2523
g15
I1
sbsba(ics475_types
Instance
p2524
(dp2525
g10
(ics475_types
FeatureVector
p2526
(dp2527
g13
(dp2528
I1
F196.0
sI2
F93.0
sI3
F9.0
sI6
F1.7777777
sI7
F2.562963
sI8
F1.5
sI9
F0.92222214
sI10
F5.0
sI11
F2.0
sI12
F9.333334
sI13
F3.6666667
sI14
F-9.0
sI15
F13.0
sI16
F-4.0
sI17
F9.333334
sI18
F0.8086198
sI19
F-2.3294232
ssbsg15
g0
(g16
g2
Ntp2529
Rp2530
(dp2531
g15
I0
sbsba(ics475_types
Instance
p2532
(dp2533
g10
(ics475_types
FeatureVector
p2534
(dp2535
g13
(dp2536
I1
F226.0
sI2
F69.0
sI3
F9.0
sI5
F0.11111111
sI6
F19.111113
sI7
F991.7184
sI8
F20.444445
sI9
F1039.5408
sI10
F23.814816
sI11
F19.222221
sI12
F29.333334
sI13
F22.88889
sI14
F-13.777778
sI15
F16.555555
sI16
F-2.7777777
sI17
F29.333334
sI18
F0.5089938
sI19
F-2.488979
ssbsg15
g0
(g16
g2
Ntp2537
Rp2538
(dp2539
g15
I0
sbsba(ics475_types
Instance
p2540
(dp2541
g10
(ics475_types
FeatureVector
p2542
(dp2543
g13
(dp2544
I1
F214.0
sI2
F236.0
sI3
F9.0
sI6
F0.5
sI7
F0.25555578
sI8
F3.7777774
sI9
F1.3629639
sI10
F16.592592
sI11
F12.888889
sI12
F14.666667
sI13
F22.222221
sI14
F-11.111111
sI15
F-5.7777777
sI16
F16.88889
sI17
F22.222221
sI18
F0.41959706
sI19
F2.3066785
ssbsg15
g0
(g16
g2
Ntp2545
Rp2546
(dp2547
g15
I1
sbsba(ics475_types
Instance
p2548
(dp2549
g10
(ics475_types
FeatureVector
p2550
(dp2551
g13
(dp2552
I1
F222.0
sI2
F244.0
sI3
F9.0
sI4
F0.11111111
sI6
F2.9444444
sI7
F0.640741
sI8
F2.2777777
sI9
F2.151852
sI10
F10.37037
sI11
F9.666667
sI12
F9.777778
sI13
F11.666667
sI14
F-2.1111112
sI15
F-1.7777778
sI16
F3.8888888
sI17
F11.888889
sI18
F0.22648169
sI19
F2.32339
ssbsg15
g0
(g16
g2
Ntp2553
Rp2554
(dp2555
g15
I1
sbsba(ics475_types
Instance
p2556
(dp2557
g10
(ics475_types
FeatureVector
p2558
(dp2559
g13
(dp2560
I1
F161.0
sI2
F176.0
sI3
F9.0
sI6
F0.38888898
sI7
F0.15185188
sI8
F1.1666666
sI9
F0.3888888
sI10
F13.0
sI11
F10.111111
sI12
F11.777778
sI13
F17.11111
sI14
F-8.666667
sI15
F-3.6666667
sI16
F12.333333
sI17
F17.11111
sI18
F0.40773422
sI19
F2.3406181
ssbsg15
g0
(g16
g2
Ntp2561
Rp2562
(dp2563
g15
I1
sbsba(ics475_types
Instance
p2564
(dp2565
g10
(ics475_types
FeatureVector
p2566
(dp2567
g13
(dp2568
I1
F238.0
sI2
F180.0
sI3
F9.0
sI4
F0.11111111
sI6
F0.55555564
sI7
F0.34074086
sI8
F1.7222222
sI9
F1.6629628
sI10
F13.592592
sI11
F11.111111
sI12
F11.888889
sI13
F17.777779
sI14
F-7.4444447
sI15
F-5.111111
sI16
F12.555555
sI17
F17.777779
sI18
F0.3762527
sI19
F2.2128983
ssbsg15
g0
(g16
g2
Ntp2569
Rp2570
(dp2571
g15
I1
sbsba(ics475_types
Instance
p2572
(dp2573
g10
(ics475_types
FeatureVector
p2574
(dp2575
g13
(dp2576
I1
F206.0
sI2
F80.0
sI3
F9.0
sI6
F4.888889
sI7
F14.829629
sI8
F3.8333333
sI9
F36.12222
sI10
F10.037037
sI11
F6.5555553
sI12
F15.111111
sI13
F8.444445
sI14
F-10.444445
sI15
F15.222222
sI16
F-4.7777777
sI17
F15.111111
sI18
F0.59776545
sI19
F-2.3262568
ssbsg15
g0
(g16
g2
Ntp2577
Rp2578
(dp2579
g15
I0
sbsba(ics475_types
Instance
p2580
(dp2581
g10
(ics475_types
FeatureVector
p2582
(dp2583
g13
(dp2584
I1
F3.0
sI2
F106.0
sI3
F9.0
sI6
F0.22222222
sI7
F0.17213261
sI8
F0.11111111
sI9
F0.17213261
sI10
F0.5555556
sI12
F1.6666666
sI14
F-1.6666666
sI15
F3.3333333
sI16
F-1.6666666
sI17
F1.6666666
sI18
F1.0
sI19
F-2.0943952
ssbsg15
g0
(g16
g2
Ntp2585
Rp2586
(dp2587
g15
I0
sbsba(ics475_types
Instance
p2588
(dp2589
g10
(ics475_types
FeatureVector
p2590
(dp2591
g13
(dp2592
I1
F197.0
sI2
F105.0
sI3
F9.0
sI6
F3.7222223
sI7
F15.662961
sI8
F3.6666663
sI9
F14.400001
sI10
F4.148148
sI11
F1.6666666
sI12
F8.333334
sI13
F2.4444444
sI14
F-7.4444447
sI15
F12.555555
sI16
F-5.111111
sI17
F8.333334
sI18
F0.88604844
sI19
F-2.2054374
ssbsg15
g0
(g16
g2
Ntp2593
Rp2594
(dp2595
g15
I0
sbsba(ics475_types
Instance
p2596
(dp2597
g10
(ics475_types
FeatureVector
p2598
(dp2599
g13
(dp2600
I1
F73.0
sI2
F164.0
sI3
F9.0
sI6
F0.94444436
sI7
F0.5741329
sI8
F1.888889
sI9
F1.0470407
sI10
F23.148148
sI11
F21.777779
sI12
F19.11111
sI13
F28.555555
sI14
F-4.111111
sI15
F-12.111111
sI16
F16.222221
sI17
F28.555555
sI18
F0.330345
sI19
F1.7983025
ssbsg15
g0
(g16
g2
Ntp2601
Rp2602
(dp2603
g15
I1
sbsba(ics475_types
Instance
p2604
(dp2605
g10
(ics475_types
FeatureVector
p2606
(dp2607
g13
(dp2608
I1
F115.0
sI2
F202.0
sI3
F9.0
sI4
F0.11111111
sI6
F1.611111
sI7
F0.24074046
sI8
F2.388889
sI9
F2.596295
sI10
F15.148149
sI11
F11.666667
sI12
F14.0
sI13
F19.777779
sI14
F-10.444445
sI15
F-3.4444444
sI16
F13.888889
sI17
F19.777779
sI18
F0.40993193
sI19
F2.401137
ssbsg15
g0
(g16
g2
Ntp2609
Rp2610
(dp2611
g15
I1
sbsba(ics475_types
Instance
p2612
(dp2613
g10
(ics475_types
FeatureVector
p2614
(dp2615
g13
(dp2616
I1
F126.0
sI2
F80.0
sI3
F9.0
sI6
F21.055555
sI7
F530.5518
sI8
F34.61111
sI9
F409.39636
sI10
F68.77778
sI11
F60.333332
sI12
F79.55556
sI13
F66.44444
sI14
F-25.333334
sI15
F32.333332
sI16
F-7.0
sI17
F79.55556
sI18
F0.28962377
sI19
F-2.4341934
ssbsg15
g0
(g16
g2
Ntp2617
Rp2618
(dp2619
g15
I0
sbsba(ics475_types
Instance
p2620
(dp2621
g10
(ics475_types
FeatureVector
p2622
(dp2623
g13
(dp2624
I1
F57.0
sI2
F177.0
sI3
F9.0
sI6
F0.94444495
sI7
F0.55185163
sI8
F1.4444443
sI9
F1.71852
sI10
F19.592592
sI11
F15.777778
sI12
F18.444445
sI13
F24.555555
sI14
F-11.444445
sI15
F-3.4444444
sI16
F14.888889
sI17
F24.555555
sI18
F0.3589904
sI19
F2.413262
ssbsg15
g0
(g16
g2
Ntp2625
Rp2626
(dp2627
g15
I1
sbsba(ics475_types
Instance
p2628
(dp2629
g10
(ics475_types
FeatureVector
p2630
(dp2631
g13
(dp2632
I1
F21.0
sI2
F122.0
sI3
F9.0
sI6
F0.44444445
sI7
F0.4036867
sI8
F0.44444445
sI9
F0.4036867
sI10
F0.5555556
sI12
F1.2222222
sI13
F0.44444445
sI14
F-1.6666666
sI15
F2.0
sI16
F-0.33333334
sI17
F1.2222222
sI18
F0.5555556
sI19
F-2.4445627
ssbsg15
g0
(g16
g2
Ntp2633
Rp2634
(dp2635
g15
I0
sbsba(ics475_types
Instance
p2636
(dp2637
g10
(ics475_types
FeatureVector
p2638
(dp2639
g13
(dp2640
I1
F9.0
sI2
F80.0
sI3
F9.0
sI6
F2.9444444
sI7
F13.751853
sI8
F16.666666
sI9
F71.5111
sI10
F23.62963
sI11
F17.333334
sI12
F31.666666
sI13
F21.88889
sI14
F-18.88889
sI15
F24.11111
sI16
F-5.2222223
sI17
F31.666666
sI18
F0.5142537
sI19
F-2.4315135
ssbsg15
g0
(g16
g2
Ntp2641
Rp2642
(dp2643
g15
I0
sbsba(ics475_types
Instance
p2644
(dp2645
g10
(ics475_types
FeatureVector
p2646
(dp2647
g13
(dp2648
I1
F96.0
sI2
F119.0
sI3
F9.0
sI6
F0.3333333
sI7
F0.08888888
sI8
F0.5555555
sI9
F0.20740744
sI10
F1.4444444
sI12
F4.2222223
sI13
F0.11111111
sI14
F-4.3333335
sI15
F8.333333
sI16
F-4.0
sI17
F4.2222223
sI18
F1.0
sI19
F-2.1137195
ssbsg15
g0
(g16
g2
Ntp2649
Rp2650
(dp2651
g15
I0
sbsba(ics475_types
Instance
p2652
(dp2653
g10
(ics475_types
FeatureVector
p2654
(dp2655
g13
(dp2656
I1
F29.0
sI2
F184.0
sI3
F9.0
sI6
F1.6111107
sI7
F1.0628402
sI8
F2.6666667
sI9
F1.8973663
sI10
F13.62963
sI11
F11.444445
sI12
F11.333333
sI13
F18.11111
sI14
F-6.5555553
sI15
F-6.888889
sI16
F13.444445
sI17
F18.11111
sI18
F0.3876632
sI19
F2.080445
ssbsg15
g0
(g16
g2
Ntp2657
Rp2658
(dp2659
g15
I1
sbsba(ics475_types
Instance
p2660
(dp2661
g10
(ics475_types
FeatureVector
p2662
(dp2663
g13
(dp2664
I1
F17.0
sI2
F85.0
sI3
F9.0
sI4
F0.11111111
sI6
F0.8888889
sI7
F0.72008216
sI8
F1.111111
sI9
F0.7200825
sI10
F1.7777778
sI11
F0.44444445
sI12
F3.4444444
sI13
F1.4444444
sI14
F-4.0
sI15
F5.0
sI16
F-1.0
sI17
F3.4444444
sI18
F0.912963
sI19
F-2.3776238
ssbsg15
g0
(g16
g2
Ntp2665
Rp2666
(dp2667
g15
I0
sbsba(ics475_types
Instance
p2668
(dp2669
g10
(ics475_types
FeatureVector
p2670
(dp2671
g13
(dp2672
I1
F244.0
sI2
F193.0
sI3
F9.0
sI6
F2.0555556
sI7
F2.225275
sI8
F3.8888886
sI9
F3.631141
sI10
F16.185184
sI11
F13.333333
sI12
F14.222222
sI13
F21.0
sI14
F-8.555555
sI15
F-5.888889
sI16
F14.444445
sI17
F21.0
sI18
F0.37887058
sI19
F2.2221026
ssbsg15
g0
(g16
g2
Ntp2673
Rp2674
(dp2675
g15
I1
sbsba(ics475_types
Instance
p2676
(dp2677
g10
(ics475_types
FeatureVector
p2678
(dp2679
g13
(dp2680
I1
F75.0
sI2
F226.0
sI3
F9.0
sI6
F2.2222226
sI7
F0.6554613
sI8
F1.611111
sI9
F1.0201668
sI10
F16.703703
sI11
F15.333333
sI12
F13.0
sI13
F21.777779
sI14
F-4.111111
sI15
F-11.111111
sI16
F15.222222
sI17
F21.777779
sI18
F0.40474883
sI19
F1.8223403
ssbsg15
g0
(g16
g2
Ntp2681
Rp2682
(dp2683
g15
I1
sbsba(ics475_types
Instance
p2684
(dp2685
g10
(ics475_types
FeatureVector
p2686
(dp2687
g13
(dp2688
I1
F19.0
sI2
F145.0
sI3
F9.0
sI6
F0.88888884
sI7
F1.674074
sI8
F2.111111
sI9
F4.3851857
sI10
F2.074074
sI11
F0.6666667
sI12
F3.5555556
sI13
F2.0
sI14
F-4.2222223
sI15
F4.4444447
sI16
F-0.22222222
sI17
F3.5555556
sI18
F0.45767197
sI19
F-2.5697682
ssbsg15
g0
(g16
g2
Ntp2689
Rp2690
(dp2691
g15
I0
sbsba(ics475_types
Instance
p2692
(dp2693
g10
(ics475_types
FeatureVector
p2694
(dp2695
g13
(dp2696
I1
F47.0
sI2
F127.0
sI3
F9.0
sI6
F1.166667
sI7
F0.9603239
sI8
F1.0555559
sI9
F0.49065298
sI10
F17.592592
sI11
F9.0
sI12
F30.11111
sI13
F13.666667
sI14
F-25.777779
sI15
F37.555557
sI16
F-11.777778
sI17
F30.11111
sI18
F0.70147634
sI19
F-2.326275
ssbsg15
g0
(g16
g2
Ntp2697
Rp2698
(dp2699
g15
I0
sbsba(ics475_types
Instance
p2700
(dp2701
g10
(ics475_types
FeatureVector
p2702
(dp2703
g13
(dp2704
I1
F18.0
sI2
F142.0
sI3
F9.0
sI6
F0.77777773
sI7
F0.65185183
sI8
F0.2777778
sI9
F0.15185186
sI10
F0.5555556
sI11
F0.11111111
sI12
F1.3333334
sI13
F0.22222222
sI14
F-1.3333334
sI15
F2.3333333
sI16
F-1.0
sI17
F1.3333334
sI18
F0.41666666
sI19
F-2.1595633
ssbsg15
g0
(g16
g2
Ntp2705
Rp2706
(dp2707
g15
I0
sbsba(ics475_types
Instance
p2708
(dp2709
g10
(ics475_types
FeatureVector
p2710
(dp2711
g13
(dp2712
I1
F156.0
sI2
F181.0
sI3
F9.0
sI6
F0.49999985
sI7
F0.34960297
sI8
F1.4999999
sI9
F0.50552523
sI10
F11.666667
sI11
F9.0
sI12
F9.777778
sI13
F16.222223
sI14
F-8.0
sI15
F-5.6666665
sI16
F13.666667
sI17
F16.222223
sI18
F0.44597858
sI19
F2.2066422
ssbsg15
g0
(g16
g2
Ntp2713
Rp2714
(dp2715
g15
I1
sbsba(ics475_types
Instance
p2716
(dp2717
g10
(ics475_types
FeatureVector
p2718
(dp2719
g13
(dp2720
I1
F7.0
sI2
F134.0
sI3
F9.0
sI6
F0.055555563
sI7
F0.018518524
sI8
F0.055555556
sI9
F0.01851852
sI10
F0.037037037
sI12
F0.11111111
sI14
F-0.11111111
sI15
F0.22222222
sI16
F-0.11111111
sI17
F0.11111111
sI18
F0.11111111
sI19
F-2.0943952
ssbsg15
g0
(g16
g2
Ntp2721
Rp2722
(dp2723
g15
I0
sbsba(ics475_types
Instance
p2724
(dp2725
g10
(ics475_types
FeatureVector
p2726
(dp2727
g13
(dp2728
I1
F68.0
sI2
F127.0
sI3
F9.0
sI6
F1.0555553
sI7
F0.97562903
sI8
F1.2777777
sI9
F0.8277589
sI10
F16.37037
sI11
F10.888889
sI12
F26.444445
sI13
F11.777778
sI14
F-16.444445
sI15
F30.222221
sI16
F-13.777778
sI17
F26.444445
sI18
F0.6014436
sI19
F-2.0358076
ssbsg15
g0
(g16
g2
Ntp2729
Rp2730
(dp2731
g15
I0
sbsba(ics475_types
Instance
p2732
(dp2733
g10
(ics475_types
FeatureVector
p2734
(dp2735
g13
(dp2736
I1
F20.0
sI2
F137.0
sI3
F9.0
sI6
F0.11111113
sI7
F0.029629631
sI8
F0.27777782
sI9
F0.018518519
sI10
F0.22222222
sI12
F0.6666667
sI14
F-0.6666667
sI15
F1.3333334
sI16
F-0.6666667
sI17
F0.6666667
sI18
F0.6666667
sI19
F-2.0943952
ssbsg15
g0
(g16
g2
Ntp2737
Rp2738
(dp2739
g15
I0
sbsba(ics475_types
Instance
p2740
(dp2741
g10
(ics475_types
FeatureVector
p2742
(dp2743
g13
(dp2744
I1
F197.0
sI2
F236.0
sI3
F9.0
sI6
F2.4444444
sI7
F6.829628
sI8
F3.3333333
sI9
F7.599998
sI10
F16.074074
sI11
F13.111111
sI12
F16.666668
sI13
F18.444445
sI14
F-8.888889
sI15
F1.7777778
sI16
F7.111111
sI17
F18.555555
sI18
F0.29272884
sI19
F2.7898002
ssbsg15
g0
(g16
g2
Ntp2745
Rp2746
(dp2747
g15
I1
sbsba(ics475_types
Instance
p2748
(dp2749
g10
(ics475_types
FeatureVector
p2750
(dp2751
g13
(dp2752
I1
F163.0
sI2
F166.0
sI3
F9.0
sI6
F1.7777776
sI7
F1.0962971
sI8
F2.444445
sI9
F1.0518519
sI10
F16.962963
sI11
F12.333333
sI12
F16.333334
sI13
F22.222221
sI14
F-13.888889
sI15
F-1.8888888
sI16
F15.777778
sI17
F22.222221
sI18
F0.4462137
sI19
F2.5158255
ssbsg15
g0
(g16
g2
Ntp2753
Rp2754
(dp2755
g15
I1
sbsba(ics475_types
Instance
p2756
(dp2757
g10
(ics475_types
FeatureVector
p2758
(dp2759
g13
(dp2760
I1
F129.0
sI2
F176.0
sI3
F9.0
sI6
F1.4444443
sI7
F0.65546167
sI8
F2.722222
sI9
F1.5408025
sI10
F22.74074
sI11
F19.444445
sI12
F19.777779
sI13
F29.0
sI14
F-9.888889
sI15
F-8.888889
sI16
F18.777779
sI17
F29.0
sI18
F0.33502117
sI19
F2.1269014
ssbsg15
g0
(g16
g2
Ntp2761
Rp2762
(dp2763
g15
I1
sbsba(ics475_types
Instance
p2764
(dp2765
g10
(ics475_types
FeatureVector
p2766
(dp2767
g13
(dp2768
I1
F44.0
sI2
F233.0
sI3
F9.0
sI6
F2.2222219
sI7
F2.1464872
sI8
F2.111111
sI9
F1.3277657
sI10
F14.481482
sI11
F12.555555
sI12
F11.333333
sI13
F19.555555
sI14
F-5.7777777
sI15
F-9.444445
sI16
F15.222222
sI17
F19.555555
sI18
F0.42217422
sI19
F1.9504046
ssbsg15
g0
(g16
g2
Ntp2769
Rp2770
(dp2771
g15
I1
sbsba(ics475_types
Instance
p2772
(dp2773
g10
(ics475_types
FeatureVector
p2774
(dp2775
g13
(dp2776
I1
F112.0
sI2
F201.0
sI3
F9.0
sI6
F2.833333
sI7
F1.2952907
sI8
F3.111111
sI9
F1.7847089
sI10
F21.296297
sI11
F16.666668
sI12
F20.333334
sI13
F26.88889
sI14
F-13.888889
sI15
F-2.8888888
sI16
F16.777779
sI17
F26.88889
sI18
F0.3819119
sI19
F2.4679377
ssbsg15
g0
(g16
g2
Ntp2777
Rp2778
(dp2779
g15
I1
sbsba(ics475_types
Instance
p2780
(dp2781
g10
(ics475_types
FeatureVector
p2782
(dp2783
g13
(dp2784
I1
F58.0
sI2
F232.0
sI3
F9.0
sI6
F2.5000005
sI7
F1.4555542
sI8
F2.5555556
sI9
F0.829629
sI10
F14.703704
sI11
F11.222222
sI12
F13.555555
sI13
F19.333334
sI14
F-10.444445
sI15
F-3.4444444
sI16
F13.888889
sI17
F19.333334
sI18
F0.42348316
sI19
F2.402851
ssbsg15
g0
(g16
g2
Ntp2785
Rp2786
(dp2787
g15
I1
sbsba(ics475_types
Instance
p2788
(dp2789
g10
(ics475_types
FeatureVector
p2790
(dp2791
g13
(dp2792
I1
F204.0
sI2
F116.0
sI3
F9.0
sI6
F1.0555555
sI7
F1.262963
sI8
F1.0555556
sI9
F1.4407407
sI10
F2.1851852
sI11
F0.33333334
sI12
F5.111111
sI13
F1.1111112
sI14
F-5.5555553
sI15
F8.777778
sI16
F-3.2222223
sI17
F5.111111
sI18
F0.96141976
sI19
F-2.2490795
ssbsg15
g0
(g16
g2
Ntp2793
Rp2794
(dp2795
g15
I0
sbsba(ics475_types
Instance
p2796
(dp2797
g10
(ics475_types
FeatureVector
p2798
(dp2799
g13
(dp2800
I1
F6.0
sI2
F118.0
sI3
F9.0
sI6
F0.055555563
sI7
F0.13608278
sI8
F0.055555563
sI9
F0.13608278
sI10
F0.037037037
sI12
F0.11111111
sI14
F-0.11111111
sI15
F0.22222222
sI16
F-0.11111111
sI17
F0.11111111
sI18
F0.11111111
sI19
F-2.0943952
ssbsg15
g0
(g16
g2
Ntp2801
Rp2802
(dp2803
g15
I0
sbsba(ics475_types
Instance
p2804
(dp2805
g10
(ics475_types
FeatureVector
p2806
(dp2807
g13
(dp2808
I1
F99.0
sI2
F130.0
sI3
F9.0
sI6
F0.5555555
sI7
F0.45542014
sI8
F0.5555555
sI9
F0.5443311
sI10
F1.3703704
sI11
F0.11111111
sI12
F3.3333333
sI13
F0.6666667
sI14
F-3.7777777
sI15
F5.888889
sI16
F-2.1111112
sI17
F3.3333333
sI18
F0.9777778
sI19
F-2.2390292
ssbsg15
g0
(g16
g2
Ntp2809
Rp2810
(dp2811
g15
I0
sbsba(ics475_types
Instance
p2812
(dp2813
g10
(ics475_types
FeatureVector
p2814
(dp2815
g13
(dp2816
I1
F87.0
sI2
F135.0
sI3
F9.0
sI6
F0.38888887
sI7
F0.24074073
sI8
F0.33333334
sI9
F0.17777777
sI10
F0.962963
sI12
F2.7777777
sI13
F0.11111111
sI14
F-2.8888888
sI15
F5.4444447
sI16
F-2.5555556
sI17
F2.7777777
sI18
F1.0
sI19
F-2.1175485
ssbsg15
g0
(g16
g2
Ntp2817
Rp2818
(dp2819
g15
I0
sbsba(ics475_types
Instance
p2820
(dp2821
g10
(ics475_types
FeatureVector
p2822
(dp2823
g13
(dp2824
I1
F6.0
sI2
F217.0
sI3
F9.0
sI6
F2.111111
sI7
F5.0962963
sI8
F3.944444
sI9
F12.50741
sI10
F14.555555
sI11
F11.444445
sI12
F13.333333
sI13
F18.88889
sI14
F-9.333333
sI15
F-3.6666667
sI16
F13.0
sI17
F18.88889
sI18
F0.39533988
sI19
F2.3638706
ssbsg15
g0
(g16
g2
Ntp2825
Rp2826
(dp2827
g15
I1
sbsba(ics475_types
Instance
p2828
(dp2829
g10
(ics475_types
FeatureVector
p2830
(dp2831
g13
(dp2832
I1
F195.0
sI2
F99.0
sI3
F9.0
sI6
F3.0555553
sI7
F4.462964
sI8
F2.7777777
sI9
F4.651851
sI10
F6.740741
sI11
F3.4444444
sI12
F11.555555
sI13
F5.2222223
sI14
F-9.888889
sI15
F14.444445
sI16
F-4.5555553
sI17
F11.555555
sI18
F0.71189785
sI19
F-2.318885
ssbsg15
g0
(g16
g2
Ntp2833
Rp2834
(dp2835
g15
I0
sbsba(ics475_types
Instance
p2836
(dp2837
g10
(ics475_types
FeatureVector
p2838
(dp2839
g13
(dp2840
I1
F101.0
sI2
F121.0
sI3
F9.0
sI4
F0.11111111
sI6
F0.6666667
sI7
F0.843274
sI8
F1.5
sI9
F0.88819396
sI10
F3.4074075
sI11
F1.1111112
sI12
F6.0
sI13
F3.1111112
sI14
F-6.888889
sI15
F7.7777777
sI16
F-0.8888889
sI17
F6.0
sI18
F0.8435185
sI19
F-2.5191648
ssbsg15
g0
(g16
g2
Ntp2841
Rp2842
(dp2843
g15
I0
sbsba(ics475_types
Instance
p2844
(dp2845
g10
(ics475_types
FeatureVector
p2846
(dp2847
g13
(dp2848
I1
F115.0
sI2
F111.0
sI3
F9.0
sI6
F0.55555564
sI7
F0.40368685
sI8
F1.9444437
sI9
F1.0417223
sI10
F18.037037
sI11
F9.666667
sI12
F30.11111
sI13
F14.333333
sI14
F-25.11111
sI15
F36.22222
sI16
F-11.111111
sI17
F30.11111
sI18
F0.67951304
sI19
F-2.3333182
ssbsg15
g0
(g16
g2
Ntp2849
Rp2850
(dp2851
g15
I0
sbsba(ics475_types
Instance
p2852
(dp2853
g10
(ics475_types
FeatureVector
p2854
(dp2855
g13
(dp2856
I1
F111.0
sI2
F246.0
sI3
F9.0
sI6
F3.166667
sI7
F2.0949678
sI8
F5.833334
sI9
F4.113663
sI10
F25.88889
sI11
F21.11111
sI12
F22.444445
sI13
F34.11111
sI14
F-14.333333
sI15
F-10.333333
sI16
F24.666666
sI17
F34.11111
sI18
F0.38897294
sI19
F2.2140112
ssbsg15
g0
(g16
g2
Ntp2857
Rp2858
(dp2859
g15
I1
sbsba(ics475_types
Instance
p2860
(dp2861
g10
(ics475_types
FeatureVector
p2862
(dp2863
g13
(dp2864
I1
F228.0
sI2
F182.0
sI3
F9.0
sI4
F0.11111111
sI6
F0.88888854
sI7
F0.68853056
sI8
F0.7777775
sI9
F0.6554615
sI10
F16.777779
sI11
F14.555555
sI12
F12.777778
sI13
F23.0
sI14
F-6.6666665
sI15
F-12.0
sI16
F18.666666
sI17
F23.0
sI18
F0.44435817
sI19
F1.9164191
ssbsg15
g0
(g16
g2
Ntp2865
Rp2866
(dp2867
g15
I1
sbsba(ics475_types
Instance
p2868
(dp2869
g10
(ics475_types
FeatureVector
p2870
(dp2871
g13
(dp2872
I1
F196.0
sI2
F244.0
sI3
F9.0
sI6
F1.277778
sI7
F0.5518518
sI8
F3.6111114
sI9
F6.9518504
sI10
F7.740741
sI11
F6.6666665
sI12
F7.0
sI13
F9.555555
sI14
F-3.2222223
sI15
F-2.2222223
sI16
F5.4444447
sI17
F9.555555
sI18
F0.3833719
sI19
F2.340587
ssbsg15
g0
(g16
g2
Ntp2873
Rp2874
(dp2875
g15
I1
sbsba(ics475_types
Instance
p2876
(dp2877
g10
(ics475_types
FeatureVector
p2878
(dp2879
g13
(dp2880
I1
F103.0
sI2
F125.0
sI3
F9.0
sI6
F0.9444445
sI7
F0.82775915
sI8
F0.83333343
sI9
F0.6912146
sI10
F1.7777778
sI11
F0.44444445
sI12
F3.8888888
sI13
F1.0
sI14
F-4.0
sI15
F6.3333335
sI16
F-2.3333333
sI17
F3.8888888
sI18
F0.9238095
sI19
F-2.2375617
ssbsg15
g0
(g16
g2
Ntp2881
Rp2882
(dp2883
g15
I0
sbsba(ics475_types
Instance
p2884
(dp2885
g10
(ics475_types
FeatureVector
p2886
(dp2887
g13
(dp2888
I1
F45.0
sI2
F108.0
sI3
F9.0
sI5
F0.11111111
sI6
F25.5
sI7
F12.795401
sI8
F27.277779
sI9
F15.930981
sI10
F49.814816
sI11
F41.77778
sI12
F61.11111
sI13
F46.555557
sI14
F-24.11111
sI15
F33.88889
sI16
F-9.777778
sI17
F61.11111
sI18
F0.35897508
sI19
F-2.3604913
ssbsg15
g0
(g16
g2
Ntp2889
Rp2890
(dp2891
g15
I0
sbsba(ics475_types
Instance
p2892
(dp2893
g10
(ics475_types
FeatureVector
p2894
(dp2895
g13
(dp2896
I1
F101.0
sI2
F121.0
sI3
F9.0
sI4
F0.11111111
sI6
F0.6666667
sI7
F0.843274
sI8
F1.5
sI9
F0.88819396
sI10
F3.4074075
sI11
F1.1111112
sI12
F6.0
sI13
F3.1111112
sI14
F-6.888889
sI15
F7.7777777
sI16
F-0.8888889
sI17
F6.0
sI18
F0.8435185
sI19
F-2.5191648
ssbsg15
g0
(g16
g2
Ntp2897
Rp2898
(dp2899
g15
I0
sbsba(ics475_types
Instance
p2900
(dp2901
g10
(ics475_types
FeatureVector
p2902
(dp2903
g13
(dp2904
I1
F49.0
sI2
F95.0
sI3
F9.0
sI6
F1.6666665
sI7
F5.911111
sI8
F3.0
sI9
F3.2888885
sI10
F5.185185
sI11
F2.2222223
sI12
F9.444445
sI13
F3.8888888
sI14
F-8.888889
sI15
F12.777778
sI16
F-3.8888888
sI17
F9.444445
sI18
F0.79410774
sI19
F-2.3264554
ssbsg15
g0
(g16
g2
Ntp2905
Rp2906
(dp2907
g15
I0
sbsba(ics475_types
Instance
p2908
(dp2909
g10
(ics475_types
FeatureVector
p2910
(dp2911
g13
(dp2912
I1
F242.0
sI2
F183.0
sI3
F9.0
sI6
F1.4999999
sI7
F0.9368979
sI8
F2.1666667
sI9
F1.798147
sI10
F15.37037
sI11
F12.666667
sI12
F12.444445
sI13
F21.0
sI14
F-8.111111
sI15
F-8.777778
sI16
F16.88889
sI17
F21.0
sI18
F0.42024404
sI19
F2.0758736
ssbsg15
g0
(g16
g2
Ntp2913
Rp2914
(dp2915
g15
I1
sbsba(ics475_types
Instance
p2916
(dp2917
g10
(ics475_types
FeatureVector
p2918
(dp2919
g13
(dp2920
I1
F118.0
sI2
F133.0
sI3
F9.0
sI6
F0.22222221
sI7
F0.029629631
sI8
F0.22222221
sI9
F0.029629631
sI10
F0.7407407
sI12
F2.2222223
sI14
F-2.2222223
sI15
F4.4444447
sI16
F-2.2222223
sI17
F2.2222223
sI18
F1.0
sI19
F-2.0943952
ssbsg15
g0
(g16
g2
Ntp2921
Rp2922
(dp2923
g15
I0
sbsba(ics475_types
Instance
p2924
(dp2925
g10
(ics475_types
FeatureVector
p2926
(dp2927
g13
(dp2928
I1
F192.0
sI2
F157.0
sI3
F9.0
sI6
F1.0555559
sI7
F0.5074076
sI8
F0.77777797
sI9
F0.16296285
sI10
F18.333334
sI11
F13.888889
sI12
F17.222223
sI13
F23.88889
sI14
F-13.333333
sI15
F-3.3333333
sI16
F16.666666
sI17
F23.88889
sI18
F0.41818407
sI19
F2.4386153
ssbsg15
g0
(g16
g2
Ntp2929
Rp2930
(dp2931
g15
I1
sbsba(ics475_types
Instance
p2932
(dp2933
g10
(ics475_types
FeatureVector
p2934
(dp2935
g13
(dp2936
I1
F96.0
sI2
F138.0
sI3
F9.0
sI6
F0.72222227
sI7
F0.6469301
sI8
F0.94444436
sI9
F0.7123256
sI10
F1.1481482
sI11
F0.11111111
sI12
F2.7777777
sI13
F0.5555556
sI14
F-3.1111112
sI15
F4.888889
sI16
F-1.7777778
sI17
F2.7777777
sI18
F0.9777778
sI19
F-2.219242
ssbsg15
g0
(g16
g2
Ntp2937
Rp2938
(dp2939
g15
I0
sbsba(ics475_types
Instance
p2940
(dp2941
g10
(ics475_types
FeatureVector
p2942
(dp2943
g13
(dp2944
I1
F103.0
sI2
F125.0
sI3
F9.0
sI6
F0.9444445
sI7
F0.82775915
sI8
F0.83333343
sI9
F0.6912146
sI10
F1.7777778
sI11
F0.44444445
sI12
F3.8888888
sI13
F1.0
sI14
F-4.0
sI15
F6.3333335
sI16
F-2.3333333
sI17
F3.8888888
sI18
F0.9238095
sI19
F-2.2375617
ssbsg15
g0
(g16
g2
Ntp2945
Rp2946
(dp2947
g15
I0
sbsba(ics475_types
Instance
p2948
(dp2949
g10
(ics475_types
FeatureVector
p2950
(dp2951
g13
(dp2952
I1
F111.0
sI2
F235.0
sI3
F9.0
sI6
F1.6111107
sI7
F1.3074071
sI8
F2.7222216
sI9
F2.5518525
sI10
F15.62963
sI11
F11.777778
sI12
F15.888889
sI13
F19.222221
sI14
F-11.555555
sI15
F0.7777778
sI16
F10.777778
sI17
F19.222221
sI18
F0.3880957
sI19
F2.6707714
ssbsg15
g0
(g16
g2
Ntp2953
Rp2954
(dp2955
g15
I1
sbsba(ics475_types
Instance
p2956
(dp2957
g10
(ics475_types
FeatureVector
p2958
(dp2959
g13
(dp2960
I1
F114.0
sI2
F238.0
sI3
F9.0
sI6
F1.666667
sI7
F1.1352924
sI8
F1.4444445
sI9
F1.0680548
sI10
F13.62963
sI11
F11.111111
sI12
F10.666667
sI13
F19.11111
sI14
F-7.5555553
sI15
F-8.888889
sI16
F16.444445
sI17
F19.11111
sI18
F0.46145898
sI19
F2.0466826
ssbsg15
g0
(g16
g2
Ntp2961
Rp2962
(dp2963
g15
I1
sbsba(ics475_types
Instance
p2964
(dp2965
g10
(ics475_types
FeatureVector
p2966
(dp2967
g13
(dp2968
I1
F208.0
sI2
F240.0
sI3
F9.0
sI4
F0.11111111
sI6
F1.0555557
sI7
F0.86296326
sI8
F2.4444444
sI9
F5.007407
sI10
F14.148149
sI11
F10.888889
sI12
F13.0
sI13
F18.555555
sI14
F-9.777778
sI15
F-3.4444444
sI16
F13.222222
sI17
F18.555555
sI18
F0.42162097
sI19
F2.3924873
ssbsg15
g0
(g16
g2
Ntp2969
Rp2970
(dp2971
g15
I1
sbsba(ics475_types
Instance
p2972
(dp2973
g10
(ics475_types
FeatureVector
p2974
(dp2975
g13
(dp2976
I1
F56.0
sI2
F243.0
sI3
F9.0
sI6
F2.2222223
sI7
F5.274073
sI8
F2.5555556
sI9
F0.829629
sI10
F6.4814816
sI11
F5.111111
sI12
F4.888889
sI13
F9.444445
sI14
F-4.111111
sI15
F-4.7777777
sI16
F8.888889
sI17
F9.444445
sI18
F0.52543694
sI19
F2.0336287
ssbsg15
g0
(g16
g2
Ntp2977
Rp2978
(dp2979
g15
I1
sbsba(ics475_types
Instance
p2980
(dp2981
g10
(ics475_types
FeatureVector
p2982
(dp2983
g13
(dp2984
I1
F126.0
sI2
F141.0
sI3
F9.0
sI6
F1.3888887
sI7
F1.3518527
sI8
F0.88888884
sI9
F0.8296295
sI10
F3.2592592
sI11
F0.44444445
sI12
F7.6666665
sI13
F1.6666666
sI14
F-8.444445
sI15
F13.222222
sI16
F-4.7777777
sI17
F7.6666665
sI18
F0.95308644
sI19
F-2.2571225
ssbsg15
g0
(g16
g2
Ntp2985
Rp2986
(dp2987
g15
I0
sbsba(ics475_types
Instance
p2988
(dp2989
g10
(ics475_types
FeatureVector
p2990
(dp2991
g13
(dp2992
I1
F211.0
sI2
F206.0
sI3
F9.0
sI6
F0.94444466
sI7
F1.1296302
sI8
F2.166667
sI9
F1.1000005
sI10
F16.074074
sI11
F13.555555
sI12
F14.555555
sI13
F20.11111
sI14
F-7.5555553
sI15
F-4.5555553
sI16
F12.111111
sI17
F20.11111
sI18
F0.3273603
sI19
F2.252368
ssbsg15
g0
(g16
g2
Ntp2993
Rp2994
(dp2995
g15
I1
sbsba(ics475_types
Instance
p2996
(dp2997
g10
(ics475_types
FeatureVector
p2998
(dp2999
g13
(dp3000
I1
F173.0
sI2
F219.0
sI3
F9.0
sI6
F2.7777777
sI7
F3.4962971
sI8
F2.8333333
sI9
F6.6111126
sI10
F5.5925927
sI11
F4.111111
sI12
F4.3333335
sI13
F8.333334
sI14
F-4.4444447
sI15
F-3.7777777
sI16
F8.222222
sI17
F8.333334
sI18
F0.56125355
sI19
F2.1483634
ssbsg15
g0
(g16
g2
Ntp3001
Rp3002
(dp3003
g15
I1
sbsba(ics475_types
Instance
p3004
(dp3005
g10
(ics475_types
FeatureVector
p3006
(dp3007
g13
(dp3008
I1
F75.0
sI2
F113.0
sI3
F9.0
sI5
F0.11111111
sI6
F2.944445
sI7
F4.1226563
sI8
F6.1666665
sI9
F6.2245026
sI10
F27.88889
sI11
F17.11111
sI12
F44.22222
sI13
F22.333334
sI14
F-32.333332
sI15
F49.0
sI16
F-16.666666
sI17
F44.22222
sI18
F0.62207055
sI19
F-2.2966495
ssbsg15
g0
(g16
g2
Ntp3009
Rp3010
(dp3011
g15
I0
sbsba(ics475_types
Instance
p3012
(dp3013
g10
(ics475_types
FeatureVector
p3014
(dp3015
g13
(dp3016
I1
F23.0
sI2
F129.0
sI3
F9.0
sI6
F0.5
sI7
F0.077777795
sI8
F0.38888887
sI9
F0.15185186
sI10
F0.5185185
sI12
F1.5555556
sI14
F-1.5555556
sI15
F3.1111112
sI16
F-1.5555556
sI17
F1.5555556
sI18
F0.7777778
sI19
F-2.0943952
ssbsg15
g0
(g16
g2
Ntp3017
Rp3018
(dp3019
g15
I0
sbsba(ics475_types
Instance
p3020
(dp3021
g10
(ics475_types
FeatureVector
p3022
(dp3023
g13
(dp3024
I1
F235.0
sI2
F81.0
sI3
F9.0
sI6
F1.388889
sI7
F0.41851807
sI8
F0.77777773
sI9
F0.2962964
sI10
F3.4814816
sI11
F1.0
sI12
F7.4444447
sI13
F2.0
sI14
F-7.4444447
sI15
F11.888889
sI16
F-4.4444447
sI17
F7.4444447
sI18
F0.88121694
sI19
F-2.2481337
ssbsg15
g0
(g16
g2
Ntp3025
Rp3026
(dp3027
g15
I0
sbsba(ics475_types
Instance
p3028
(dp3029
g10
(ics475_types
FeatureVector
p3030
(dp3031
g13
(dp3032
I1
F168.0
sI2
F209.0
sI3
F9.0
sI6
F1.3333334
sI7
F0.6666665
sI8
F0.7222217
sI9
F0.7123257
sI10
F22.518518
sI11
F17.666668
sI12
F20.88889
sI13
F29.0
sI14
F-14.555555
sI15
F-4.888889
sI16
F19.444445
sI17
F29.0
sI18
F0.39033788
sI19
F2.3893912
ssbsg15
g0
(g16
g2
Ntp3033
Rp3034
(dp3035
g15
I1
sbsba(ics475_types
Instance
p3036
(dp3037
g10
(ics475_types
FeatureVector
p3038
(dp3039
g13
(dp3040
I1
F63.0
sI2
F220.0
sI3
F9.0
sI6
F3.055556
sI7
F15.2629595
sI8
F3.6666667
sI9
F6.0888896
sI10
F8.185185
sI11
F6.5555553
sI12
F6.4444447
sI13
F11.555555
sI14
F-4.888889
sI15
F-5.2222223
sI16
F10.111111
sI17
F11.555555
sI18
F0.48671728
sI19
F2.0931497
ssbsg15
g0
(g16
g2
Ntp3041
Rp3042
(dp3043
g15
I1
sbsba(ics475_types
Instance
p3044
(dp3045
g10
(ics475_types
FeatureVector
p3046
(dp3047
g13
(dp3048
I1
F72.0
sI2
F191.0
sI3
F9.0
sI4
F0.11111111
sI6
F1.2777777
sI7
F0.5074075
sI8
F3.1111114
sI9
F4.6074066
sI10
F15.185185
sI11
F12.111111
sI12
F14.888889
sI13
F18.555555
sI14
F-9.222222
sI15
F-0.8888889
sI16
F10.111111
sI17
F18.555555
sI18
F0.3503698
sI19
F2.545329
ssbsg15
g0
(g16
g2
Ntp3049
Rp3050
(dp3051
g15
I1
sbsba(ics475_types
Instance
p3052
(dp3053
g10
(ics475_types
FeatureVector
p3054
(dp3055
g13
(dp3056
I1
F20.0
sI2
F248.0
sI3
F9.0
sI6
F1.8333335
sI7
F0.8333331
sI8
F1.6666669
sI9
F1.5999992
sI10
F13.444445
sI11
F10.555555
sI12
F12.111111
sI13
F17.666668
sI14
F-8.666667
sI15
F-4.0
sI16
F12.666667
sI17
F17.666668
sI18
F0.40343738
sI19
F2.3416765
ssbsg15
g0
(g16
g2
Ntp3057
Rp3058
(dp3059
g15
I1
sbsba(ics475_types
Instance
p3060
(dp3061
g10
(ics475_types
FeatureVector
p3062
(dp3063
g13
(dp3064
I1
F59.0
sI2
F87.0
sI3
F9.0
sI5
F0.11111111
sI6
F11.166667
sI7
F84.87777
sI8
F13.222221
sI9
F70.02964
sI10
F17.11111
sI11
F12.222222
sI12
F23.444445
sI13
F15.666667
sI14
F-14.666667
sI15
F19.0
sI16
F-4.3333335
sI17
F23.444445
sI18
F0.65204316
sI19
F-2.4180744
ssbsg15
g0
(g16
g2
Ntp3065
Rp3066
(dp3067
g15
I0
sbsba(ics475_types
Instance
p3068
(dp3069
g10
(ics475_types
FeatureVector
p3070
(dp3071
g13
(dp3072
I1
F2.0
sI2
F198.0
sI3
F9.0
sI4
F0.11111111
sI6
F0.888889
sI7
F0.6206327
sI8
F1.9444448
sI9
F1.3567389
sI10
F12.185185
sI11
F9.666667
sI12
F10.555555
sI13
F16.333334
sI14
F-7.5555553
sI15
F-4.888889
sI16
F12.444445
sI17
F16.333334
sI18
F0.4157716
sI19
F2.2212758
ssbsg15
g0
(g16
g2
Ntp3073
Rp3074
(dp3075
g15
I1
sbsba(ics475_types
Instance
p3076
(dp3077
g10
(ics475_types
FeatureVector
p3078
(dp3079
g13
(dp3080
I1
F131.0
sI2
F214.0
sI3
F9.0
sI6
F0.77777773
sI7
F0.6518515
sI8
F1.2777777
sI9
F0.24074058
sI10
F6.814815
sI11
F5.0
sI12
F4.7777777
sI13
F10.666667
sI14
F-5.4444447
sI15
F-6.111111
sI16
F11.555555
sI17
F10.666667
sI18
F0.5681624
sI19
F2.0583289
ssbsg15
g0
(g16
g2
Ntp3081
Rp3082
(dp3083
g15
I1
sbsba(ics475_types
Instance
p3084
(dp3085
g10
(ics475_types
FeatureVector
p3086
(dp3087
g13
(dp3088
I1
F22.0
sI2
F133.0
sI3
F9.0
ssbsg15
g0
(g16
g2
Ntp3089
Rp3090
(dp3091
g15
I0
sbsba(ics475_types
Instance
p3092
(dp3093
g10
(ics475_types
FeatureVector
p3094
(dp3095
g13
(dp3096
I1
F200.0
sI2
F250.0
sI3
F9.0
sI6
F2.2777777
sI7
F1.420746
sI8
F1.4444445
sI9
F1.0255988
sI10
F9.222222
sI11
F6.5555553
sI12
F7.3333335
sI13
F13.777778
sI14
F-8.0
sI15
F-5.6666665
sI16
F13.666667
sI17
F13.777778
sI18
F0.5633903
sI19
F2.1929355
ssbsg15
g0
(g16
g2
Ntp3097
Rp3098
(dp3099
g15
I1
sbsba(ics475_types
Instance
p3100
(dp3101
g10
(ics475_types
FeatureVector
p3102
(dp3103
g13
(dp3104
I1
F75.0
sI2
F122.0
sI3
F9.0
sI6
F0.72222227
sI7
F0.24074064
sI8
F0.8333333
sI9
F0.38888904
sI10
F1.5925926
sI12
F4.4444447
sI13
F0.33333334
sI14
F-4.7777777
sI15
F8.555555
sI16
F-3.7777777
sI17
F4.4444447
sI18
F1.0
sI19
F-2.1535993
ssbsg15
g0
(g16
g2
Ntp3105
Rp3106
(dp3107
g15
I0
sbsba(ics475_types
Instance
p3108
(dp3109
g10
(ics475_types
FeatureVector
p3110
(dp3111
g13
(dp3112
I1
F80.0
sI2
F203.0
sI3
F9.0
sI6
F1.3888887
sI7
F0.74286735
sI8
F1.9444443
sI9
F1.5263122
sI10
F12.407408
sI11
F10.0
sI12
F9.0
sI13
F18.222221
sI14
F-7.2222223
sI15
F-10.222222
sI16
F17.444445
sI17
F18.222221
sI18
F0.5144446
sI19
F1.9867483
ssbsg15
g0
(g16
g2
Ntp3113
Rp3114
(dp3115
g15
I1
sbsba(ics475_types
Instance
p3116
(dp3117
g10
(ics475_types
FeatureVector
p3118
(dp3119
g13
(dp3120
I1
F238.0
sI2
F162.0
sI3
F9.0
sI4
F0.22222222
sI6
F0.94444466
sI7
F0.7123257
sI8
F2.666667
sI9
F0.73029745
sI10
F19.0
sI11
F15.777778
sI12
F17.333334
sI13
F23.88889
sI14
F-9.666667
sI15
F-5.0
sI16
F14.666667
sI17
F23.88889
sI18
F0.34003016
sI19
F2.2914152
ssbsg15
g0
(g16
g2
Ntp3121
Rp3122
(dp3123
g15
I1
sbsba(ics475_types
Instance
p3124
(dp3125
g10
(ics475_types
FeatureVector
p3126
(dp3127
g13
(dp3128
I1
F153.0
sI2
F204.0
sI3
F9.0
sI4
F0.11111111
sI6
F2.388889
sI7
F1.6920295
sI8
F3.3333333
sI9
F1.3824291
sI10
F19.407408
sI11
F15.333333
sI12
F16.88889
sI13
F26.0
sI14
F-12.222222
sI15
F-7.5555553
sI16
F19.777779
sI17
F26.0
sI18
F0.4203661
sI19
F2.2444103
ssbsg15
g0
(g16
g2
Ntp3129
Rp3130
(dp3131
g15
I1
sbsba(ics475_types
Instance
p3132
(dp3133
g10
(ics475_types
FeatureVector
p3134
(dp3135
g13
(dp3136
I1
F194.0
sI2
F124.0
sI3
F9.0
sI6
F1.4999999
sI7
F0.43333384
sI8
F1.388889
sI9
F0.90740687
sI10
F2.8148148
sI11
F1.0
sI12
F5.5555553
sI13
F1.8888888
sI14
F-5.4444447
sI15
F8.222222
sI16
F-2.7777777
sI17
F5.5555553
sI18
F0.8367725
sI19
F-2.2846084
ssbsg15
g0
(g16
g2
Ntp3137
Rp3138
(dp3139
g15
I0
sbsba(ics475_types
Instance
p3140
(dp3141
g10
(ics475_types
FeatureVector
p3142
(dp3143
g13
(dp3144
I1
F114.0
sI2
F242.0
sI3
F9.0
sI6
F2.7222223
sI7
F2.4532676
sI8
F4.6666675
sI9
F1.9206476
sI10
F24.074074
sI11
F19.222221
sI12
F22.444445
sI13
F30.555555
sI14
F-14.555555
sI15
F-4.888889
sI16
F19.444445
sI17
F30.555555
sI18
F0.3716949
sI19
F2.395778
ssbsg15
g0
(g16
g2
Ntp3145
Rp3146
(dp3147
g15
I1
sbsba(ics475_types
Instance
p3148
(dp3149
g10
(ics475_types
FeatureVector
p3150
(dp3151
g13
(dp3152
I1
F10.0
sI2
F196.0
sI3
F9.0
sI6
F1.2222217
sI7
F1.0470414
sI8
F0.9999997
sI9
F0.8432735
sI10
F15.333333
sI11
F14.111111
sI12
F11.444445
sI13
F20.444445
sI14
F-3.6666667
sI15
F-11.666667
sI16
F15.333333
sI17
F20.444445
sI18
F0.4405804
sI19
F1.789167
ssbsg15
g0
(g16
g2
Ntp3153
Rp3154
(dp3155
g15
I1
sbsba(ics475_types
Instance
p3156
(dp3157
g10
(ics475_types
FeatureVector
p3158
(dp3159
g13
(dp3160
I1
F68.0
sI2
F109.0
sI3
F9.0
sI6
F1.5
sI7
F3.2333333
sI8
F1.111111
sI9
F1.8962961
sI10
F1.962963
sI11
F0.33333334
sI12
F4.7777777
sI13
F0.7777778
sI14
F-4.888889
sI15
F8.444445
sI16
F-3.5555556
sI17
F4.7777777
sI18
F0.9691358
sI19
F-2.146531
ssbsg15
g0
(g16
g2
Ntp3161
Rp3162
(dp3163
g15
I0
sbsba(ics475_types
Instance
p3164
(dp3165
g10
(ics475_types
FeatureVector
p3166
(dp3167
g13
(dp3168
I1
F63.0
sI2
F158.0
sI3
F9.0
sI4
F0.11111111
sI6
F0.99999934
sI7
F1.0540929
sI8
F1.888889
sI9
F1.29386
sI10
F22.185184
sI11
F16.444445
sI12
F22.222221
sI13
F27.88889
sI14
F-17.222221
sI15
F0.11111111
sI16
F17.11111
sI17
F27.88889
sI18
F0.41181073
sI19
F2.6247067
ssbsg15
g0
(g16
g2
Ntp3169
Rp3170
(dp3171
g15
I1
sbsba(ics475_types
Instance
p3172
(dp3173
g10
(ics475_types
FeatureVector
p3174
(dp3175
g13
(dp3176
I1
F115.0
sI2
F183.0
sI3
F9.0
sI6
F1.055555
sI7
F0.7722019
sI8
F4.722222
sI9
F1.0201681
sI10
F19.851852
sI11
F14.555555
sI12
F19.0
sI13
F26.0
sI14
F-15.888889
sI15
F-2.5555556
sI16
F18.444445
sI17
F26.0
sI18
F0.44994184
sI19
F2.5068066
ssbsg15
g0
(g16
g2
Ntp3177
Rp3178
(dp3179
g15
I1
sbsba(ics475_types
Instance
p3180
(dp3181
g10
(ics475_types
FeatureVector
p3182
(dp3183
g13
(dp3184
I1
F247.0
sI2
F197.0
sI3
F9.0
sI6
F0.33333316
sI7
F0.044444434
sI8
F0.611111
sI9
F0.06296301
sI10
F6.0
sI11
F4.111111
sI12
F4.0
sI13
F9.888889
sI14
F-5.6666665
sI15
F-6.0
sI16
F11.666667
sI17
F9.888889
sI18
F0.61705947
sI19
F2.0749567
ssbsg15
g0
(g16
g2
Ntp3185
Rp3186
(dp3187
g15
I1
sbsba(ics475_types
Instance
p3188
(dp3189
g10
(ics475_types
FeatureVector
p3190
(dp3191
g13
(dp3192
I1
F80.0
sI2
F184.0
sI3
F9.0
sI6
F3.444444
sI7
F11.851854
sI8
F4.166667
sI9
F5.8555503
sI10
F17.62963
sI11
F13.555555
sI12
F17.11111
sI13
F22.222221
sI14
F-12.222222
sI15
F-1.5555556
sI16
F13.777778
sI17
F22.222221
sI18
F0.39835298
sI19
F2.524273
ssbsg15
g0
(g16
g2
Ntp3193
Rp3194
(dp3195
g15
I1
sbsba(ics475_types
Instance
p3196
(dp3197
g10
(ics475_types
FeatureVector
p3198
(dp3199
g13
(dp3200
I1
F57.0
sI2
F177.0
sI3
F9.0
sI6
F0.94444495
sI7
F0.55185163
sI8
F1.4444443
sI9
F1.71852
sI10
F19.592592
sI11
F15.777778
sI12
F18.444445
sI13
F24.555555
sI14
F-11.444445
sI15
F-3.4444444
sI16
F14.888889
sI17
F24.555555
sI18
F0.3589904
sI19
F2.413262
ssbsg15
g0
(g16
g2
Ntp3201
Rp3202
(dp3203
g15
I1
sbsba(ics475_types
Instance
p3204
(dp3205
g10
(ics475_types
FeatureVector
p3206
(dp3207
g13
(dp3208
I1
F51.0
sI2
F115.0
sI3
F9.0
sI6
F0.6666667
sI7
F0.48888892
sI8
F1.388889
sI9
F0.6851847
sI10
F2.7037036
sI11
F0.5555556
sI12
F5.6666665
sI13
F1.8888888
sI14
F-6.4444447
sI15
F8.888889
sI16
F-2.4444444
sI17
F5.6666665
sI18
F0.91798943
sI19
F-2.3583865
ssbsg15
g0
(g16
g2
Ntp3209
Rp3210
(dp3211
g15
I0
sbsba(ics475_types
Instance
p3212
(dp3213
g10
(ics475_types
FeatureVector
p3214
(dp3215
g13
(dp3216
I1
F184.0
sI2
F197.0
sI3
F9.0
sI6
F3.0555553
sI7
F3.2551951
sI8
F4.5555553
sI9
F2.7460418
sI10
F11.962963
sI11
F8.888889
sI12
F9.555555
sI13
F17.444445
sI14
F-9.222222
sI15
F-7.2222223
sI16
F16.444445
sI17
F17.444445
sI18
F0.51518697
sI19
F2.164262
ssbsg15
g0
(g16
g2
Ntp3217
Rp3218
(dp3219
g15
I1
sbsba(ics475_types
Instance
p3220
(dp3221
g10
(ics475_types
FeatureVector
p3222
(dp3223
g13
(dp3224
I1
F52.0
sI2
F102.0
sI3
F9.0
sI6
F0.72222227
sI7
F0.50740725
sI8
F0.8333333
sI9
F0.5666668
sI10
F2.8888888
sI11
F0.6666667
sI12
F6.3333335
sI13
F1.6666666
sI14
F-6.6666665
sI15
F10.333333
sI16
F-3.6666667
sI17
F6.3333335
sI18
F0.89973545
sI19
F-2.2617195
ssbsg15
g0
(g16
g2
Ntp3225
Rp3226
(dp3227
g15
I0
sbsba(ics475_types
Instance
p3228
(dp3229
g10
(ics475_types
FeatureVector
p3230
(dp3231
g13
(dp3232
I1
F242.0
sI2
F81.0
sI3
F9.0
sI6
F22.388887
sI7
F189.44075
sI8
F15.166667
sI9
F110.8778
sI10
F41.925926
sI11
F33.11111
sI12
F55.555557
sI13
F37.11111
sI14
F-26.444445
sI15
F40.88889
sI16
F-14.444445
sI17
F55.555557
sI18
F0.42017567
sI19
F-2.2744606
ssbsg15
g0
(g16
g2
Ntp3233
Rp3234
(dp3235
g15
I0
sbsba(ics475_types
Instance
p3236
(dp3237
g10
(ics475_types
FeatureVector
p3238
(dp3239
g13
(dp3240
I1
F14.0
sI2
F136.0
sI3
F9.0
ssbsg15
g0
(g16
g2
Ntp3241
Rp3242
(dp3243
g15
I0
sbsba(ics475_types
Instance
p3244
(dp3245
g10
(ics475_types
FeatureVector
p3246
(dp3247
g13
(dp3248
I1
F63.0
sI2
F179.0
sI3
F9.0
sI6
F0.6666668
sI7
F0.22222233
sI8
F1.5555557
sI9
F0.5629631
sI10
F11.814815
sI11
F9.777778
sI12
F9.444445
sI13
F16.222223
sI14
F-6.111111
sI15
F-7.111111
sI16
F13.222222
sI17
F16.222223
sI18
F0.41976216
sI19
F2.04457
ssbsg15
g0
(g16
g2
Ntp3249
Rp3250
(dp3251
g15
I1
sbsba(ics475_types
Instance
p3252
(dp3253
g10
(ics475_types
FeatureVector
p3254
(dp3255
g13
(dp3256
I1
F17.0
sI2
F229.0
sI3
F9.0
sI6
F2.1111114
sI7
F1.9851303
sI8
F2.4444447
sI9
F1.6147469
sI10
F13.703704
sI11
F11.222222
sI12
F11.111111
sI13
F18.777779
sI14
F-7.4444447
sI15
F-7.7777777
sI16
F15.222222
sI17
F18.777779
sI18
F0.4398524
sI19
F2.0999045
ssbsg15
g0
(g16
g2
Ntp3257
Rp3258
(dp3259
g15
I1
sbsba(ics475_types
Instance
p3260
(dp3261
g10
(ics475_types
FeatureVector
p3262
(dp3263
g13
(dp3264
I1
F126.0
sI2
F237.0
sI3
F9.0
sI6
F0.94444436
sI7
F0.24074084
sI8
F1.0000001
sI9
F0.48888868
sI10
F5.7777777
sI11
F4.2222223
sI12
F4.2222223
sI13
F8.888889
sI14
F-4.6666665
sI15
F-4.6666665
sI16
F9.333333
sI17
F8.888889
sI18
F0.5538119
sI19
F2.0972314
ssbsg15
g0
(g16
g2
Ntp3265
Rp3266
(dp3267
g15
I1
sbsba(ics475_types
Instance
p3268
(dp3269
g10
(ics475_types
FeatureVector
p3270
(dp3271
g13
(dp3272
I1
F128.0
sI2
F196.0
sI3
F9.0
sI6
F1.666667
sI7
F1.2444435
sI8
F1.8888887
sI9
F3.851853
sI10
F19.62963
sI11
F15.666667
sI12
F18.555555
sI13
F24.666666
sI14
F-11.888889
sI15
F-3.2222223
sI16
F15.111111
sI17
F24.666666
sI18
F0.36529657
sI19
F2.4373393
ssbsg15
g0
(g16
g2
Ntp3273
Rp3274
(dp3275
g15
I1
sbsba(ics475_types
Instance
p3276
(dp3277
g10
(ics475_types
FeatureVector
p3278
(dp3279
g13
(dp3280
I1
F230.0
sI2
F124.0
sI3
F9.0
sI6
F0.2777778
sI7
F0.10740743
sI8
F0.2777778
sI9
F0.15185183
sI10
F0.6666667
sI12
F2.0
sI14
F-2.0
sI15
F4.0
sI16
F-2.0
sI17
F2.0
sI18
F1.0
sI19
F-2.0943952
ssbsg15
g0
(g16
g2
Ntp3281
Rp3282
(dp3283
g15
I0
sbsba(ics475_types
Instance
p3284
(dp3285
g10
(ics475_types
FeatureVector
p3286
(dp3287
g13
(dp3288
I1
F140.0
sI2
F125.0
sI3
F9.0
sI6
F0.66666657
sI7
F0.22222227
sI8
F2.6666667
sI9
F3.7777781
sI10
F3.925926
sI11
F1.5555556
sI12
F7.7777777
sI13
F2.4444444
sI14
F-7.111111
sI15
F11.555555
sI16
F-4.4444447
sI17
F7.7777777
sI18
F0.85319865
sI19
F-2.2342408
ssbsg15
g0
(g16
g2
Ntp3289
Rp3290
(dp3291
g15
I0
sbsba(ics475_types
Instance
p3292
(dp3293
g10
(ics475_types
FeatureVector
p3294
(dp3295
g13
(dp3296
I1
F112.0
sI2
F102.0
sI3
F9.0
sI6
F0.5555555
sI7
F0.20740739
sI8
F1.5555555
sI9
F0.4740743
sI10
F3.3703704
sI11
F0.5555556
sI12
F7.6666665
sI13
F1.8888888
sI14
F-8.444445
sI15
F12.888889
sI16
F-4.4444447
sI17
F7.6666665
sI18
F0.94074076
sI19
F-2.2751586
ssbsg15
g0
(g16
g2
Ntp3297
Rp3298
(dp3299
g15
I0
sbsba(ics475_types
Instance
p3300
(dp3301
g10
(ics475_types
FeatureVector
p3302
(dp3303
g13
(dp3304
I1
F73.0
sI2
F117.0
sI3
F9.0
sI6
F1.5555553
sI7
F0.96296364
sI8
F0.6111111
sI9
F0.7740742
sI10
F1.3333334
sI11
F0.22222222
sI12
F3.5555556
sI13
F0.22222222
sI14
F-3.3333333
sI15
F6.6666665
sI16
F-3.3333333
sI17
F3.5555556
sI18
F0.96825397
sI19
F-2.0943952
ssbsg15
g0
(g16
g2
Ntp3305
Rp3306
(dp3307
g15
I0
sbsba(ics475_types
Instance
p3308
(dp3309
g10
(ics475_types
FeatureVector
p3310
(dp3311
g13
(dp3312
I1
F207.0
sI2
F215.0
sI3
F9.0
sI6
F3.222222
sI7
F2.0403335
sI8
F2.4999998
sI9
F1.6158936
sI10
F23.814816
sI11
F18.11111
sI12
F22.666666
sI13
F30.666666
sI14
F-17.11111
sI15
F-3.4444444
sI16
F20.555555
sI17
F30.666666
sI18
F0.40983668
sI19
F2.4717567
ssbsg15
g0
(g16
g2
Ntp3313
Rp3314
(dp3315
g15
I1
sbsba(ics475_types
Instance
p3316
(dp3317
g10
(ics475_types
FeatureVector
p3318
(dp3319
g13
(dp3320
I1
F231.0
sI2
F233.0
sI3
F9.0
sI6
F1.4444442
sI7
F0.74074095
sI8
F1.1666664
sI9
F0.3444444
sI10
F12.592592
sI11
F8.888889
sI12
F11.888889
sI13
F17.0
sI14
F-11.111111
sI15
F-2.1111112
sI16
F13.222222
sI17
F17.0
sI18
F0.47822163
sI19
F2.4915802
ssbsg15
g0
(g16
g2
Ntp3321
Rp3322
(dp3323
g15
I1
sbsba(ics475_types
Instance
p3324
(dp3325
g10
(ics475_types
FeatureVector
p3326
(dp3327
g13
(dp3328
I1
F186.0
sI2
F218.0
sI3
F9.0
sI6
F1.1666666
sI7
F0.74444425
sI8
F1.1666665
sI9
F0.65555507
sI10
F13.703704
sI11
F10.666667
sI12
F12.666667
sI13
F17.777779
sI14
F-9.111111
sI15
F-3.1111112
sI16
F12.222222
sI17
F17.777779
sI18
F0.40134683
sI19
F2.3826835
ssbsg15
g0
(g16
g2
Ntp3329
Rp3330
(dp3331
g15
I1
sbsba(ics475_types
Instance
p3332
(dp3333
g10
(ics475_types
FeatureVector
p3334
(dp3335
g13
(dp3336
I1
F7.0
sI2
F90.0
sI3
F9.0
sI6
F1.2777777
sI7
F0.8541836
sI8
F2.4444444
sI9
F2.0184336
sI10
F4.6666665
sI11
F2.5555556
sI12
F5.7777777
sI13
F5.6666665
sI14
F-6.3333335
sI15
F3.3333333
sI16
F3.0
sI17
F6.2222223
sI18
F0.66534394
sI19
F-3.0441751
ssbsg15
g0
(g16
g2
Ntp3337
Rp3338
(dp3339
g15
I0
sbsba(ics475_types
Instance
p3340
(dp3341
g10
(ics475_types
FeatureVector
p3342
(dp3343
g13
(dp3344
I1
F196.0
sI2
F182.0
sI3
F9.0
sI6
F1.1666664
sI7
F0.43333244
sI8
F0.6111107
sI9
F0.37407404
sI10
F19.88889
sI11
F16.88889
sI12
F18.11111
sI13
F24.666666
sI14
F-9.0
sI15
F-5.3333335
sI16
F14.333333
sI17
F24.666666
sI18
F0.31489658
sI19
F2.2716928
ssbsg15
g0
(g16
g2
Ntp3345
Rp3346
(dp3347
g15
I1
sbsba(ics475_types
Instance
p3348
(dp3349
g10
(ics475_types
FeatureVector
p3350
(dp3351
g13
(dp3352
I1
F104.0
sI2
F134.0
sI3
F9.0
sI6
F0.5
sI7
F0.18257418
sI8
F0.8333333
sI9
F0.27888662
sI10
F1.7777778
sI11
F0.11111111
sI12
F3.8888888
sI13
F1.3333334
sI14
F-5.0
sI15
F6.3333335
sI16
F-1.3333334
sI17
F3.8888888
sI18
F0.9777778
sI19
F-2.4225056
ssbsg15
g0
(g16
g2
Ntp3353
Rp3354
(dp3355
g15
I0
sbsba(ics475_types
Instance
p3356
(dp3357
g10
(ics475_types
FeatureVector
p3358
(dp3359
g13
(dp3360
I1
F48.0
sI2
F85.0
sI3
F9.0
sI6
F3.111111
sI7
F13.451853
sI8
F2.0555556
sI9
F6.862964
sI10
F4.296296
sI11
F1.3333334
sI12
F8.888889
sI13
F2.6666667
sI14
F-8.888889
sI15
F13.777778
sI16
F-4.888889
sI17
F8.888889
sI18
F0.8858245
sI19
F-2.2715442
ssbsg15
g0
(g16
g2
Ntp3361
Rp3362
(dp3363
g15
I0
sbsba(ics475_types
Instance
p3364
(dp3365
g10
(ics475_types
FeatureVector
p3366
(dp3367
g13
(dp3368
I1
F80.0
sI2
F87.0
sI3
F9.0
sI5
F0.11111111
sI6
F24.388891
sI7
F572.9964
sI8
F44.722225
sI9
F1386.3292
sI10
F67.44444
sI11
F58.77778
sI12
F79.0
sI13
F64.55556
sI14
F-26.0
sI15
F34.666668
sI16
F-8.666667
sI17
F79.0
sI18
F0.30628127
sI19
F-2.4221272
ssbsg15
g0
(g16
g2
Ntp3369
Rp3370
(dp3371
g15
I0
sbsba(ics475_types
Instance
p3372
(dp3373
g10
(ics475_types
FeatureVector
p3374
(dp3375
g13
(dp3376
I1
F96.0
sI2
F115.0
sI3
F9.0
sI6
F1.9999999
sI7
F0.9660915
sI8
F3.3333333
sI9
F1.4142128
sI10
F14.777778
sI11
F8.444445
sI12
F22.88889
sI13
F13.0
sI14
F-19.0
sI15
F24.333334
sI16
F-5.3333335
sI17
F22.88889
sI18
F0.6183277
sI19
F-2.4590404
ssbsg15
g0
(g16
g2
Ntp3377
Rp3378
(dp3379
g15
I0
sbsba(ics475_types
Instance
p3380
(dp3381
g10
(ics475_types
FeatureVector
p3382
(dp3383
g13
(dp3384
I1
F46.0
sI2
F238.0
sI3
F9.0
sI6
F1.0555557
sI7
F0.8277594
sI8
F2.166667
sI9
F1.8226967
sI10
F13.259259
sI11
F9.666667
sI12
F12.666667
sI13
F17.444445
sI14
F-10.777778
sI15
F-1.7777778
sI16
F12.555555
sI17
F17.444445
sI18
F0.44550914
sI19
F2.5082257
ssbsg15
g0
(g16
g2
Ntp3385
Rp3386
(dp3387
g15
I1
sbsba(ics475_types
Instance
p3388
(dp3389
g10
(ics475_types
FeatureVector
p3390
(dp3391
g13
(dp3392
I1
F108.0
sI2
F144.0
sI3
F9.0
sI6
F0.38888893
sI7
F0.15185183
sI8
F0.22222222
sI9
F0.07407406
sI10
F0.962963
sI12
F2.8888888
sI14
F-2.8888888
sI15
F5.7777777
sI16
F-2.8888888
sI17
F2.8888888
sI18
F1.0
sI19
F-2.0943952
ssbsg15
g0
(g16
g2
Ntp3393
Rp3394
(dp3395
g15
I0
sbsba(ics475_types
Instance
p3396
(dp3397
g10
(ics475_types
FeatureVector
p3398
(dp3399
g13
(dp3400
I1
F75.0
sI2
F98.0
sI3
F9.0
sI6
F3.9444444
sI7
F45.84074
sI8
F4.6666665
sI9
F39.288876
sI10
F5.5185184
sI11
F2.3333335
sI12
F10.444445
sI13
F3.7777777
sI14
F-9.555555
sI15
F14.777778
sI16
F-5.2222223
sI17
F10.444445
sI18
F0.8721458
sI19
F-2.2729733
ssbsg15
g0
(g16
g2
Ntp3401
Rp3402
(dp3403
g15
I0
sbsba(ics475_types
Instance
p3404
(dp3405
g10
(ics475_types
FeatureVector
p3406
(dp3407
g13
(dp3408
I1
F36.0
sI2
F145.0
sI3
F9.0
sI6
F0.2777778
sI7
F0.19629629
sI8
F1.2777778
sI9
F2.0629628
sI10
F0.8518519
sI11
F0.33333334
sI12
F1.4444444
sI13
F0.7777778
sI14
F-1.5555556
sI15
F1.7777778
sI16
F-0.22222222
sI17
F1.4444444
sI18
F0.25185186
sI19
F-2.5309503
ssbsg15
g0
(g16
g2
Ntp3409
Rp3410
(dp3411
g15
I0
sbsba(ics475_types
Instance
p3412
(dp3413
g10
(ics475_types
FeatureVector
p3414
(dp3415
g13
(dp3416
I1
F76.0
sI2
F106.0
sI3
F9.0
sI6
F1.8333334
sI7
F3.5444427
sI8
F2.2222223
sI9
F3.718517
sI10
F3.6666667
sI11
F1.0
sI12
F7.888889
sI13
F2.1111112
sI14
F-8.0
sI15
F12.666667
sI16
F-4.6666665
sI17
F7.888889
sI18
F0.9035714
sI19
F-2.2555406
ssbsg15
g0
(g16
g2
Ntp3417
Rp3418
(dp3419
g15
I0
sbsba(ics475_types
Instance
p3420
(dp3421
g10
(ics475_types
FeatureVector
p3422
(dp3423
g13
(dp3424
I1
F205.0
sI2
F83.0
sI3
F9.0
sI6
F24.555555
sI7
F688.0741
sI8
F8.333333
sI9
F121.24443
sI10
F23.296297
sI11
F19.777779
sI12
F28.555555
sI13
F21.555555
sI14
F-10.555555
sI15
F15.777778
sI16
F-5.2222223
sI17
F28.555555
sI18
F0.5041609
sI19
F-2.3213427
ssbsg15
g0
(g16
g2
Ntp3425
Rp3426
(dp3427
g15
I0
sbsba(ics475_types
Instance
p3428
(dp3429
g10
(ics475_types
FeatureVector
p3430
(dp3431
g13
(dp3432
I1
F59.0
sI2
F120.0
sI3
F9.0
sI6
F2.1666667
sI7
F1.9860634
sI8
F1.4444441
sI9
F1.8698385
sI10
F19.074074
sI11
F10.555555
sI12
F33.11111
sI13
F13.555555
sI14
F-25.555555
sI15
F42.11111
sI16
F-16.555555
sI17
F33.11111
sI18
F0.6812664
sI19
F-2.2312608
ssbsg15
g0
(g16
g2
Ntp3433
Rp3434
(dp3435
g15
I0
sbsba(ics475_types
Instance
p3436
(dp3437
g10
(ics475_types
FeatureVector
p3438
(dp3439
g13
(dp3440
I1
F224.0
sI2
F242.0
sI3
F9.0
sI6
F1.8888888
sI7
F0.829629
sI8
F2.222222
sI9
F3.2740743
sI10
F11.740741
sI11
F8.666667
sI12
F10.777778
sI13
F15.777778
sI14
F-9.222222
sI15
F-2.8888888
sI16
F12.111111
sI17
F15.777778
sI18
F0.45454717
sI19
F2.386597
ssbsg15
g0
(g16
g2
Ntp3441
Rp3442
(dp3443
g15
I1
sbsba(ics475_types
Instance
p3444
(dp3445
g10
(ics475_types
FeatureVector
p3446
(dp3447
g13
(dp3448
I1
F116.0
sI2
F245.0
sI3
F9.0
sI4
F0.11111111
sI6
F1.3888888
sI7
F0.5518514
sI8
F2.222222
sI9
F3.940739
sI10
F14.222222
sI11
F11.111111
sI12
F13.111111
sI13
F18.444445
sI14
F-9.333333
sI15
F-3.3333333
sI16
F12.666667
sI17
F18.444445
sI18
F0.38969478
sI19
F2.3954313
ssbsg15
g0
(g16
g2
Ntp3449
Rp3450
(dp3451
g15
I1
sbsba(ics475_types
Instance
p3452
(dp3453
g10
(ics475_types
FeatureVector
p3454
(dp3455
g13
(dp3456
I1
F244.0
sI2
F211.0
sI3
F9.0
sI6
F1.6666666
sI7
F1.3333334
sI8
F2.0000002
sI9
F2.311112
sI10
F13.62963
sI11
F10.777778
sI12
F12.888889
sI13
F17.222223
sI14
F-8.555555
sI15
F-2.2222223
sI16
F10.777778
sI17
F17.222223
sI18
F0.3748065
sI19
F2.441017
ssbsg15
g0
(g16
g2
Ntp3457
Rp3458
(dp3459
g15
I1
sbsba(ics475_types
Instance
p3460
(dp3461
g10
(ics475_types
FeatureVector
p3462
(dp3463
g13
(dp3464
I1
F210.0
sI2
F232.0
sI3
F9.0
sI6
F1.8333335
sI7
F1.2064636
sI8
F1.4999999
sI9
F1.7224014
sI10
F8.814815
sI11
F6.5555553
sI12
F7.2222223
sI13
F12.666667
sI14
F-6.7777777
sI15
F-4.7777777
sI16
F11.555555
sI17
F12.666667
sI18
F0.49138823
sI19
F2.2013178
ssbsg15
g0
(g16
g2
Ntp3465
Rp3466
(dp3467
g15
I1
sbsba(ics475_types
Instance
p3468
(dp3469
g10
(ics475_types
FeatureVector
p3470
(dp3471
g13
(dp3472
I1
F115.0
sI2
F156.0
sI3
F9.0
sI6
F0.3888887
sI7
F0.38968167
sI8
F1.0555553
sI9
F0.6469302
sI10
F24.25926
sI11
F17.222223
sI12
F26.0
sI13
F29.555555
sI14
F-21.11111
sI15
F5.2222223
sI16
F15.888889
sI17
F29.555555
sI18
F0.41732758
sI19
F2.8434196
ssbsg15
g0
(g16
g2
Ntp3473
Rp3474
(dp3475
g15
I1
sbsba(ics475_types
Instance
p3476
(dp3477
g10
(ics475_types
FeatureVector
p3478
(dp3479
g13
(dp3480
I1
F71.0
sI2
F180.0
sI3
F9.0
sI4
F0.11111111
sI6
F1.222222
sI7
F0.5629625
sI8
F3.0
sI9
F1.8666646
sI10
F22.333334
sI11
F18.333334
sI12
F21.444445
sI13
F27.222221
sI14
F-12.0
sI15
F-2.6666667
sI16
F14.666667
sI17
F27.222221
sI18
F0.3273826
sI19
F2.4538307
ssbsg15
g0
(g16
g2
Ntp3481
Rp3482
(dp3483
g15
I1
sbsba(ics475_types
Instance
p3484
(dp3485
g10
(ics475_types
FeatureVector
p3486
(dp3487
g13
(dp3488
I1
F223.0
sI2
F185.0
sI3
F9.0
sI6
F0.5
sI7
F0.34960312
sI8
F2.3888886
sI9
F2.0807757
sI10
F12.962963
sI11
F11.555555
sI12
F9.777778
sI13
F17.555555
sI14
F-4.2222223
sI15
F-9.555555
sI16
F13.777778
sI17
F17.555555
sI18
F0.44541803
sI19
F1.8388497
ssbsg15
g0
(g16
g2
Ntp3489
Rp3490
(dp3491
g15
I1
sbsba(ics475_types
Instance
p3492
(dp3493
g10
(ics475_types
FeatureVector
p3494
(dp3495
g13
(dp3496
I1
F2.0
sI2
F96.0
sI3
F9.0
sI6
F3.833333
sI7
F13.2777815
sI8
F2.3333333
sI9
F7.5111103
sI10
F5.2222223
sI11
F2.1111112
sI12
F9.777778
sI13
F3.7777777
sI14
F-9.333333
sI15
F13.666667
sI16
F-4.3333335
sI17
F9.777778
sI18
F0.82478386
sI19
F-2.3306925
ssbsg15
g0
(g16
g2
Ntp3497
Rp3498
(dp3499
g15
I0
sbsba(ics475_types
Instance
p3500
(dp3501
g10
(ics475_types
FeatureVector
p3502
(dp3503
g13
(dp3504
I1
F27.0
sI2
F248.0
sI3
F9.0
sI4
F0.11111111
sI6
F1.611111
sI7
F0.6469295
sI8
F3.1666667
sI9
F1.7224005
sI10
F15.296296
sI11
F14.777778
sI12
F12.888889
sI13
F18.222221
sI14
F-1.5555556
sI15
F-7.2222223
sI16
F8.777778
sI17
F18.222221
sI18
F0.31222734
sI19
F1.7835119
ssbsg15
g0
(g16
g2
Ntp3505
Rp3506
(dp3507
g15
I1
sbsba(ics475_types
Instance
p3508
(dp3509
g10
(ics475_types
FeatureVector
p3510
(dp3511
g13
(dp3512
I1
F58.0
sI2
F95.0
sI3
F9.0
sI6
F2.166667
sI7
F1.6333324
sI8
F1.9444445
sI9
F0.68518573
sI10
F4.4444447
sI11
F1.2222222
sI12
F9.0
sI13
F3.1111112
sI14
F-9.666667
sI15
F13.666667
sI16
F-4.0
sI17
F9.0
sI18
F0.8749174
sI19
F-2.3338044
ssbsg15
g0
(g16
g2
Ntp3513
Rp3514
(dp3515
g15
I0
sbsba(ics475_types
Instance
p3516
(dp3517
g10
(ics475_types
FeatureVector
p3518
(dp3519
g13
(dp3520
I1
F117.0
sI2
F110.0
sI3
F9.0
sI6
F2.3333333
sI7
F2.9059324
sI8
F2.277777
sI9
F1.9022408
sI10
F17.222221
sI11
F9.222222
sI12
F29.0
sI13
F13.444445
sI14
F-24.0
sI15
F35.333332
sI16
F-11.333333
sI17
F29.0
sI18
F0.6807869
sI19
F-2.321226
ssbsg15
g0
(g16
g2
Ntp3521
Rp3522
(dp3523
g15
I0
sbsba(ics475_types
Instance
p3524
(dp3525
g10
(ics475_types
FeatureVector
p3526
(dp3527
g13
(dp3528
I1
F89.0
sI2
F221.0
sI3
F9.0
sI6
F1.3888888
sI7
F1.4851848
sI8
F1.4444445
sI9
F1.5851862
sI10
F14.074074
sI11
F10.666667
sI12
F12.444445
sI13
F19.11111
sI14
F-10.222222
sI15
F-4.888889
sI16
F15.111111
sI17
F19.11111
sI18
F0.44601154
sI19
F2.3172119
ssbsg15
g0
(g16
g2
Ntp3529
Rp3530
(dp3531
g15
I1
sbsba(ics475_types
Instance
p3532
(dp3533
g10
(ics475_types
FeatureVector
p3534
(dp3535
g13
(dp3536
I1
F186.0
sI2
F173.0
sI3
F9.0
sI6
F1.4444445
sI7
F0.82963055
sI8
F2.1111114
sI9
F1.9851853
sI10
F17.148148
sI11
F13.555555
sI12
F15.555555
sI13
F22.333334
sI14
F-10.777778
sI15
F-4.7777777
sI16
F15.555555
sI17
F22.333334
sI18
F0.39643326
sI19
F2.332739
ssbsg15
g0
(g16
g2
Ntp3537
Rp3538
(dp3539
g15
I1
sbsba(ics475_types
Instance
p3540
(dp3541
g10
(ics475_types
FeatureVector
p3542
(dp3543
g13
(dp3544
I1
F153.0
sI2
F208.0
sI3
F9.0
sI6
F2.4444444
sI7
F2.429628
sI8
F1.9444442
sI9
F3.0851858
sI10
F16.851852
sI11
F13.0
sI12
F16.0
sI13
F21.555555
sI14
F-11.555555
sI15
F-2.5555556
sI16
F14.111111
sI17
F21.555555
sI18
F0.3969092
sI19
F2.4832914
ssbsg15
g0
(g16
g2
Ntp3545
Rp3546
(dp3547
g15
I1
sbsba(ics475_types
Instance
p3548
(dp3549
g10
(ics475_types
FeatureVector
p3550
(dp3551
g13
(dp3552
I1
F3.0
sI2
F91.0
sI3
F9.0
sI5
F0.11111111
sI6
F2.2222223
sI7
F5.051852
sI8
F1.0
sI9
F1.9555557
sI10
F5.6296296
sI11
F1.8888888
sI12
F10.666667
sI13
F4.3333335
sI14
F-11.222222
sI15
F15.111111
sI16
F-3.8888888
sI17
F10.666667
sI18
F0.82974845
sI19
F-2.3839493
ssbsg15
g0
(g16
g2
Ntp3553
Rp3554
(dp3555
g15
I0
sbsba(ics475_types
Instance
p3556
(dp3557
g10
(ics475_types
FeatureVector
p3558
(dp3559
g13
(dp3560
I1
F215.0
sI2
F235.0
sI3
F9.0
sI6
F1.388889
sI7
F1.06284
sI8
F1.0555557
sI9
F0.49065349
sI10
F9.185185
sI11
F6.7777777
sI12
F8.0
sI13
F12.777778
sI14
F-7.2222223
sI15
F-3.5555556
sI16
F10.777778
sI17
F12.777778
sI18
F0.48219234
sI19
F2.3107576
ssbsg15
g0
(g16
g2
Ntp3561
Rp3562
(dp3563
g15
I1
sbsba(ics475_types
Instance
p3564
(dp3565
g10
(ics475_types
FeatureVector
p3566
(dp3567
g13
(dp3568
I1
F52.0
sI2
F102.0
sI3
F9.0
sI6
F0.72222227
sI7
F0.50740725
sI8
F0.8333333
sI9
F0.5666668
sI10
F2.8888888
sI11
F0.6666667
sI12
F6.3333335
sI13
F1.6666666
sI14
F-6.6666665
sI15
F10.333333
sI16
F-3.6666667
sI17
F6.3333335
sI18
F0.89973545
sI19
F-2.2617195
ssbsg15
g0
(g16
g2
Ntp3569
Rp3570
(dp3571
g15
I0
sbsba(ics475_types
Instance
p3572
(dp3573
g10
(ics475_types
FeatureVector
p3574
(dp3575
g13
(dp3576
I1
F54.0
sI2
F138.0
sI3
F9.0
sI6
F0.22222221
sI7
F0.29629624
sI8
F0.38888893
sI9
F0.4185185
sI10
F0.25925925
sI12
F0.6666667
sI13
F0.11111111
sI14
F-0.7777778
sI15
F1.2222222
sI16
F-0.44444445
sI17
F0.6666667
sI18
F0.33333334
sI19
F-2.1814387
ssbsg15
g0
(g16
g2
Ntp3577
Rp3578
(dp3579
g15
I0
sbsba(ics475_types
Instance
p3580
(dp3581
g10
(ics475_types
FeatureVector
p3582
(dp3583
g13
(dp3584
I1
F127.0
sI2
F81.0
sI3
F9.0
sI6
F24.33333
sI7
F442.17786
sI8
F22.111109
sI9
F263.09634
sI10
F42.555557
sI11
F34.88889
sI12
F51.77778
sI13
F41.0
sI14
F-23.0
sI15
F27.666666
sI16
F-4.6666665
sI17
F51.77778
sI18
F0.3669463
sI19
F-2.476481
ssbsg15
g0
(g16
g2
Ntp3585
Rp3586
(dp3587
g15
I0
sbsba(ics475_types
Instance
p3588
(dp3589
g10
(ics475_types
FeatureVector
p3590
(dp3591
g13
(dp3592
I1
F26.0
sI2
F137.0
sI3
F9.0
sI6
F0.055555563
sI7
F0.018518524
sI8
F0.11111113
sI9
F0.029629637
sI10
F0.25925925
sI12
F0.7777778
sI14
F-0.7777778
sI15
F1.5555556
sI16
F-0.7777778
sI17
F0.7777778
sI18
F0.7777778
sI19
F-2.0943952
ssbsg15
g0
(g16
g2
Ntp3593
Rp3594
(dp3595
g15
I0
sbsba(ics475_types
Instance
p3596
(dp3597
g10
(ics475_types
FeatureVector
p3598
(dp3599
g13
(dp3600
I1
F118.0
sI2
F125.0
sI3
F9.0
sI6
F0.33333334
sI7
F0.29814234
sI8
F0.88888884
sI9
F0.34426528
sI10
F1.1481482
sI12
F3.1111112
sI13
F0.33333334
sI14
F-3.4444444
sI15
F5.888889
sI16
F-2.4444444
sI17
F3.1111112
sI18
F1.0
sI19
F-2.1756468
ssbsg15
g0
(g16
g2
Ntp3601
Rp3602
(dp3603
g15
I0
sbsba(ics475_types
Instance
p3604
(dp3605
g10
(ics475_types
FeatureVector
p3606
(dp3607
g13
(dp3608
I1
F204.0
sI2
F156.0
sI3
F9.0
sI6
F0.5000003
sI7
F0.27888626
sI8
F1.9999996
sI9
F0.55777323
sI10
F23.703703
sI11
F17.333334
sI12
F25.444445
sI13
F28.333334
sI14
F-19.11111
sI15
F5.2222223
sI16
F13.888889
sI17
F28.333334
sI18
F0.38903406
sI19
F2.8649306
ssbsg15
g0
(g16
g2
Ntp3609
Rp3610
(dp3611
g15
I1
sbsba(ics475_types
Instance
p3612
(dp3613
g10
(ics475_types
FeatureVector
p3614
(dp3615
g13
(dp3616
I1
F36.0
sI2
F243.0
sI3
F9.0
sI4
F0.11111111
sI6
F1.888889
sI7
F1.8518513
sI8
F2.0
sI9
F0.7111104
sI10
F13.333333
sI11
F9.888889
sI12
F12.111111
sI13
F18.0
sI14
F-10.333333
sI15
F-3.6666667
sI16
F14.0
sI17
F18.0
sI18
F0.4522286
sI19
F2.3683105
ssbsg15
g0
(g16
g2
Ntp3617
Rp3618
(dp3619
g15
I1
sbsba(ics475_types
Instance
p3620
(dp3621
g10
(ics475_types
FeatureVector
p3622
(dp3623
g13
(dp3624
I1
F241.0
sI2
F137.0
sI3
F9.0
sI5
F0.11111111
sI6
F4.277778
sI7
F18.685184
sI8
F3.8333333
sI9
F37.500004
sI10
F5.0
sI11
F2.5555556
sI12
F9.0
sI13
F3.4444444
sI14
F-7.3333335
sI15
F12.0
sI16
F-4.6666665
sI17
F9.0
sI18
F0.837478
sI19
F-2.1939669
ssbsg15
g0
(g16
g2
Ntp3625
Rp3626
(dp3627
g15
I0
sbsba(ics475_types
Instance
p3628
(dp3629
g10
(ics475_types
FeatureVector
p3630
(dp3631
g13
(dp3632
I1
F249.0
sI2
F207.0
sI3
F9.0
sI4
F0.22222222
sI6
F2.7222226
sI7
F0.9289574
sI8
F0.888889
sI9
F0.27216536
sI10
F12.148149
sI11
F9.555555
sI12
F10.333334
sI13
F16.555555
sI14
F-7.7777777
sI15
F-5.4444447
sI16
F13.222222
sI17
F16.555555
sI18
F0.43238926
sI19
F2.2172632
ssbsg15
g0
(g16
g2
Ntp3633
Rp3634
(dp3635
g15
I1
sbsba(ics475_types
Instance
p3636
(dp3637
g10
(ics475_types
FeatureVector
p3638
(dp3639
g13
(dp3640
I1
F57.0
sI2
F119.0
sI3
F9.0
sI6
F2.2777774
sI7
F2.0266733
sI8
F1.7777777
sI9
F1.721326
sI10
F20.592592
sI11
F12.222222
sI12
F33.666668
sI13
F15.888889
sI14
F-25.11111
sI15
F39.22222
sI16
F-14.111111
sI17
F33.666668
sI18
F0.6356236
sI19
F-2.2681484
ssbsg15
g0
(g16
g2
Ntp3641
Rp3642
(dp3643
g15
I0
sbsba(ics475_types
Instance
p3644
(dp3645
g10
(ics475_types
FeatureVector
p3646
(dp3647
g13
(dp3648
I1
F135.0
sI2
F211.0
sI3
F9.0
sI6
F1.8888885
sI7
F1.3277655
sI8
F2.1666663
sI9
F1.1498789
sI10
F17.962963
sI11
F14.444445
sI12
F16.333334
sI13
F23.11111
sI14
F-10.555555
sI15
F-4.888889
sI16
F15.444445
sI17
F23.11111
sI18
F0.37555233
sI19
F2.3275452
ssbsg15
g0
(g16
g2
Ntp3649
Rp3650
(dp3651
g15
I1
sbsba(ics475_types
Instance
p3652
(dp3653
g10
(ics475_types
FeatureVector
p3654
(dp3655
g13
(dp3656
I1
F2.0
sI2
F245.0
sI3
F9.0
sI6
F1.8888888
sI7
F2.162963
sI8
F3.1666667
sI9
F3.2777781
sI10
F6.4074073
sI11
F6.2222223
sI12
F6.0
sI13
F7.0
sI14
F-0.5555556
sI15
F-1.2222222
sI16
F1.7777778
sI17
F7.2222223
sI18
F0.19104938
sI19
F1.7566451
ssbsg15
g0
(g16
g2
Ntp3657
Rp3658
(dp3659
g15
I1
sbsba(ics475_types
Instance
p3660
(dp3661
g10
(ics475_types
FeatureVector
p3662
(dp3663
g13
(dp3664
I1
F70.0
sI2
F98.0
sI3
F9.0
sI4
F0.11111111
sI6
F1.2222221
sI7
F1.7185185
sI8
F1.7777777
sI9
F1.3185183
sI10
F4.6666665
sI11
F1.2222222
sI12
F9.222222
sI13
F3.5555556
sI14
F-10.333333
sI15
F13.666667
sI16
F-3.3333333
sI17
F9.222222
sI18
F0.89084005
sI19
F-2.3954217
ssbsg15
g0
(g16
g2
Ntp3665
Rp3666
(dp3667
g15
I0
sbsba(ics475_types
Instance
p3668
(dp3669
g10
(ics475_types
FeatureVector
p3670
(dp3671
g13
(dp3672
I1
F27.0
sI2
F112.0
sI3
F9.0
sI6
F0.22222222
sI7
F0.34426522
sI8
F0.11111113
sI9
F0.27216557
sI10
F0.14814815
sI12
F0.44444445
sI14
F-0.44444445
sI15
F0.8888889
sI16
F-0.44444445
sI17
F0.44444445
sI18
F0.22222222
sI19
F-2.0943952
ssbsg15
g0
(g16
g2
Ntp3673
Rp3674
(dp3675
g15
I0
sbsba(ics475_types
Instance
p3676
(dp3677
g10
(ics475_types
FeatureVector
p3678
(dp3679
g13
(dp3680
I1
F214.0
sI2
F79.0
sI3
F9.0
sI6
F1.2777778
sI7
F0.86296296
sI8
F1.3333334
sI9
F0.53333336
sI10
F4.851852
sI11
F2.0
sI12
F9.222222
sI13
F3.3333333
sI14
F-8.555555
sI15
F13.111111
sI16
F-4.5555553
sI17
F9.222222
sI18
F0.7916667
sI19
F-2.2889814
ssbsg15
g0
(g16
g2
Ntp3681
Rp3682
(dp3683
g15
I0
sbsba(ics475_types
Instance
p3684
(dp3685
g10
(ics475_types
FeatureVector
p3686
(dp3687
g13
(dp3688
I1
F103.0
sI2
F216.0
sI3
F9.0
sI6
F1.4999999
sI7
F0.56666666
sI8
F0.8333332
sI9
F1.1888888
sI10
F7.0740743
sI11
F5.111111
sI12
F5.0
sI13
F11.111111
sI14
F-5.888889
sI15
F-6.2222223
sI16
F12.111111
sI17
F11.111111
sI18
F0.59312356
sI19
F2.0792952
ssbsg15
g0
(g16
g2
Ntp3689
Rp3690
(dp3691
g15
I1
sbsba(ics475_types
Instance
p3692
(dp3693
g10
(ics475_types
FeatureVector
p3694
(dp3695
g13
(dp3696
I1
F137.0
sI2
F105.0
sI3
F9.0
sI5
F0.11111111
sI6
F10.722224
sI7
F16.507421
sI8
F31.222223
sI9
F650.42957
sI10
F42.851852
sI11
F35.77778
sI12
F52.666668
sI13
F40.11111
sI14
F-21.222221
sI15
F29.444445
sI16
F-8.222222
sI17
F52.666668
sI18
F0.37578005
sI19
F-2.380238
ssbsg15
g0
(g16
g2
Ntp3697
Rp3698
(dp3699
g15
I0
sbsba(ics475_types
Instance
p3700
(dp3701
g10
(ics475_types
FeatureVector
p3702
(dp3703
g13
(dp3704
I1
F139.0
sI2
F128.0
sI3
F9.0
sI6
F2.9444444
sI7
F7.8851867
sI8
F3.166667
sI9
F12.433335
sI10
F5.296296
sI11
F2.4444444
sI12
F9.555555
sI13
F3.8888888
sI14
F-8.555555
sI15
F12.777778
sI16
F-4.2222223
sI17
F9.555555
sI18
F0.8047243
sI19
F-2.3003678
ssbsg15
g0
(g16
g2
Ntp3705
Rp3706
(dp3707
g15
I0
sbsba(ics475_types
Instance
p3708
(dp3709
g10
(ics475_types
FeatureVector
p3710
(dp3711
g13
(dp3712
I1
F58.0
sI2
F217.0
sI3
F9.0
sI6
F1.3888888
sI7
F1.06284
sI8
F1.6666665
sI9
F1.3498971
sI10
F11.925926
sI11
F9.777778
sI12
F9.0
sI13
F17.0
sI14
F-6.4444447
sI15
F-8.777778
sI16
F15.222222
sI17
F17.0
sI18
F0.48659843
sI19
F2.0066419
ssbsg15
g0
(g16
g2
Ntp3713
Rp3714
(dp3715
g15
I1
sbsba(ics475_types
Instance
p3716
(dp3717
g10
(ics475_types
FeatureVector
p3718
(dp3719
g13
(dp3720
I1
F41.0
sI2
F77.0
sI3
F9.0
sI4
F0.11111111
sI6
F1.777778
sI7
F0.6518514
sI8
F1.611111
sI9
F1.5740745
sI10
F5.0
sI11
F1.2222222
sI12
F10.222222
sI13
F3.5555556
sI14
F-11.333333
sI15
F15.666667
sI16
F-4.3333335
sI17
F10.222222
sI18
F0.8916084
sI19
F-2.3548815
ssbsg15
g0
(g16
g2
Ntp3721
Rp3722
(dp3723
g15
I0
sbsba(ics475_types
Instance
p3724
(dp3725
g10
(ics475_types
FeatureVector
p3726
(dp3727
g13
(dp3728
I1
F114.0
sI2
F102.0
sI3
F9.0
sI6
F1.1111112
sI7
F1.2296298
sI8
F1.1666665
sI9
F0.877778
sI10
F4.037037
sI11
F1.0
sI12
F8.444445
sI13
F2.6666667
sI14
F-9.111111
sI15
F13.222222
sI16
F-4.111111
sI17
F8.444445
sI18
F0.8912177
sI19
F-2.3161116
ssbsg15
g0
(g16
g2
Ntp3729
Rp3730
(dp3731
g15
I0
sbsba(ics475_types
Instance
p3732
(dp3733
g10
(ics475_types
FeatureVector
p3734
(dp3735
g13
(dp3736
I1
F52.0
sI2
F170.0
sI3
F9.0
sI6
F0.55555564
sI7
F0.4554201
sI8
F0.94444436
sI9
F0.38968262
sI10
F25.444445
sI11
F20.11111
sI12
F25.333334
sI13
F30.88889
sI14
F-16.0
sI15
F-0.33333334
sI16
F16.333334
sI17
F30.88889
sI18
F0.34911168
sI19
F2.6040132
ssbsg15
g0
(g16
g2
Ntp3737
Rp3738
(dp3739
g15
I1
sbsba(ics475_types
Instance
p3740
(dp3741
g10
(ics475_types
FeatureVector
p3742
(dp3743
g13
(dp3744
I1
F82.0
sI2
F138.0
sI3
F9.0
sI6
F0.8888889
sI7
F0.51851845
sI8
F0.88888884
sI9
F0.3851853
sI10
F1.4074074
sI12
F3.7777777
sI13
F0.44444445
sI14
F-4.2222223
sI15
F7.111111
sI16
F-2.8888888
sI17
F3.7777777
sI18
F1.0
sI19
F-2.1739607
ssbsg15
g0
(g16
g2
Ntp3745
Rp3746
(dp3747
g15
I0
sbsba(ics475_types
Instance
p3748
(dp3749
g10
(ics475_types
FeatureVector
p3750
(dp3751
g13
(dp3752
I1
F67.0
sI2
F136.0
sI3
F9.0
sI6
F6.722223
sI7
F3.7083488
sI8
F2.6666667
sI9
F3.1972213
sI10
F15.518518
sI11
F9.0
sI12
F25.333334
sI13
F12.222222
sI14
F-19.555555
sI15
F29.444445
sI16
F-9.888889
sI17
F25.333334
sI18
F0.66081303
sI19
F-2.3075109
ssbsg15
g0
(g16
g2
Ntp3753
Rp3754
(dp3755
g15
I0
sbsba(ics475_types
Instance
p3756
(dp3757
g10
(ics475_types
FeatureVector
p3758
(dp3759
g13
(dp3760
I1
F101.0
sI2
F137.0
sI3
F9.0
sI6
F0.44444445
sI7
F0.50184834
sI8
F0.8333333
sI9
F0.8096638
sI10
F1.1481482
sI11
F0.22222222
sI12
F2.6666667
sI13
F0.5555556
sI14
F-2.7777777
sI15
F4.5555553
sI16
F-1.7777778
sI17
F2.6666667
sI18
F0.95
sI19
F-2.2005885
ssbsg15
g0
(g16
g2
Ntp3761
Rp3762
(dp3763
g15
I0
sbsba(ics475_types
Instance
p3764
(dp3765
g10
(ics475_types
FeatureVector
p3766
(dp3767
g13
(dp3768
I1
F30.0
sI2
F91.0
sI3
F9.0
sI6
F3.3888886
sI7
F6.4629617
sI8
F3.277778
sI9
F9.040739
sI10
F6.259259
sI11
F2.4444444
sI12
F12.111111
sI13
F4.2222223
sI14
F-11.444445
sI15
F17.555555
sI16
F-6.111111
sI17
F12.111111
sI18
F0.82302064
sI19
F-2.2827444
ssbsg15
g0
(g16
g2
Ntp3769
Rp3770
(dp3771
g15
I0
sbsba(ics475_types
Instance
p3772
(dp3773
g10
(ics475_types
FeatureVector
p3774
(dp3775
g13
(dp3776
I1
F54.0
sI2
F91.0
sI3
F9.0
sI6
F1.4444443
sI7
F1.540741
sI8
F0.8333333
sI9
F0.25555572
sI10
F3.2592592
sI11
F0.5555556
sI12
F8.0
sI13
F1.2222222
sI14
F-8.111111
sI15
F14.222222
sI16
F-6.111111
sI17
F8.0
sI18
F0.94481075
sI19
F-2.186723
ssbsg15
g0
(g16
g2
Ntp3777
Rp3778
(dp3779
g15
I0
sbsba(ics475_types
Instance
p3780
(dp3781
g10
(ics475_types
FeatureVector
p3782
(dp3783
g13
(dp3784
I1
F122.0
sI2
F123.0
sI3
F9.0
sI6
F0.6111111
sI7
F0.374074
sI8
F0.49999997
sI9
F0.21111104
sI10
F1.1851852
sI12
F3.3333333
sI13
F0.22222222
sI14
F-3.5555556
sI15
F6.4444447
sI16
F-2.8888888
sI17
F3.3333333
sI18
F1.0
sI19
F-2.142674
ssbsg15
g0
(g16
g2
Ntp3785
Rp3786
(dp3787
g15
I0
sbsba(ics475_types
Instance
p3788
(dp3789
g10
(ics475_types
FeatureVector
p3790
(dp3791
g13
(dp3792
I1
F69.0
sI2
F136.0
sI3
F9.0
sI6
F3.1111114
sI7
F2.8100348
sI8
F2.777778
sI9
F3.1669588
sI10
F19.444445
sI11
F16.88889
sI12
F25.777779
sI13
F15.666667
sI14
F-7.6666665
sI15
F19.0
sI16
F-11.333333
sI17
F26.666666
sI18
F0.42529303
sI19
F-1.6157203
ssbsg15
g0
(g16
g2
Ntp3793
Rp3794
(dp3795
g15
I0
sbsba(ics475_types
Instance
p3796
(dp3797
g10
(ics475_types
FeatureVector
p3798
(dp3799
g13
(dp3800
I1
F97.0
sI2
F176.0
sI3
F9.0
sI6
F0.77777797
sI7
F0.6554612
sI8
F2.3888893
sI9
F1.3066785
sI10
F22.185184
sI11
F19.0
sI12
F19.777779
sI13
F27.777779
sI14
F-9.555555
sI15
F-7.2222223
sI16
F16.777779
sI17
F27.777779
sI18
F0.31604066
sI19
F2.1798449
ssbsg15
g0
(g16
g2
Ntp3801
Rp3802
(dp3803
g15
I1
sbsba(ics475_types
Instance
p3804
(dp3805
g10
(ics475_types
FeatureVector
p3806
(dp3807
g13
(dp3808
I1
F94.0
sI2
F144.0
sI3
F9.0
sI6
F0.44444442
sI7
F0.118518494
sI8
F0.49999997
sI9
F0.1666667
sI10
F1.1481482
sI12
F3.4444444
sI14
F-3.4444444
sI15
F6.888889
sI16
F-3.4444444
sI17
F3.4444444
sI18
F1.0
sI19
F-2.0943952
ssbsg15
g0
(g16
g2
Ntp3809
Rp3810
(dp3811
g15
I0
sbsba(ics475_types
Instance
p3812
(dp3813
g10
(ics475_types
FeatureVector
p3814
(dp3815
g13
(dp3816
I1
F108.0
sI2
F212.0
sI3
F9.0
sI6
F1.9999999
sI7
F1.4222214
sI8
F1.5555555
sI9
F1.985185
sI10
F8.037037
sI11
F6.0
sI12
F6.7777777
sI13
F11.333333
sI14
F-6.111111
sI15
F-3.7777777
sI16
F9.888889
sI17
F11.333333
sI18
F0.51339465
sI19
F2.2426493
ssbsg15
g0
(g16
g2
Ntp3817
Rp3818
(dp3819
g15
I1
sbsba(ics475_types
Instance
p3820
(dp3821
g10
(ics475_types
FeatureVector
p3822
(dp3823
g13
(dp3824
I1
F117.0
sI2
F246.0
sI3
F9.0
sI6
F2.277778
sI7
F5.6185174
sI8
F2.6666665
sI9
F5.866666
sI10
F15.444445
sI11
F12.0
sI12
F14.333333
sI13
F20.0
sI14
F-10.333333
sI15
F-3.3333333
sI16
F13.666667
sI17
F20.0
sI18
F0.3959547
sI19
F2.395692
ssbsg15
g0
(g16
g2
Ntp3825
Rp3826
(dp3827
g15
I1
sbsba(ics475_types
Instance
p3828
(dp3829
g10
(ics475_types
FeatureVector
p3830
(dp3831
g13
(dp3832
I1
F107.0
sI2
F226.0
sI3
F9.0
sI6
F1.5555557
sI7
F3.0962965
sI8
F3.5555556
sI9
F2.5629618
sI10
F7.851852
sI11
F5.7777777
sI12
F6.5555553
sI13
F11.222222
sI14
F-6.2222223
sI15
F-3.8888888
sI16
F10.111111
sI17
F11.222222
sI18
F0.5268813
sI19
F2.2593977
ssbsg15
g0
(g16
g2
Ntp3833
Rp3834
(dp3835
g15
I1
sbsba(ics475_types
Instance
p3836
(dp3837
g10
(ics475_types
FeatureVector
p3838
(dp3839
g13
(dp3840
I1
F103.0
sI2
F130.0
sI3
F9.0
sI6
F0.33333334
sI8
F0.27777776
sI9
F0.38968173
sI10
F0.7777778
sI12
F2.3333335
sI14
F-2.3333333
sI15
F4.6666665
sI16
F-2.3333333
sI17
F2.3333335
sI18
F1.0
sI19
F-2.0943952
ssbsg15
g0
(g16
g2
Ntp3841
Rp3842
(dp3843
g15
I0
sbsba(ics475_types
Instance
p3844
(dp3845
g10
(ics475_types
FeatureVector
p3846
(dp3847
g13
(dp3848
I1
F58.0
sI2
F124.0
sI3
F9.0
sI4
F0.11111111
sI6
F1.111111
sI7
F1.140741
sI8
F0.5555556
sI9
F0.47407404
sI10
F1.1481482
sI11
F0.11111111
sI12
F2.7777777
sI13
F0.5555556
sI14
F-3.1111112
sI15
F4.888889
sI16
F-1.7777778
sI17
F2.7777777
sI18
F0.984127
sI19
F-2.1812904
ssbsg15
g0
(g16
g2
Ntp3849
Rp3850
(dp3851
g15
I0
sbsba(ics475_types
Instance
p3852
(dp3853
g10
(ics475_types
FeatureVector
p3854
(dp3855
g13
(dp3856
I1
F230.0
sI2
F180.0
sI3
F9.0
sI4
F0.11111111
sI6
F1.1111112
sI7
F0.5185183
sI8
F1.9444443
sI9
F1.2629623
sI10
F13.851851
sI11
F9.666667
sI12
F13.111111
sI13
F18.777779
sI14
F-12.555555
sI15
F-2.2222223
sI16
F14.777778
sI17
F18.777779
sI18
F0.48688295
sI19
F2.4879174
ssbsg15
g0
(g16
g2
Ntp3857
Rp3858
(dp3859
g15
I1
sbsba(ics475_types
Instance
p3860
(dp3861
g10
(ics475_types
FeatureVector
p3862
(dp3863
g13
(dp3864
I1
F68.0
sI2
F107.0
sI3
F9.0
sI4
F0.11111111
sI6
F1.111111
sI7
F3.1407404
sI8
F1.111111
sI9
F2.5629632
sI10
F1.7777778
sI11
F0.22222222
sI12
F4.5555553
sI13
F0.5555556
sI14
F-4.6666665
sI15
F8.333333
sI16
F-3.6666667
sI17
F4.5555553
sI18
F0.9814815
sI19
F-2.146531
ssbsg15
g0
(g16
g2
Ntp3865
Rp3866
(dp3867
g15
I0
sbsba(ics475_types
Instance
p3868
(dp3869
g10
(ics475_types
FeatureVector
p3870
(dp3871
g13
(dp3872
I1
F90.0
sI2
F116.0
sI3
F9.0
sI6
F1.277778
sI7
F0.85418403
sI8
F1.3333336
sI9
F1.1352925
sI10
F18.74074
sI11
F11.777778
sI12
F29.555555
sI13
F14.888889
sI14
F-20.88889
sI15
F32.444443
sI16
F-11.555555
sI17
F29.555555
sI18
F0.5961039
sI19
F-2.2599666
ssbsg15
g0
(g16
g2
Ntp3873
Rp3874
(dp3875
g15
I0
sbsba(ics475_types
Instance
p3876
(dp3877
g10
(ics475_types
FeatureVector
p3878
(dp3879
g13
(dp3880
I1
F17.0
sI2
F124.0
sI3
F9.0
sI6
F1.1666666
sI7
F0.6111112
sI8
F1.4444445
sI9
F0.7851852
sI10
F1.1481482
sI11
F0.22222222
sI12
F2.6666667
sI13
F0.5555556
sI14
F-2.7777777
sI15
F4.5555553
sI16
F-1.7777778
sI17
F2.6666667
sI18
F0.9537037
sI19
F-2.1692097
ssbsg15
g0
(g16
g2
Ntp3881
Rp3882
(dp3883
g15
I0
sbsba(ics475_types
Instance
p3884
(dp3885
g10
(ics475_types
FeatureVector
p3886
(dp3887
g13
(dp3888
I1
F42.0
sI2
F200.0
sI3
F9.0
sI6
F0.5555555
sI7
F0.4296296
sI8
F0.44444433
sI9
F0.25185174
sI10
F7.703704
sI11
F5.7777777
sI12
F5.888889
sI13
F11.444445
sI14
F-5.7777777
sI15
F-5.4444447
sI16
F11.222222
sI17
F11.444445
sI18
F0.5153199
sI19
F2.10726
ssbsg15
g0
(g16
g2
Ntp3889
Rp3890
(dp3891
g15
I1
sbsba(ics475_types
Instance
p3892
(dp3893
g10
(ics475_types
FeatureVector
p3894
(dp3895
g13
(dp3896
I1
F75.0
sI2
F131.0
sI3
F9.0
sI6
F0.22222222
sI7
F0.029629637
sI8
F0.33333334
sI9
F0.04444442
sI10
F0.5185185
sI12
F1.5555556
sI14
F-1.5555556
sI15
F3.1111112
sI16
F-1.5555556
sI17
F1.5555556
sI18
F1.0
sI19
F-2.0943952
ssbsg15
g0
(g16
g2
Ntp3897
Rp3898
(dp3899
g15
I0
sbsba(ics475_types
Instance
p3900
(dp3901
g10
(ics475_types
FeatureVector
p3902
(dp3903
g13
(dp3904
I1
F145.0
sI2
F152.0
sI3
F9.0
sI6
F0.72222203
sI7
F1.1434193
sI8
F2.7777774
sI9
F1.1088861
sI10
F25.037037
sI11
F19.666668
sI12
F25.777779
sI13
F29.666666
sI14
F-16.11111
sI15
F2.2222223
sI16
F13.888889
sI17
F29.666666
sI18
F0.337989
sI19
F2.7311342
ssbsg15
g0
(g16
g2
Ntp3905
Rp3906
(dp3907
g15
I1
sbsba(ics475_types
Instance
p3908
(dp3909
g10
(ics475_types
FeatureVector
p3910
(dp3911
g13
(dp3912
I1
F99.0
sI2
F132.0
sI3
F9.0
sI6
F0.44444442
sI7
F0.3851853
sI8
F0.5555555
sI9
F0.7851854
sI10
F0.7407407
sI11
F0.11111111
sI12
F2.0
sI13
F0.11111111
sI14
F-1.8888888
sI15
F3.7777777
sI16
F-1.8888888
sI17
F2.0
sI18
F0.9814815
sI19
F-2.0943952
ssbsg15
g0
(g16
g2
Ntp3913
Rp3914
(dp3915
g15
I0
sbsba(ics475_types
Instance
p3916
(dp3917
g10
(ics475_types
FeatureVector
p3918
(dp3919
g13
(dp3920
I1
F206.0
sI2
F233.0
sI3
F9.0
sI6
F1.388889
sI7
F1.5408032
sI8
F1.7222227
sI9
F0.82775885
sI10
F26.814816
sI11
F21.88889
sI12
F25.11111
sI13
F33.444447
sI14
F-14.777778
sI15
F-5.111111
sI16
F19.88889
sI17
F33.444447
sI18
F0.34575516
sI19
F2.3893497
ssbsg15
g0
(g16
g2
Ntp3921
Rp3922
(dp3923
g15
I1
sbsba(ics475_types
Instance
p3924
(dp3925
g10
(ics475_types
FeatureVector
p3926
(dp3927
g13
(dp3928
I1
F23.0
sI2
F219.0
sI3
F9.0
sI6
F1.4999999
sI7
F1.0055401
sI8
F1.7222223
sI9
F0.9289575
sI10
F13.37037
sI11
F10.888889
sI12
F12.0
sI13
F17.222223
sI14
F-7.4444447
sI15
F-4.111111
sI16
F11.555555
sI17
F17.222223
sI18
F0.37191358
sI19
F2.2553325
ssbsg15
g0
(g16
g2
Ntp3929
Rp3930
(dp3931
g15
I1
sbsba(ics475_types
Instance
p3932
(dp3933
g10
(ics475_types
FeatureVector
p3934
(dp3935
g13
(dp3936
I1
F40.0
sI2
F95.0
sI3
F9.0
sI5
F0.11111111
sI6
F1.2777778
sI7
F1.5740741
sI8
F1.6111112
sI9
F1.2185184
sI10
F4.6296296
sI11
F1.0
sI12
F9.222222
sI13
F3.6666667
sI14
F-10.888889
sI15
F13.777778
sI16
F-2.8888888
sI17
F9.222222
sI18
F0.90709877
sI19
F-2.4294486
ssbsg15
g0
(g16
g2
Ntp3937
Rp3938
(dp3939
g15
I0
sbsba(ics475_types
Instance
p3940
(dp3941
g10
(ics475_types
FeatureVector
p3942
(dp3943
g13
(dp3944
I1
F37.0
sI2
F103.0
sI3
F9.0
sI6
F1.7777777
sI7
F2.1256804
sI8
F2.9444447
sI9
F3.421609
sI10
F3.851852
sI11
F1.8888888
sI12
F6.2222223
sI13
F3.4444444
sI14
F-5.888889
sI15
F7.111111
sI16
F-1.2222222
sI17
F6.2222223
sI18
F0.79907405
sI19
F-2.497929
ssbsg15
g0
(g16
g2
Ntp3945
Rp3946
(dp3947
g15
I0
sbsba(ics475_types
Instance
p3948
(dp3949
g10
(ics475_types
FeatureVector
p3950
(dp3951
g13
(dp3952
I1
F14.0
sI2
F90.0
sI3
F9.0
sI4
F0.11111111
sI6
F2.9444447
sI7
F2.435083
sI8
F3.3333333
sI9
F3.211092
sI10
F5.0
sI11
F2.5555556
sI12
F7.3333335
sI13
F5.111111
sI14
F-7.3333335
sI15
F7.0
sI16
F0.33333334
sI17
F7.3333335
sI18
F0.7252886
sI19
F-2.6393893
ssbsg15
g0
(g16
g2
Ntp3953
Rp3954
(dp3955
g15
I0
sbsba(ics475_types
Instance
p3956
(dp3957
g10
(ics475_types
FeatureVector
p3958
(dp3959
g13
(dp3960
I1
F48.0
sI2
F83.0
sI3
F9.0
sI6
F2.277778
sI7
F4.0185175
sI8
F2.3333333
sI9
F1.6888885
sI10
F6.259259
sI11
F2.2222223
sI12
F11.888889
sI13
F4.666667
sI14
F-12.111111
sI15
F16.88889
sI16
F-4.7777777
sI17
F11.888889
sI18
F0.82735026
sI19
F-2.3450046
ssbsg15
g0
(g16
g2
Ntp3961
Rp3962
(dp3963
g15
I0
sbsba(ics475_types
Instance
p3964
(dp3965
g10
(ics475_types
FeatureVector
p3966
(dp3967
g13
(dp3968
I1
F55.0
sI2
F80.0
sI3
F9.0
sI4
F0.11111111
sI6
F1.833333
sI7
F4.3
sI8
F1.8333334
sI9
F1.0999995
sI10
F7.0740743
sI11
F2.8888888
sI12
F12.444445
sI13
F5.888889
sI14
F-12.555555
sI15
F16.11111
sI16
F-3.5555556
sI17
F12.444445
sI18
F0.77528197
sI19
F-2.4175172
ssbsg15
g0
(g16
g2
Ntp3969
Rp3970
(dp3971
g15
I0
sbsba(ics475_types
Instance
p3972
(dp3973
g10
(ics475_types
FeatureVector
p3974
(dp3975
g13
(dp3976
I1
F164.0
sI2
F178.0
sI3
F9.0
sI4
F0.22222222
sI6
F1.3888887
sI7
F0.86296487
sI8
F2.5000002
sI9
F1.4555563
sI10
F23.814816
sI11
F20.222221
sI12
F21.11111
sI13
F30.11111
sI14
F-10.777778
sI15
F-8.111111
sI16
F18.88889
sI17
F30.11111
sI18
F0.32921228
sI19
F2.1903052
ssbsg15
g0
(g16
g2
Ntp3977
Rp3978
(dp3979
g15
I1
sbsba(ics475_types
Instance
p3980
(dp3981
g10
(ics475_types
FeatureVector
p3982
(dp3983
g13
(dp3984
I1
F138.0
sI2
F203.0
sI3
F9.0
sI6
F1.666667
sI7
F1.6465453
sI8
F2.2777781
sI9
F1.8787308
sI10
F11.259259
sI11
F8.777778
sI12
F8.111112
sI13
F16.88889
sI14
F-7.4444447
sI15
F-9.444445
sI16
F16.88889
sI17
F16.88889
sI18
F0.53894526
sI19
F2.019747
ssbsg15
g0
(g16
g2
Ntp3985
Rp3986
(dp3987
g15
I1
sbsba(ics475_types
Instance
p3988
(dp3989
g10
(ics475_types
FeatureVector
p3990
(dp3991
g13
(dp3992
I1
F47.0
sI2
F215.0
sI3
F9.0
sI6
F3.1111114
sI7
F1.7847089
sI8
F3.3888893
sI9
F2.4075494
sI10
F17.185184
sI11
F14.444445
sI12
F15.666667
sI13
F21.444445
sI14
F-8.222222
sI15
F-4.5555553
sI16
F12.777778
sI17
F21.444445
sI18
F0.34176603
sI19
F2.2660944
ssbsg15
g0
(g16
g2
Ntp3993
Rp3994
(dp3995
g15
I1
sbsba(ics475_types
Instance
p3996
(dp3997
g10
(ics475_types
FeatureVector
p3998
(dp3999
g13
(dp4000
I1
F33.0
sI2
F132.0
sI3
F9.0
sI4
F0.11111111
sI6
F1.0555555
sI7
F0.99814653
sI8
F1.7222222
sI9
F0.99814636
sI10
F1.962963
sI11
F0.6666667
sI12
F4.2222223
sI13
F1.0
sI14
F-3.8888888
sI15
F6.7777777
sI16
F-2.8888888
sI17
F4.2222223
sI18
F0.6768879
sI19
F-2.1524317
ssbsg15
g0
(g16
g2
Ntp4001
Rp4002
(dp4003
g15
I0
sbsba(ics475_types
Instance
p4004
(dp4005
g10
(ics475_types
FeatureVector
p4006
(dp4007
g13
(dp4008
I1
F233.0
sI2
F211.0
sI3
F9.0
sI4
F0.11111111
sI6
F2.6666667
sI7
F6.0888896
sI8
F1.6666666
sI9
F1.7333333
sI10
F15.444445
sI11
F12.444445
sI12
F15.222222
sI13
F18.666668
sI14
F-9.0
sI15
F-0.6666667
sI16
F9.666667
sI17
F18.666668
sI18
F0.33542147
sI19
F2.5549645
ssbsg15
g0
(g16
g2
Ntp4009
Rp4010
(dp4011
g15
I1
sbsbasS'k'
p4012
I5
sS'possibility'
p4013
(dp4014
I1
I1
sI2
I1
sI3
I1
sI4
I1
sI5
I1
sI6
I1
sI7
I1
sI8
I1
sI9
I1
sI10
I1
sI11
I1
sI12
I1
sI13
I1
sI14
I1
sI15
I1
sI16
I1
sI17
I1
sI18
I1
sI19
I1
ssb.