ccopy_reg
_reconstructor
p0
(cadaboost
ADABOOST
p1
c__builtin__
object
p2
Ntp3
Rp4
(dp5
S'alpha'
p6
(lp7
I1
aI0
asS'D'
p8
(lp9
F0.002
aF0.002
aF0.002
aF0.002
aF0.002
aF0.002
aF0.002
aF0.002
aF0.002
aF0.002
aF0.002
aF0.002
aF0.002
aF0.002
aF0.002
aF0.002
aF0.002
aF0.002
aF0.002
aF0.002
aF0.002
aF0.002
aF0.002
aF0.002
aF0.002
aF0.002
aF0.002
aF0.002
aF0.002
aF0.002
aF0.002
aF0.002
aF0.002
aF0.002
aF0.002
aF0.002
aF0.002
aF0.002
aF0.002
aF0.002
aF0.002
aF0.002
aF0.002
aF0.002
aF0.002
aF0.002
aF0.002
aF0.002
aF0.002
aF0.002
aF0.002
aF0.002
aF0.002
aF0.002
aF0.002
aF0.002
aF0.002
aF0.002
aF0.002
aF0.002
aF0.002
aF0.002
aF0.002
aF0.002
aF0.002
aF0.002
aF0.002
aF0.002
aF0.002
aF0.002
aF0.002
aF0.002
aF0.002
aF0.002
aF0.002
aF0.002
aF0.002
aF0.002
aF0.002
aF0.002
aF0.002
aF0.002
aF0.002
aF0.002
aF0.002
aF0.002
aF0.002
aF0.002
aF0.002
aF0.002
aF0.002
aF0.002
aF0.002
aF0.002
aF0.002
aF0.002
aF0.002
aF0.002
aF0.002
aF0.002
aF0.002
aF0.002
aF0.002
aF0.002
aF0.002
aF0.002
aF0.002
aF0.002
aF0.002
aF0.002
aF0.002
aF0.002
aF0.002
aF0.002
aF0.002
aF0.002
aF0.002
aF0.002
aF0.002
aF0.002
aF0.002
aF0.002
aF0.002
aF0.002
aF0.002
aF0.002
aF0.002
aF0.002
aF0.002
aF0.002
aF0.002
aF0.002
aF0.002
aF0.002
aF0.002
aF0.002
aF0.002
aF0.002
aF0.002
aF0.002
aF0.002
aF0.002
aF0.002
aF0.002
aF0.002
aF0.002
aF0.002
aF0.002
aF0.002
aF0.002
aF0.002
aF0.002
aF0.002
aF0.002
aF0.002
aF0.002
aF0.002
aF0.002
aF0.002
aF0.002
aF0.002
aF0.002
aF0.002
aF0.002
aF0.002
aF0.002
aF0.002
aF0.002
aF0.002
aF0.002
aF0.002
aF0.002
aF0.002
aF0.002
aF0.002
aF0.002
aF0.002
aF0.002
aF0.002
aF0.002
aF0.002
aF0.002
aF0.002
aF0.002
aF0.002
aF0.002
aF0.002
aF0.002
aF0.002
aF0.002
aF0.002
aF0.002
aF0.002
aF0.002
aF0.002
aF0.002
aF0.002
aF0.002
aF0.002
aF0.002
aF0.002
aF0.002
aF0.002
aF0.002
aF0.002
aF0.002
aF0.002
aF0.002
aF0.002
aF0.002
aF0.002
aF0.002
aF0.002
aF0.002
aF0.002
aF0.002
aF0.002
aF0.002
aF0.002
aF0.002
aF0.002
aF0.002
aF0.002
aF0.002
aF0.002
aF0.002
aF0.002
aF0.002
aF0.002
aF0.002
aF0.002
aF0.002
aF0.002
aF0.002
aF0.002
aF0.002
aF0.002
aF0.002
aF0.002
aF0.002
aF0.002
aF0.002
aF0.002
aF0.002
aF0.002
aF0.002
aF0.002
aF0.002
aF0.002
aF0.002
aF0.002
aF0.002
aF0.002
aF0.002
aF0.002
aF0.002
aF0.002
aF0.002
aF0.002
aF0.002
aF0.002
aF0.002
aF0.002
aF0.002
aF0.002
aF0.002
aF0.002
aF0.002
aF0.002
aF0.002
aF0.002
aF0.002
aF0.002
aF0.002
aF0.002
aF0.002
aF0.002
aF0.002
aF0.002
aF0.002
aF0.002
aF0.002
aF0.002
aF0.002
aF0.002
aF0.002
aF0.002
aF0.002
aF0.002
aF0.002
aF0.002
aF0.002
aF0.002
aF0.002
aF0.002
aF0.002
aF0.002
aF0.002
aF0.002
aF0.002
aF0.002
aF0.002
aF0.002
aF0.002
aF0.002
aF0.002
aF0.002
aF0.002
aF0.002
aF0.002
aF0.002
aF0.002
aF0.002
aF0.002
aF0.002
aF0.002
aF0.002
aF0.002
aF0.002
aF0.002
aF0.002
aF0.002
aF0.002
aF0.002
aF0.002
aF0.002
aF0.002
aF0.002
aF0.002
aF0.002
aF0.002
aF0.002
aF0.002
aF0.002
aF0.002
aF0.002
aF0.002
aF0.002
aF0.002
aF0.002
aF0.002
aF0.002
aF0.002
aF0.002
aF0.002
aF0.002
aF0.002
aF0.002
aF0.002
aF0.002
aF0.002
aF0.002
aF0.002
aF0.002
aF0.002
aF0.002
aF0.002
aF0.002
aF0.002
aF0.002
aF0.002
aF0.002
aF0.002
aF0.002
aF0.002
aF0.002
aF0.002
aF0.002
aF0.002
aF0.002
aF0.002
aF0.002
aF0.002
aF0.002
aF0.002
aF0.002
aF0.002
aF0.002
aF0.002
aF0.002
aF0.002
aF0.002
aF0.002
aF0.002
aF0.002
aF0.002
aF0.002
aF0.002
aF0.002
aF0.002
aF0.002
aF0.002
aF0.002
aF0.002
aF0.002
aF0.002
aF0.002
aF0.002
aF0.002
aF0.002
aF0.002
aF0.002
aF0.002
aF0.002
aF0.002
aF0.002
aF0.002
aF0.002
aF0.002
aF0.002
aF0.002
aF0.002
aF0.002
aF0.002
aF0.002
aF0.002
aF0.002
aF0.002
aF0.002
aF0.002
aF0.002
aF0.002
aF0.002
aF0.002
aF0.002
aF0.002
aF0.002
aF0.002
aF0.002
aF0.002
aF0.002
aF0.002
aF0.002
aF0.002
aF0.002
aF0.002
aF0.002
aF0.002
aF0.002
aF0.002
aF0.002
aF0.002
aF0.002
aF0.002
aF0.002
aF0.002
aF0.002
aF0.002
aF0.002
aF0.002
aF0.002
aF0.002
aF0.002
aF0.002
aF0.002
aF0.002
aF0.002
aF0.002
aF0.002
aF0.002
aF0.002
aF0.002
aF0.002
aF0.002
aF0.002
aF0.002
aF0.002
aF0.002
aF0.002
aF0.002
aF0.002
aF0.002
aF0.002
aF0.002
aF0.002
aF0.002
aF0.002
aF0.002
aF0.002
aF0.002
aF0.002
aF0.002
aF0.002
aF0.002
aF0.002
aF0.002
aF0.002
aF0.002
aF0.002
aF0.002
aF0.002
aF0.002
aF0.002
aF0.002
aF0.002
aF0.002
aF0.002
aF0.002
aF0.002
aF0.002
asS'H'
p10
(lp11
(I2
I1
I-1
F147.5
I0
tp12
asS'T'
p13
I2
sb.