ccopy_reg
_reconstructor
p0
(cperceptron
Margin_Perceptron
p1
c__builtin__
object
p2
Ntp3
Rp4
(dp5
S'I'
p6
I5
sS'rate'
p7
F1.0
sS'weights'
p8
(dp9
I3
F-145.0
sI4
F-20.0
sI5
F-9.0
sI6
F-117.0
sI7
F30.0
sI8
F-179.0
sI9
F11.0
sI10
F122.0
sI11
F-11.0
sI12
F48.0
sI13
F65.0
sI14
F-27.0
sI15
F-6.0
sI16
F-34.33999999999993
sI17
F-18.85000000000001
sI18
F53.58000000000004
sI19
F-68.24000000000001
sI20
F-5.88000000000001
sI21
F-41.339999999999975
sI22
F-165.0
sI23
F-1.0
sI24
F-166.0
sI25
F1.0
sI26
F-9.0
sI27
F-50.0
sI28
F103.0
sI29
F53.0
sI30
F-58.0
sI31
F54.0
sI32
F-44.58999999999992
sI33
F136.86999999999995
sI34
F9.100000000000023
sI35
F-22.30000000000001
sI36
F14.419999999999959
sI37
F-68.6
sI38
F23.030000000000026
sI39
F20.0
sI40
F-41.0
sI41
F-84.0
sI42
F-32.0
ssb.