ccopy_reg
_reconstructor
p0
(cperceptron
Margin_Perceptron
p1
c__builtin__
object
p2
Ntp3
Rp4
(dp5
S'I'
p6
I5
sS'rate'
p7
F1.0
sS'weights'
p8
(dp9
I3
F-54.0
sI4
F-59.0
sI5
F-21.0
sI6
F-91.0
sI7
F-38.0
sI8
F-217.0
sI9
F89.0
sI10
F12.0
sI11
F36.0
sI12
F21.0
sI13
F109.0
sI14
F-15.0
sI15
F-8.0
sI16
F-75.72999999999999
sI17
F-25.980000000000018
sI18
F2.7000000000000455
sI19
F-74.26
sI20
F69.52999999999996
sI21
F-16.25999999999999
sI22
F-137.0
sI23
F-142.0
sI24
F-179.0
sI25
F69.0
sI26
F-22.0
sI27
F59.0
sI28
F34.0
sI29
F46.0
sI30
F-166.0
sI31
F90.0
sI32
F20.29000000000005
sI33
F48.289999999999964
sI34
F70.87999999999997
sI35
F-42.23999999999995
sI36
F23.47999999999999
sI37
F-30.979999999999933
sI38
F26.8800000000001
sI39
F-16.0
sI40
F18.0
sI41
F4.0
sI42
F-12.0
ssb.