ccopy_reg
_reconstructor
p0
(cperceptron
Margin_Perceptron
p1
c__builtin__
object
p2
Ntp3
Rp4
(dp5
S'I'
p6
I5
sS'rate'
p7
F1.0
sS'weights'
p8
(dp9
I3
F89.0
sI4
F-36.0
sI5
F-1.0
sI6
F-112.0
sI7
F-7.0
sI8
F-151.0
sI9
F43.0
sI10
F35.0
sI11
F-37.0
sI12
F27.0
sI13
F44.0
sI14
F-44.0
sI15
F-34.0
sI16
F4.749999999999986
sI17
F59.879999999999995
sI18
F70.84000000000003
sI19
F-81.24
sI20
F-5.57
sI21
F46.31999999999999
sI22
F-48.0
sI23
F-50.0
sI24
F-136.0
sI25
F54.0
sI26
F-31.0
sI27
F-45.0
sI28
F21.0
sI29
F-10.0
sI30
F-139.0
sI31
F59.0
sI32
F-29.849999999999824
sI33
F30.139999999999986
sI34
F7.1500000000000625
sI35
F-45.28999999999999
sI36
F37.85999999999996
sI37
F14.849999999999994
sI38
F12.099999999999946
sI39
F15.0
sI40
F-79.0
sI41
F-41.0
sI42
F-3.0
ssb.