ccopy_reg
_reconstructor
p0
(cperceptron
Margin_Perceptron
p1
c__builtin__
object
p2
Ntp3
Rp4
(dp5
S'I'
p6
I5
sS'rate'
p7
F1.0
sS'weights'
p8
(dp9
I3
F21.0
sI4
F-107.0
sI5
F1.0
sI6
F-62.0
sI7
F-3.0
sI8
F-195.0
sI9
F43.0
sI10
F-39.0
sI11
F32.0
sI12
F34.0
sI13
F36.0
sI14
F5.0
sI15
F-38.0
sI16
F63.099999999999994
sI17
F12.349999999999994
sI18
F20.05000000000004
sI19
F-1.2499999999999858
sI20
F-44.650000000000006
sI21
F-84.65
sI22
F-56.0
sI23
F5.0
sI24
F-149.0
sI25
F39.0
sI26
F50.0
sI27
F34.0
sI28
F-9.0
sI29
F78.0
sI30
F-35.0
sI31
F-3.0
sI32
F28.790000000000077
sI33
F99.64999999999998
sI34
F51.91999999999993
sI35
F-72.45999999999998
sI36
F-43.16999999999999
sI37
F-59.759999999999934
sI38
F35.98999999999998
sI39
F-43.0
sI40
F-129.0
sI41
F-21.0
sI42
F15.0
ssb.