ccopy_reg
_reconstructor
p0
(cperceptron
Margin_Perceptron
p1
c__builtin__
object
p2
Ntp3
Rp4
(dp5
S'I'
p6
I5
sS'rate'
p7
F1.0
sS'weights'
p8
(dp9
I3
F17.0
sI4
F-53.0
sI5
F-16.0
sI6
F-40.0
sI7
F55.0
sI8
F-189.0
sI9
F113.0
sI10
F18.0
sI11
F-25.0
sI12
F84.0
sI13
F56.0
sI14
F-31.0
sI15
F-29.0
sI16
F1.2100000000000364
sI17
F66.47
sI18
F71.21000000000001
sI19
F-27.92999999999998
sI20
F32.82000000000001
sI21
F-58.849999999999994
sI22
F-163.0
sI23
F18.0
sI24
F-86.0
sI25
F20.0
sI26
F11.0
sI27
F-83.0
sI28
F48.0
sI29
F62.0
sI30
F-51.0
sI31
F15.0
sI32
F9.220000000000084
sI33
F79.53999999999996
sI34
F18.17999999999998
sI35
F-58.39999999999992
sI36
F46.63000000000008
sI37
F-45.519999999999925
sI38
F-8.209999999999992
sI39
F-8.0
sI40
F-113.0
sI41
F-55.0
sI42
F35.0
ssb.