ccopy_reg
_reconstructor
p0
(cperceptron
Margin_Perceptron
p1
c__builtin__
object
p2
Ntp3
Rp4
(dp5
S'I'
p6
I5
sS'rate'
p7
F1.0
sS'weights'
p8
(dp9
I3
F29.0
sI4
F63.0
sI5
F-11.0
sI6
F-93.0
sI7
F35.0
sI8
F-93.0
sI9
F52.0
sI10
F93.0
sI11
F-105.0
sI12
F-64.0
sI13
F-41.0
sI14
F-51.0
sI15
F6.0
sI16
F-27.43999999999997
sI17
F-3.519999999999996
sI18
F114.93
sI19
F-38.26999999999997
sI20
F-5.509999999999977
sI21
F-0.28999999999999204
sI22
F-101.0
sI23
F-101.0
sI24
F-116.0
sI25
F117.0
sI26
F-5.0
sI27
F0.0
sI28
F100.0
sI29
F82.0
sI30
F-179.0
sI31
F-31.0
sI32
F-62.33999999999992
sI33
F97.83999999999997
sI34
F-45.30000000000001
sI35
F-30.659999999999883
sI36
F0.7600000000000477
sI37
F-10.579999999999984
sI38
F0.8599999999999892
sI39
F-16.0
sI40
F-88.0
sI41
F-33.0
sI42
F15.0
ssb.