ccopy_reg
_reconstructor
p0
(cperceptron
Margin_Perceptron
p1
c__builtin__
object
p2
Ntp3
Rp4
(dp5
S'I'
p6
I5
sS'rate'
p7
F1.0
sS'weights'
p8
(dp9
I3
F11.0
sI4
F145.0
sI5
F-10.0
sI6
F-38.0
sI7
F22.0
sI8
F-187.0
sI9
F74.0
sI10
F-33.0
sI11
F-4.0
sI12
F21.0
sI13
F33.0
sI14
F-42.0
sI15
F-10.0
sI16
F-62.37999999999998
sI17
F48.03
sI18
F31.420000000000044
sI19
F-16.599999999999994
sI20
F20.200000000000003
sI21
F-10.699999999999989
sI22
F-68.0
sI23
F-25.0
sI24
F-154.0
sI25
F86.0
sI26
F110.0
sI27
F129.0
sI28
F6.0
sI29
F49.0
sI30
F-159.0
sI31
F-17.0
sI32
F19.510000000000048
sI33
F-0.5099999999999909
sI34
F26.35999999999993
sI35
F-55.89999999999988
sI36
F18.35000000000008
sI37
F-12.999999999999943
sI38
F12.849999999999987
sI39
F17.0
sI40
F-88.0
sI41
F-53.0
sI42
F38.0
ssb.