ccopy_reg
_reconstructor
p0
(cperceptron
Margin_Perceptron
p1
c__builtin__
object
p2
Ntp3
Rp4
(dp5
S'I'
p6
I5
sS'rate'
p7
F1.0
sS'weights'
p8
(dp9
I3
F48.0
sI4
F-35.0
sI5
F-4.0
sI6
F-151.0
sI7
F-30.0
sI8
F-167.0
sI9
F56.0
sI10
F90.0
sI11
F22.0
sI12
F31.0
sI13
F63.0
sI14
F-66.0
sI15
F-68.0
sI16
F-15.47999999999999
sI17
F33.900000000000006
sI18
F107.28000000000003
sI19
F-56.95999999999998
sI20
F-58.68000000000001
sI21
F-20.120000000000005
sI22
F-152.0
sI23
F-64.0
sI24
F-141.0
sI25
F-12.0
sI26
F-39.0
sI27
F-17.0
sI28
F-31.0
sI29
F106.0
sI30
F-124.0
sI31
F56.0
sI32
F-73.67999999999992
sI33
F108.59999999999994
sI34
F-40.95000000000002
sI35
F-9.109999999999985
sI36
F83.23000000000002
sI37
F1.7499999999999716
sI38
F56.349999999999426
sI39
F6.0
sI40
F-89.0
sI41
F-72.0
sI42
F43.0
ssb.