ccopy_reg
_reconstructor
p0
(cperceptron
Margin_Perceptron
p1
c__builtin__
object
p2
Ntp3
Rp4
(dp5
S'I'
p6
I5
sS'rate'
p7
F1.0
sS'weights'
p8
(dp9
I3
F33.0
sI4
F91.0
sI5
F-11.0
sI6
F-111.0
sI7
F-54.0
sI8
F-138.0
sI9
F52.0
sI10
F128.0
sI11
F9.0
sI12
F43.0
sI13
F21.0
sI14
F-58.0
sI15
F10.0
sI16
F14.140000000000029
sI17
F-7.530000000000001
sI18
F87.20999999999998
sI19
F-18.889999999999972
sI20
F-0.7299999999999898
sI21
F-9.289999999999992
sI22
F-159.0
sI23
F29.0
sI24
F-137.0
sI25
F-34.0
sI26
F-67.0
sI27
F14.0
sI28
F33.0
sI29
F-3.0
sI30
F-119.0
sI31
F57.0
sI32
F32.740000000000066
sI33
F79.45000000000005
sI34
F-3.7900000000000773
sI35
F28.91000000000014
sI36
F40.170000000000016
sI37
F37.27000000000005
sI38
F55.069999999999396
sI39
F-89.0
sI40
F-141.0
sI41
F-48.0
sI42
F-22.0
ssb.