ccopy_reg
_reconstructor
p0
(cperceptron
Margin_Perceptron
p1
c__builtin__
object
p2
Ntp3
Rp4
(dp5
S'I'
p6
I5
sS'rate'
p7
F1.0
sS'weights'
p8
(dp9
I3
F39.0
sI4
F38.0
sI5
F-12.0
sI6
F-114.0
sI7
F1.0
sI8
F-115.0
sI9
F120.0
sI10
F-37.0
sI11
F3.0
sI12
F47.0
sI13
F34.0
sI14
F-47.0
sI15
F-2.0
sI16
F4.210000000000036
sI17
F37.249999999999986
sI18
F75.30000000000001
sI19
F-48.32000000000001
sI20
F-68.65
sI21
F-14.779999999999987
sI22
F-145.0
sI23
F-136.0
sI24
F-133.0
sI25
F36.0
sI26
F53.0
sI27
F-45.0
sI28
F117.0
sI29
F44.0
sI30
F-29.0
sI31
F19.0
sI32
F-43.18999999999994
sI33
F72.59
sI34
F-20.940000000000083
sI35
F-84.44000000000005
sI36
F28.710000000000036
sI37
F-27.97999999999999
sI38
F28.66000000000006
sI39
F-40.0
sI40
F-54.0
sI41
F-50.0
sI42
F-13.0
ssb.