ccopy_reg
_reconstructor
p0
(cNaiveCluster
NaiveClustering
p1
c__builtin__
object
p2
Ntp3
Rp4
(dp5
S'I'
p6
I10
sS'Clusters'
p7
(lp8
(lp9
I0
a(dp10
I1
F0.05457333554817279
sI2
F-0.09466701993355477
sI3
F-0.031185318936877107
sI4
F-0.06651843853820602
sI7
F0.45847176079734325
sI8
F0.5415282392026594
sa(dp11
I1
F0.8733577841288105
sI2
F1.06525320479482
sI3
F0.9633361486304244
sI4
F1.0995277769317338
sI5
F0.001360573476702493
sI6
F0.0013904338153503974
sI7
F0.24910299003322367
sI8
F0.24910299003322198
sI9
F0.0012996662958843198
sI10
F0.001498887652947709
saF0.3344407530454042
aI301
aa(lp12
I1
a(dp13
I1
F-0.03220995945945947
sI2
F-0.03794605067567566
sI3
F0.04761551351351354
sI4
F-0.006332648648648674
sI5
F0.49324324324324437
sI6
F0.5067567567567579
sa(dp14
I1
F0.8345266945965738
sI2
F0.9614566415030652
sI3
F1.0172899201466246
sI4
F0.997047704340642
sI5
F0.2508016491067335
sI6
F0.250801649106733
sI7
F0.001299666295884318
sI8
F0.001484748485972089
sI9
F0.0012996662958843198
sI10
F0.001498887652947709
saF0.3289036544850498
aI296
aa(lp15
I2
a(dp16
I1
F0.0815739900990099
sI2
F-0.04726880198019806
sI3
F0.030699986798679874
sI4
F-0.005385336633663334
sI9
F0.4554455445544549
sI10
F0.5445544554455444
sa(dp17
I1
F0.9472528950013613
sI2
F1.075537627433888
sI3
F1.0082571316389202
sI4
F0.9960156815693898
sI5
F0.001360573476702493
sI6
F0.0013904338153503974
sI7
F0.001299666295884318
sI8
F0.001484748485972089
sI9
F0.24883614189233588
sI10
F0.24883614189233394
saF0.33665559246954596
aI303
aasS'K'
p18
I3
sS'S_j'
p19
(dp20
I1
F0.008858428500126662
sI2
F0.01032895275554984
sI3
F0.009951349914450649
sI4
F0.010295011642996161
sI5
F0.001360573476702493
sI6
F0.0013904338153503974
sI7
F0.001299666295884318
sI8
F0.001484748485972089
sI9
F0.0012996662958843198
sI10
F0.001498887652947709
ssS'poss_index'
p21
(dp22
I1
I1
sI2
I1
sI3
I1
sI4
I1
sI5
I1
sI6
I1
sI7
I1
sI8
I1
sI9
I1
sI10
I1
ssb.