ccopy_reg
_reconstructor
p0
(cNaiveCluster
NaiveClustering
p1
c__builtin__
object
p2
Ntp3
Rp4
(dp5
S'I'
p6
I10
sS'Clusters'
p7
(lp8
(lp9
(dp10
I1
F0.016756693333333343
sI2
F-0.12331968666666665
sI3
F-0.011683523333333352
sI4
F-0.08679690000000005
sI5
F0.1666666666666665
sI6
F0.15999999999999984
sI7
F0.15333333333333318
sI8
F0.18666666666666645
sI9
F0.1433333333333332
sI10
F0.18999999999999978
sa(dp11
I1
F0.8006965384628955
sI2
F0.9262916943895202
sI3
F0.9172384386425713
sI4
F1.0089805549880442
sI5
F0.1161278335191378
sI6
F0.11327357859531789
sI7
F0.11028376068376064
sI8
F0.1238950575994056
sI9
F0.10554095131921218
sI10
F0.12507591973244164
saF0.3333333333333333
aI0
aa(lp12
(dp13
I1
F0.10628279333333332
sI2
F-0.03489641666666672
sI3
F0.03957205666666667
sI4
F0.11661508333333336
sI5
F0.1799999999999998
sI6
F0.1933333333333331
sI7
F0.15333333333333318
sI8
F0.16999999999999982
sI9
F0.14999999999999986
sI10
F0.15333333333333318
sa(dp14
I1
F0.8048985852728736
sI2
F1.1051459195170918
sI3
F1.0827460263926696
sI4
F1.0037229416623707
sI5
F0.12143678929765896
sI6
F0.1262248978075066
sI7
F0.11028376068376064
sI8
F0.11750468227424746
sI9
F0.10873745819397992
sI10
F0.11028376068376064
saF0.3333333333333333
aI1
aa(lp15
(dp16
I1
F-0.01767500333333331
sI2
F-0.021948066666666665
sI3
F0.01880982333333336
sI4
F-0.10824575333333333
sI5
F0.13999999999999987
sI6
F0.14666666666666653
sI7
F0.15333333333333318
sI8
F0.18666666666666645
sI9
F0.1666666666666665
sI10
F0.20666666666666642
sa(dp17
I1
F1.0496427431347526
sI2
F1.0680493384186918
sI3
F0.9907431349935438
sI4
F1.0517836548259059
sI5
F0.1038903010033446
sI6
F0.10715659606094403
sI7
F0.11028376068376064
sI8
F0.1238950575994056
sI9
F0.1161278335191378
sI10
F0.13050642883686356
saF0.3333333333333333
aI2
aasS'K'
p18
I3
sS'y'
p19
(lp20
I0
aI1
aI2
aI0
aI1
aI2
aI0
aI1
aI2
aI0
aI1
aI2
aI0
aI1
aI2
aI0
aI1
aI2
aI0
aI1
aI2
aI0
aI1
aI2
aI0
aI1
aI2
aI0
aI1
aI2
aI0
aI1
aI2
aI0
aI1
aI2
aI0
aI1
aI2
aI0
aI1
aI2
aI0
aI1
aI2
aI0
aI1
aI2
aI0
aI1
aI2
aI0
aI1
aI2
aI0
aI1
aI2
aI0
aI1
aI2
aI0
aI1
aI2
aI0
aI1
aI2
aI0
aI1
aI2
aI0
aI1
aI2
aI0
aI1
aI2
aI0
aI1
aI2
aI0
aI1
aI2
aI0
aI1
aI2
aI0
aI1
aI2
aI0
aI1
aI2
aI0
aI1
aI2
aI0
aI1
aI2
aI0
aI1
aI2
aI0
aI1
aI2
aI0
aI1
aI2
aI0
aI1
aI2
aI0
aI1
aI2
aI0
aI1
aI2
aI0
aI1
aI2
aI0
aI1
aI2
aI0
aI1
aI2
aI0
aI1
aI2
aI0
aI1
aI2
aI0
aI1
aI2
aI0
aI1
aI2
aI0
aI1
aI2
aI0
aI1
aI2
aI0
aI1
aI2
aI0
aI1
aI2
aI0
aI1
aI2
aI0
aI1
aI2
aI0
aI1
aI2
aI0
aI1
aI2
aI0
aI1
aI2
aI0
aI1
aI2
aI0
aI1
aI2
aI0
aI1
aI2
aI0
aI1
aI2
aI0
aI1
aI2
aI0
aI1
aI2
aI0
aI1
aI2
aI0
aI1
aI2
aI0
aI1
aI2
aI0
aI1
aI2
aI0
aI1
aI2
aI0
aI1
aI2
aI0
aI1
aI2
aI0
aI1
aI2
aI0
aI1
aI2
aI0
aI1
aI2
aI0
aI1
aI2
aI0
aI1
aI2
aI0
aI1
aI2
aI0
aI1
aI2
aI0
aI1
aI2
aI0
aI1
aI2
aI0
aI1
aI2
aI0
aI1
aI2
aI0
aI1
aI2
aI0
aI1
aI2
aI0
aI1
aI2
aI0
aI1
aI2
aI0
aI1
aI2
aI0
aI1
aI2
aI0
aI1
aI2
aI0
aI1
aI2
aI0
aI1
aI2
aI0
aI1
aI2
aI0
aI1
aI2
aI0
aI1
aI2
aI0
aI1
aI2
aI0
aI1
aI2
aI0
aI1
aI2
aI0
aI1
aI2
aI0
aI1
aI2
aI0
aI1
aI2
aI0
aI1
aI2
aI0
aI1
aI2
aI0
aI1
aI2
aI0
aI1
aI2
aI0
aI1
aI2
aI0
aI1
aI2
aI0
aI1
aI2
aI0
aI1
aI2
aI0
aI1
aI2
aI0
aI1
aI2
aI0
aI1
aI2
aI0
aI1
aI2
aI0
aI1
aI2
aI0
aI1
aI2
aI0
aI1
aI2
aI0
aI1
aI2
aI0
aI1
aI2
aI0
aI1
aI2
aI0
aI1
aI2
aI0
aI1
aI2
aI0
aI1
aI2
aI0
aI1
aI2
aI0
aI1
aI2
aI0
aI1
aI2
aI0
aI1
aI2
aI0
aI1
aI2
aI0
aI1
aI2
aI0
aI1
aI2
aI0
aI1
aI2
aI0
aI1
aI2
aI0
aI1
aI2
aI0
aI1
aI2
aI0
aI1
aI2
aI0
aI1
aI2
aI0
aI1
aI2
aI0
aI1
aI2
aI0
aI1
aI2
aI0
aI1
aI2
aI0
aI1
aI2
aI0
aI1
aI2
aI0
aI1
aI2
aI0
aI1
aI2
aI0
aI1
aI2
aI0
aI1
aI2
aI0
aI1
aI2
aI0
aI1
aI2
aI0
aI1
aI2
aI0
aI1
aI2
aI0
aI1
aI2
aI0
aI1
aI2
aI0
aI1
aI2
aI0
aI1
aI2
aI0
aI1
aI2
aI0
aI1
aI2
aI0
aI1
aI2
aI0
aI1
aI2
aI0
aI1
aI2
aI0
aI1
aI2
aI0
aI1
aI2
aI0
aI1
aI2
aI0
aI1
aI2
aI0
aI1
aI2
aI0
aI1
aI2
aI0
aI1
aI2
aI0
aI1
aI2
aI0
aI1
aI2
aI0
aI1
aI2
aI0
aI1
aI2
aI0
aI1
aI2
aI0
aI1
aI2
aI0
aI1
aI2
aI0
aI1
aI2
aI0
aI1
aI2
aI0
aI1
aI2
aI0
aI1
aI2
aI0
aI1
aI2
aI0
aI1
aI2
aI0
aI1
aI2
aI0
aI1
aI2
aI0
aI1
aI2
aI0
aI1
aI2
aI0
aI1
aI2
aI0
aI1
aI2
aI0
aI1
aI2
aI0
aI1
aI2
aI0
aI1
aI2
aI0
aI1
aI2
aI0
aI1
aI2
aI0
aI1
aI2
aI0
aI1
aI2
aI0
aI1
aI2
aI0
aI1
aI2
aI0
aI1
aI2
aI0
aI1
aI2
aI0
aI1
aI2
aI0
aI1
aI2
aI0
aI1
aI2
aI0
aI1
aI2
aI0
aI1
aI2
aI0
aI1
aI2
aI0
aI1
aI2
aI0
aI1
aI2
aI0
aI1
aI2
aI0
aI1
aI2
aI0
aI1
aI2
aI0
aI1
aI2
aI0
aI1
aI2
aI0
aI1
aI2
aI0
aI1
aI2
aI0
aI1
aI2
aI0
aI1
aI2
aI0
aI1
aI2
aI0
aI1
aI2
aI0
aI1
aI2
aI0
aI1
aI2
aI0
aI1
aI2
aI0
aI1
aI2
aI0
aI1
aI2
aI0
aI1
aI2
aI0
aI1
aI2
aI0
aI1
aI2
aI0
aI1
aI2
aI0
aI1
aI2
aI0
aI1
aI2
aI0
aI1
aI2
aI0
aI1
aI2
aI0
aI1
aI2
aI0
aI1
aI2
aI0
aI1
aI2
aI0
aI1
aI2
aI0
aI1
aI2
aI0
aI1
aI2
aI0
aI1
aI2
aI0
aI1
aI2
aI0
aI1
aI2
aI0
aI1
aI2
aI0
aI1
aI2
aI0
aI1
aI2
aI0
aI1
aI2
aI0
aI1
aI2
aI0
aI1
aI2
aI0
aI1
aI2
aI0
aI1
aI2
aI0
aI1
aI2
aI0
aI1
aI2
aI0
aI1
aI2
aI0
aI1
aI2
aI0
aI1
aI2
aI0
aI1
aI2
aI0
aI1
aI2
aI0
aI1
aI2
aI0
aI1
aI2
aI0
aI1
aI2
aI0
aI1
aI2
aI0
aI1
aI2
aI0
aI1
aI2
aI0
aI1
aI2
aI0
aI1
aI2
aI0
aI1
aI2
aI0
aI1
aI2
aI0
aI1
aI2
aI0
aI1
aI2
aI0
aI1
aI2
aI0
aI1
aI2
aI0
aI1
aI2
aI0
aI1
aI2
aI0
aI1
aI2
aI0
aI1
aI2
aI0
aI1
aI2
aI0
aI1
aI2
aI0
aI1
aI2
aI0
aI1
aI2
aI0
aI1
aI2
aI0
aI1
aI2
aI0
aI1
aI2
aI0
aI1
aI2
aI0
aI1
aI2
aI0
aI1
aI2
aI0
aI1
aI2
aI0
aI1
aI2
aI0
aI1
aI2
aI0
aI1
aI2
aI0
aI1
aI2
aI0
aI1
aI2
aI0
aI1
aI2
aI0
aI1
aI2
aI0
aI1
aI2
aI0
aI1
aI2
aI0
aI1
aI2
aI0
aI1
aI2
aI0
aI1
aI2
aI0
aI1
aI2
aI0
aI1
aI2
aI0
aI1
aI2
aI0
aI1
aI2
aI0
aI1
aI2
aI0
aI1
aI2
aI0
aI1
aI2
aI0
aI1
aI2
aI0
aI1
aI2
aI0
aI1
aI2
aI0
aI1
aI2
aI0
aI1
aI2
aI0
aI1
aI2
asb.