ccopy_reg
_reconstructor
p0
(cNaiveCluster
NaiveClustering
p1
c__builtin__
object
p2
Ntp3
Rp4
(dp5
S'I'
p6
I10
sS'Clusters'
p7
(lp8
(lp9
I0
a(dp10
I1
F0.3240740740740738
sI2
F35.60962962962962
sI3
F4.566250000000002
sI4
F0.7129629629629634
sI5
F0.7129629629629634
sI6
F0.009259259259259259
sI7
F0.407407407407407
sI8
F2.034212962962963
sI9
F0.611111111111111
sI10
F0.39814814814814775
sI11
F2.0462962962962963
sI12
F0.444444444444444
sI13
F0.7962962962962971
sI14
F164.48148148148144
sI15
F511.7592592592592
sI16
F0.6759259259259262
sI17
F0.27777777777777757
sI18
F0.27777777777777757
sI20
F0.6018518518518517
sI21
F0.5555555555555552
sI22
F0.2037037037037036
sI23
F0.37037037037037
sI24
F0.39814814814814775
sI27
F0.06481481481481481
sI28
F0.07407407407407407
sI29
F0.05555555555555555
sI32
F0.046296296296296294
sI33
F0.3888888888888885
sI34
F0.16666666666666663
sI35
F0.3055555555555553
sI36
F0.009259259259259259
sI41
F0.06481481481481481
sI43
F0.027777777777777776
sI44
F0.009259259259259259
sI45
F0.009259259259259259
sa(dp11
I1
F0.22109726548978928
sI2
F209.3356409830391
sI3
F29.61566968457943
sI4
F0.20655936310141912
sI5
F0.20655936310141912
sI6
F0.009259259259259297
sI7
F0.24368293527172005
sI8
F14.529159888802345
sI9
F0.23987538940809983
sI10
F0.2418656974731742
sI11
F14.941761855313262
sI12
F0.24922118380062308
sI13
F0.16372447213568714
sI14
F18564.71928002769
sI15
F3337721.137763938
sI16
F0.22109726548978922
sI17
F0.20249221183800611
sI18
F0.20249221183800611
sI19
F0.0006600099354197693
sI20
F0.24186569747317418
sI21
F0.24922118380062316
sI22
F0.1637244721356873
sI23
F0.23537556247836644
sI24
F0.2418656974731742
sI25
F0.0007980129160457076
sI26
F3.629740023182673e-05
sI27
F0.06118033921772243
sI28
F0.06922810661128424
sI29
F0.052959501557632446
sI30
F0.0010020202020202126
sI31
F0.0009016393442622875
sI32
F0.044565593631014165
sI33
F0.23987538940809905
sI34
F0.14018691588785054
sI35
F0.21417445482866068
sI36
F0.00925925925925927
sI37
F0.0007980129160457121
sI38
F3.629740023182671e-05
sI39
F0.0005810233482364579
sI40
F7.232985593641431e-05
sI41
F0.06118033921772243
sI42
F0.00014359993376386723
sI43
F0.02725856697819315
sI44
F0.00925925925925927
sI45
F0.00925925925925927
sI46
F3.6297400231826666e-05
saF0.19710669077757687
aI108
aa(lp12
I1
a(dp13
I1
F0.41379310344827597
sI2
F44.48586206896552
sI3
F10.244137931034485
sI4
F0.8620689655172411
sI5
F0.8620689655172411
sI6
F0.20689655172413796
sI7
F0.44827586206896564
sI8
F6.044482758620689
sI9
F0.24137931034482762
sI10
F0.6206896551724138
sI11
F8.448275862068964
sI12
F0.34482758620689663
sI13
F0.9310344827586203
sI14
F204.10344827586206
sI15
F8962.896551724138
sI16
F0.5862068965517242
sI17
F0.10344827586206896
sI18
F0.10344827586206896
sI20
F0.3793103448275863
sI21
F0.6551724137931034
sI23
F0.034482758620689655
sI25
F0.1724137931034483
sI26
F0.06896551724137931
sI32
F0.20689655172413796
sI33
F0.7586206896551723
sI36
F0.1724137931034483
sI41
F0.41379310344827597
sI42
F0.2758620689655173
sI44
F0.034482758620689655
sI45
F0.034482758620689655
sI46
F0.06896551724137931
sa(dp14
I1
F0.2512315270935961
sI2
F266.3583822660099
sI3
F63.93162690886699
sI4
F0.12315270935960598
sI5
F0.12315270935960598
sI6
F0.16995073891625628
sI7
F0.2561576354679803
sI8
F57.57415418719213
sI9
F0.18965517241379296
sI10
F0.24384236453201977
sI11
F204.11330049261088
sI12
F0.23399014778325122
sI13
F0.06650246305418721
sI14
F178265.16748768475
sI15
F473038833.95320183
sI16
F0.25123152709359614
sI17
F0.09605911330049256
sI18
F0.09605911330049256
sI19
F0.0006600099354197693
sI20
F0.24384236453201974
sI21
F0.23399014778325122
sI22
F0.0007220069547938424
sI23
F0.034482758620689655
sI24
F0.0007526080476900089
sI25
F0.1477832512315271
sI26
F0.06650246305418715
sI27
F0.001602914389799627
sI28
F0.00014359993376386693
sI29
F0.00010809736711376114
sI30
F0.0010020202020202126
sI31
F0.0009016393442622875
sI32
F0.16995073891625617
sI33
F0.18965517241379326
sI34
F0.00031713859910581266
sI35
F0.0005650273224043739
sI36
F0.1477832512315271
sI37
F0.0007980129160457121
sI38
F3.629740023182671e-05
sI39
F0.0005810233482364579
sI40
F7.232985593641431e-05
sI41
F0.2512315270935961
sI42
F0.2068965517241379
sI43
F5.434674615002494e-05
sI44
F0.034482758620689655
sI45
F0.034482758620689655
sI46
F0.06650246305418717
saF0.054249547920433995
aI29
aa(lp15
I2
a(dp16
I1
F0.29539951573849904
sI2
F29.891355932203382
sI3
F4.470508474576271
sI4
F0.7845036319612644
sI5
F0.7845036319612644
sI6
F0.25423728813559304
sI7
F0.6585956416464931
sI8
F2.057736077481839
sI9
F0.4261501210653769
sI10
F0.4358353510895901
sI11
F2.113801452784505
sI12
F0.4818401937046027
sI13
F0.9491525423728884
sI14
F182.39709443099264
sI15
F626.6440677966101
sI16
F0.7046004842615057
sI17
F0.21549636803874075
sI18
F0.21549636803874075
sI19
F0.09443099273607743
sI20
F0.5641646489104146
sI21
F0.518159806295402
sI22
F0.050847457627118633
sI24
F0.004842615012106538
sI25
F0.10411622276029049
sI27
F0.24939467312348648
sI30
F0.15012106537530256
sI31
F0.1331719128329297
sI32
F0.07748184019370456
sI33
F0.5738498789346278
sI36
F0.0605326876513317
sI37
F0.11622276029055682
sI38
F0.004842615012106538
sI39
F0.0823244552058111
sI40
F0.009685230024213076
sa(dp17
I1
F0.20864383271821316
sI2
F103.57355495310188
sI3
F19.91820059034065
sI4
F0.16946801758386545
sI5
F0.16946801758386545
sI6
F0.1900608853052489
sI7
F0.22539316862173428
sI8
F7.408496257845745
sI9
F0.24513975410799457
sI10
F0.24647970098027475
sI11
F12.15934789252217
sI12
F0.2502762171184104
sI13
F0.04837913444133599
sI14
F22170.002127459516
sI15
F2853440.4239756633
sI16
F0.20864383271821127
sI17
F0.16946801758386448
sI18
F0.16946801758386448
sI19
F0.08572133806624524
sI20
F0.246479700980277
sI21
F0.2502762171184081
sI22
F0.04837913444133597
sI23
F0.0006911409173704251
sI24
F0.004830861092174263
sI25
F0.09350243306142637
sI26
F3.629740023182673e-05
sI27
F0.18765133171912757
sI28
F0.00014359993376386693
sI29
F0.00010809736711376114
sI30
F0.12789440278332884
sI31
F0.1157173417334675
sI32
F0.07165189590728528
sI33
F0.24513975410799393
sI34
F0.00031713859910581266
sI35
F0.0005650273224043739
sI36
F0.05700651167164212
sI37
F0.10296433860692453
sI38
F0.004830861092174253
sI39
F0.07573050612379274
sI40
F0.009614706504619343
sI41
F0.0003341281669150482
sI42
F0.00014359993376386723
sI43
F5.434674615002494e-05
sI44
F3.629740023182667e-05
sI45
F3.629740023182667e-05
sI46
F3.6297400231826666e-05
saF0.7486437613019892
aI413
aasS'K'
p18
I3
sS'S_j'
p19
(dp20
I1
F0.002132439145553885
sI2
F1.4620777829574418
sI3
F0.2563842986661703
sI4
F0.0017494287133631274
sI5
F0.0017494287133631274
sI6
F0.001624639841033293
sI7
F0.002407981453883121
sI8
F0.12125208945520774
sI9
F0.0024821659215101804
sI10
F0.002466269249875808
sI11
F0.24464742507037465
sI12
F0.002493823480708735
sI13
F0.0007526080476900144
sI14
F294.30092336479646
sI15
F304169.99485994445
sI16
F0.0021324391455539112
sI17
F0.0017292929292929361
sI18
F0.0017292929292929361
sI19
F0.0006600099354197693
sI20
F0.002466269249875809
sI21
F0.0024938234807087042
sI22
F0.0007220069547938424
sI23
F0.0006911409173704251
sI24
F0.0007526080476900089
sI25
F0.0007980129160457076
sI26
F3.629740023182673e-05
sI27
F0.001602914389799627
sI28
F0.00014359993376386693
sI29
F0.00010809736711376114
sI30
F0.0010020202020202126
sI31
F0.0009016393442622875
sI32
F0.0007220069547938415
sI33
F0.0024821659215101865
sI34
F0.00031713859910581266
sI35
F0.0005650273224043739
sI36
F0.0005328365623447556
sI37
F0.0007980129160457121
sI38
F3.629740023182671e-05
sI39
F0.0005810233482364579
sI40
F7.232985593641431e-05
sI41
F0.0003341281669150482
sI42
F0.00014359993376386723
sI43
F5.434674615002494e-05
sI44
F3.629740023182667e-05
sI45
F3.629740023182667e-05
sI46
F3.6297400231826666e-05
ssS'poss_index'
p21
(dp22
I1
I1
sI2
I1
sI3
I1
sI4
I1
sI5
I1
sI6
I1
sI7
I1
sI8
I1
sI9
I1
sI10
I1
sI11
I1
sI12
I1
sI13
I1
sI14
I1
sI15
I1
sI16
I1
sI17
I1
sI18
I1
sI19
I1
sI20
I1
sI21
I1
sI22
I1
sI23
I1
sI24
I1
sI25
I1
sI26
I1
sI27
I1
sI28
I1
sI29
I1
sI30
I1
sI31
I1
sI32
I1
sI33
I1
sI34
I1
sI35
I1
sI36
I1
sI37
I1
sI38
I1
sI39
I1
sI40
I1
sI41
I1
sI42
I1
sI43
I1
sI44
I1
sI45
I1
sI46
I1
ssb.