ccopy_reg
_reconstructor
p0
(cNaiveCluster
NaiveClustering
p1
c__builtin__
object
p2
Ntp3
Rp4
(dp5
S'I'
p6
I10
sS'Clusters'
p7
(lp8
(lp9
I0
a(dp10
I1
F0.06278868421052634
sI2
F-0.04727426315789472
sI3
F0.06843076900584798
sI4
F0.25855795906432755
sI5
F0.012551532163742708
sI6
F0.18300554093567267
sI7
F-0.0032205497076023258
sI8
F-0.07622376023391805
sI9
F0.08286693859649119
sI10
F-0.03085628654970761
sI11
F-0.15901503801169603
sI12
F0.05515563742690066
sI13
F0.08112036257309937
sI14
F0.05815210233918134
sI15
F0.051706698830409334
sI16
F0.030813239766081853
sI17
F0.09422526315789467
sI18
F0.04452684502923975
sI19
F-0.13121953508771927
sI20
F0.062145616959064315
sI21
F0.1777957923976607
sI22
F0.027898122807017547
sI23
F-0.13727448830409356
sI24
F-0.0094000964912281
sI25
F0.08189649122807026
sI26
F-0.23372259356725145
sI27
F-0.07047740350877195
sI28
F-0.03682038888888891
sI29
F-0.01589822514619883
sI30
F-0.059159660818713405
sI31
F-0.045446160818713395
sI32
F-0.03458344736842105
sI33
F-0.10038901754385972
sI34
F-0.09672775146198817
sI35
F-0.26263111988304083
sI36
F0.011994181286549712
sI37
F-0.00032914912280701016
sI38
F0.010798441520467815
sI39
F-0.019767692982456148
sI40
F0.08733344444444441
sI41
F0.07419079239766078
sI42
F-0.02874281871345027
sI43
F0.18311044444444438
sI44
F0.05424381286549708
sI45
F0.003618754385964907
sI46
F-0.11171097953216369
sI47
F-0.033416871345029235
sI48
F0.0969301725146199
sI49
F0.12081310233918127
sI50
F-0.17106232748538025
sI51
F-0.18819853801169592
sI52
F0.10503502631578948
sI53
F-0.05251130116959065
sI54
F0.037515052631578956
sI55
F-0.11150930116959062
sI56
F-0.09122634502923971
sI57
F-0.16057759649122816
sI58
F0.021150888888888865
sI59
F-0.012903017543859656
sI60
F-0.1695069093567251
sI61
F0.147731254385965
sI62
F0.08848247076023388
sI63
F-0.18441012280701757
sI64
F0.006409076023391785
sI65
F0.1161526081871345
sI66
F-0.05559388011695904
sI67
F0.1521484064327486
sI68
F-0.07163519883040936
sI69
F-0.018111850877193036
sI70
F-0.10471799707602347
sI71
F-0.019465827485380102
sI72
F-0.1280793099415205
sI73
F-0.3078357163742689
sI74
F0.10555824269005845
sI75
F-0.045790535087719346
sI76
F0.009314312865497078
sI77
F0.023547014619883046
sI78
F0.07945331578947379
sI79
F-0.18699104678362571
sI80
F-0.14701704678362568
sI81
F0.06671733918128653
sI82
F-0.07129733625730997
sI83
F0.08532660818713458
sI84
F0.06921727192982458
sI85
F-0.0001277748538011855
sI86
F-0.07652619005847955
sI87
F-0.09436188011695905
sI88
F0.1530748011695907
sI89
F-0.1349065526315789
sI90
F-0.01826123391812863
sI91
F0.00330581578947367
sI92
F-0.18464705847953222
sI93
F0.1280178450292398
sI94
F0.03367491228070177
sa(dp11
I1
F0.9405085041877884
sI2
F1.2831205896912792
sI3
F1.234145981628014
sI4
F0.7128778251314059
sI5
F0.8258022613664793
sI6
F0.8684802631752232
sI7
F0.9797214862181545
sI8
F1.0537038942093568
sI9
F0.9083185565756059
sI10
F0.7542408179108496
sI11
F1.0255445056863415
sI12
F0.9891732205387708
sI13
F0.7410063441392698
sI14
F0.9247944982651658
sI15
F0.9582924050483697
sI16
F0.9485716231911621
sI17
F0.826874841194552
sI18
F0.8758129948323651
sI19
F1.0334433932275113
sI20
F1.2106578267504597
sI21
F0.9322069596393728
sI22
F1.1244731687201077
sI23
F0.8407102485567786
sI24
F1.119821732394169
sI25
F0.9099287390734236
sI26
F0.9483409207118904
sI27
F0.8810075965382356
sI28
F0.8528549836159565
sI29
F1.048515737443976
sI30
F0.8420723195811389
sI31
F1.082527284319455
sI32
F0.873288149840008
sI33
F1.0004304794337535
sI34
F1.2307725025015877
sI35
F1.0324160191496727
sI36
F1.0091953864956738
sI37
F0.9296585348529426
sI38
F0.7775037520618486
sI39
F0.9397384657152578
sI40
F1.00128513660721
sI41
F1.0068202062574028
sI42
F1.2837862820963901
sI43
F0.9447805052579712
sI44
F1.1338864031374247
sI45
F1.125382806606849
sI46
F0.7853534604498967
sI47
F1.054024995721719
sI48
F0.866811233363915
sI49
F0.9275396835487253
sI50
F1.027843750873511
sI51
F0.9720260529577449
sI52
F1.2050090862640779
sI53
F1.145813096075542
sI54
F1.0322204074645196
sI55
F0.8728099039169619
sI56
F1.1043828528887074
sI57
F0.9735967605629864
sI58
F0.95904094329329
sI59
F0.8754292074903696
sI60
F1.3184627513885991
sI61
F0.831820446215317
sI62
F1.0532684500658747
sI63
F0.9887262681775794
sI64
F1.2767451193030905
sI65
F1.2092564095897824
sI66
F1.029118464001502
sI67
F0.8786635143745065
sI68
F1.1419885362441953
sI69
F1.100388056405646
sI70
F1.1916299504056913
sI71
F1.001089340491006
sI72
F0.8872533095632412
sI73
F0.8498375231986899
sI74
F1.0859988702264964
sI75
F0.9137869648314861
sI76
F1.1555968376425327
sI77
F0.9849269204996874
sI78
F1.2600484164998296
sI79
F0.7700515759469948
sI80
F0.8783077753727484
sI81
F0.9604713692302072
sI82
F1.0406421987339067
sI83
F1.1104545026186083
sI84
F1.091377847306328
sI85
F1.2434731575593243
sI86
F1.2032185345891622
sI87
F0.9802827917465397
sI88
F1.0386566936128814
sI89
F0.9849112338790807
sI90
F0.7830144617297513
sI91
F1.3124237556240628
sI92
F1.1027728936237862
sI93
F1.1088788124656273
sI94
F0.8942800929772472
saF0.3798449612403101
aI342
aa(lp12
I1
a(dp13
I1
F-0.011346102189781021
sI2
F0.05871753649635033
sI3
F-0.038443934306569345
sI4
F-0.23763919708029202
sI5
F-0.0205514087591241
sI6
F-0.11082143430656936
sI7
F-0.1357822591240876
sI8
F-0.057848076642335745
sI9
F-0.2073184452554745
sI10
F0.027641664233576644
sI11
F-0.04217476277372265
sI12
F-0.027446478102189822
sI13
F-0.16268304744525544
sI14
F-0.1824156715328468
sI15
F0.007885339416058394
sI16
F-0.08988049270072998
sI17
F-0.03536609124087589
sI18
F-0.036309956204379545
sI19
F0.008639554744525539
sI20
F0.08452035766423355
sI21
F-0.2702041532846716
sI22
F0.1665542080291971
sI23
F0.03314560218978102
sI24
F-0.08316783576642336
sI25
F-0.01570141240875917
sI26
F0.17475364233576643
sI27
F-0.08601956934306576
sI28
F0.05790363868613139
sI29
F-0.006342726277372235
sI30
F0.2553187591240877
sI31
F-0.060850594890510944
sI32
F-0.1265557408759124
sI33
F0.20432621167883203
sI34
F0.029857791970802912
sI35
F-0.05099114963503648
sI36
F0.018324171532846746
sI37
F0.10323274452554744
sI38
F0.07993796350364968
sI39
F-0.14384972262773738
sI40
F-0.0784386058394161
sI41
F0.1371882299270073
sI42
F0.0010458029197080194
sI43
F-0.03879045620437956
sI44
F0.1226124781021897
sI45
F0.026838686131386853
sI46
F0.05597217518248181
sI47
F-0.0021469525547445703
sI48
F-0.026122401459853985
sI49
F-0.0508969197080291
sI50
F0.04177075182481754
sI51
F-0.009414839416058415
sI52
F-0.05978072262773719
sI53
F0.01086085401459853
sI54
F-0.1368393503649634
sI55
F0.13102746715328473
sI56
F0.04152645620437957
sI57
F0.030413051094890498
sI58
F0.2952268029197081
sI59
F-0.07028664233576638
sI60
F0.02032131751824816
sI61
F-0.293774806569343
sI62
F-0.1145010218978102
sI63
F0.20178387591240876
sI64
F-0.08256889781021896
sI65
F0.14527549270073012
sI66
F-0.11304278467153277
sI67
F-0.14753486861313875
sI68
F-0.058611218978102196
sI69
F0.16998098540145992
sI70
F0.0853164197080292
sI71
F0.22322666058394156
sI72
F0.09613642700729921
sI73
F0.04532174817518245
sI74
F0.04090574817518248
sI75
F-0.003210868613138711
sI76
F0.09252905109489054
sI77
F0.0008122481751824898
sI78
F-0.04386135766423356
sI79
F0.08855197810218982
sI80
F0.1124999124087591
sI81
F0.03888468978102187
sI82
F0.12510116423357673
sI83
F-0.19384186496350356
sI84
F0.1394479452554745
sI85
F-0.019908427007299292
sI86
F-0.07641346350364966
sI87
F-0.14423494525547442
sI88
F-0.018999649635036486
sI89
F0.08132582481751822
sI90
F0.049691996350364975
sI91
F0.02595111313868612
sI92
F0.0812649708029197
sI93
F-0.09360102554744533
sI94
F-0.06234014598540147
sa(dp14
I1
F1.0424203115125166
sI2
F0.766061851674103
sI3
F0.9049142760312767
sI4
F0.9625445975769433
sI5
F1.1643230864133187
sI6
F1.0704366795947153
sI7
F1.2723530514593944
sI8
F0.7728575456385403
sI9
F0.9838157175257638
sI10
F1.1571287776521288
sI11
F1.365817289505119
sI12
F1.1418176302760519
sI13
F1.0344185897491807
sI14
F1.1884737554398543
sI15
F0.8814250468285694
sI16
F0.9321205796800976
sI17
F1.4823196514388441
sI18
F1.1550065373531566
sI19
F0.8468614326753836
sI20
F0.7488680933059008
sI21
F0.8428610047255001
sI22
F1.0353733185620189
sI23
F1.3171750766689145
sI24
F0.8253668278335815
sI25
F1.1347249290627346
sI26
F0.9107240741124287
sI27
F1.2552291894967356
sI28
F0.9505474247652494
sI29
F1.053952467510764
sI30
F0.8818542021131653
sI31
F1.059150318820733
sI32
F0.9991684505456652
sI33
F1.109769277868277
sI34
F0.9737896958774034
sI35
F0.7871904084387943
sI36
F1.0181854059784579
sI37
F0.8299146124381838
sI38
F1.2953057395994287
sI39
F1.1598758475302602
sI40
F1.0505890370848188
sI41
F0.9130788268152545
sI42
F0.6190302823076829
sI43
F1.3304122970414862
sI44
F0.9583428950215835
sI45
F1.4242022567640182
sI46
F1.116240511767295
sI47
F0.996233251928946
sI48
F1.1859641467259396
sI49
F1.152020809568616
sI50
F1.0177100714630591
sI51
F0.9831341010567287
sI52
F0.7479469444909633
sI53
F0.9256957306029235
sI54
F1.215598402442836
sI55
F0.9459852556932603
sI56
F1.0642657839542786
sI57
F0.8051804072147158
sI58
F0.6542560146823055
sI59
F1.0827400267471243
sI60
F1.0269816915446355
sI61
F1.24039814348497
sI62
F1.2726984268409447
sI63
F0.9470039611982188
sI64
F0.6659631619707878
sI65
F0.6577808295815699
sI66
F0.7405163654143387
sI67
F1.0478090111811185
sI68
F1.1813928117845076
sI69
F1.20960739183608
sI70
F0.9798953739333577
sI71
F1.04268271070654
sI72
F1.1726843348266782
sI73
F0.9553725323853396
sI74
F0.8030252286183063
sI75
F1.1239003734909265
sI76
F1.0631100500254709
sI77
F1.110653279582641
sI78
F0.7556069086939226
sI79
F1.1331996199164096
sI80
F0.9676201350782487
sI81
F1.0893780898393726
sI82
F0.9250370206122769
sI83
F1.1255400991518023
sI84
F0.6264677413933705
sI85
F0.9529154285809779
sI86
F1.3174308258592535
sI87
F0.9662870046157881
sI88
F1.1005088109453198
sI89
F1.042090907538093
sI90
F0.849828173520942
sI91
F0.7545365173497119
sI92
F0.9888102216768495
sI93
F1.212684196100318
sI94
F1.0040684187681617
saF0.30454042081949056
aI274
aa(lp15
I2
a(dp16
I1
F0.06511222183098596
sI2
F0.07357163380281678
sI3
F-0.06942277112676057
sI4
F-0.06258772535211266
sI5
F-0.026350225352112688
sI6
F-0.08006798239436624
sI7
F0.15087280633802821
sI8
F0.05824383098591545
sI9
F0.003179014084507047
sI10
F0.060279471830985934
sI11
F0.10957971478873232
sI12
F-0.058760647887323963
sI13
F-0.15180704577464782
sI14
F0.15170229929577475
sI15
F0.019548338028168997
sI16
F0.08954534507042249
sI17
F-0.030621538732394385
sI18
F-0.005296415492957774
sI19
F0.13333868661971834
sI20
F-0.1246398239436619
sI21
F-0.022851440140845072
sI22
F-0.228024778169014
sI23
F-0.004963619718309898
sI24
F0.06566298591549297
sI25
F-0.2321034999999999
sI26
F0.09609906690140846
sI27
F0.2339212605633803
sI28
F-0.05448000352112678
sI29
F0.09827528169014084
sI30
F-0.19427623591549298
sI31
F0.03783750704225357
sI32
F0.045342419014084506
sI33
F0.012054419014084512
sI34
F0.05060348239436614
sI35
F0.23374474295774655
sI36
F-0.07510430985915494
sI37
F-0.001781475352112665
sI38
F-0.03494032042253516
sI39
F0.051320059859154915
sI40
F-0.012425524647887352
sI41
F-0.32357329577464805
sI42
F-0.13495519718309862
sI43
F-0.0942594014084507
sI44
F-0.16598536971830993
sI45
F0.02767791901408451
sI46
F0.1146742535211268
sI47
F0.04618672535211272
sI48
F-0.15198227464788733
sI49
F-0.010278739436619725
sI50
F-0.06479230281690139
sI51
F0.05002913028169016
sI52
F0.07463293661971832
sI53
F0.10208334507042252
sI54
F0.0192813309859155
sI55
F-0.025609781690140797
sI56
F0.15389521478873228
sI57
F-0.012390904929577465
sI58
F-0.2802116584507042
sI59
F0.02408992957746481
sI60
F0.3103810950704223
sI61
F0.08467483802816904
sI62
F-0.07168112323943662
sI63
F-0.05449753521126756
sI64
F0.15614739084507046
sI65
F-0.14220469014084505
sI66
F0.06120338732394371
sI67
F0.03382032746478876
sI68
F-0.030904369718309812
sI69
F0.08269103521126758
sI70
F0.07311653873239435
sI71
F-0.032781563380281674
sI72
F-0.1394142042253522
sI73
F0.2269208732394365
sI74
F-0.0906185105633802
sI75
F0.028934158450704184
sI76
F0.1009502676056338
sI77
F0.045104619718309855
sI78
F-0.013437686619718303
sI79
F-0.021026464788732387
sI80
F0.15907694014084514
sI81
F-0.05434089084507042
sI82
F-0.056300992957746494
sI83
F0.18091896478873234
sI84
F0.047002964788732414
sI85
F0.008774612676056363
sI86
F0.19086503169014077
sI87
F0.0671907605633802
sI88
F-0.15755183802816905
sI89
F-0.10865945070422534
sI90
F0.021085176056338042
sI91
F0.10995166549295762
sI92
F0.05648050352112682
sI93
F-0.04865628169014084
sI94
F-0.09257319014084507
sa(dp17
I1
F0.7826393679788659
sI2
F0.9375067057614346
sI3
F0.9884223090252302
sI4
F1.3640826890269706
sI5
F1.1136245059335679
sI6
F1.1321708722740171
sI7
F0.7111906403588703
sI8
F1.1008920072477382
sI9
F1.0340089585388614
sI10
F1.190782385849939
sI11
F0.9088330808373141
sI12
F1.086816117202618
sI13
F1.067600673679598
sI14
F0.8224781975047541
sI15
F0.9918473033973481
sI16
F0.855470591766877
sI17
F1.0880974860112176
sI18
F1.071347532450017
sI19
F1.0627944453599467
sI20
F0.9610842082248026
sI21
F0.9540026042449685
sI22
F0.9960673523071981
sI23
F0.7701616543102152
sI24
F1.0705795322659153
sI25
F0.9729017680839537
sI26
F1.0896889943561685
sI27
F1.0014862629387726
sI28
F1.0672666393108157
sI29
F0.9028538033486628
sI30
F0.8722509629962092
sI31
F0.8594644850850633
sI32
F0.8601730471733255
sI33
F0.7026645796657564
sI34
F0.9136776669062714
sI35
F1.1824174808025447
sI36
F1.0326978434508012
sI37
F1.3812035328661434
sI38
F0.9107459844984163
sI39
F0.9022483902518939
sI40
F1.1344455589050138
sI41
F0.7270707605257433
sI42
F1.0054574386914237
sI43
F0.7061955315323403
sI44
F0.8609855882907493
sI45
F0.6922869522053958
sI46
F1.0431227469057374
sI47
F0.9765020474180236
sI48
F1.0286139247144472
sI49
F0.9334715642503281
sI50
F0.9082782394656393
sI51
F0.9641046604612372
sI52
F0.8938892948141933
sI53
F0.9879864612959862
sI54
F0.7043358887508023
sI55
F0.8877898991170757
sI56
F0.7969790710024522
sI57
F1.142842830642009
sI58
F1.0920707807022119
sI59
F0.9456956981647023
sI60
F0.6268649751454501
sI61
F0.9591396626441152
sI62
F0.762938250795409
sI63
F1.0234535354606034
sI64
F0.7751774389785778
sI65
F1.1459173396876488
sI66
F1.4113593061522387
sI67
F1.1601916043629128
sI68
F0.7643105520575845
sI69
F0.7155608387766003
sI70
F1.091207202266221
sI71
F0.8057870431825437
sI72
F0.9626977495755624
sI73
F1.0539218494493483
sI74
F1.0882721532522517
sI75
F0.9236085854221754
sI76
F0.986390684148763
sI77
F0.8110555362813388
sI78
F0.953097956668944
sI79
F1.3004039227562776
sI80
F1.168555554595823
sI81
F1.0065668335641749
sI82
F0.9672874208910107
sI83
F0.9437384973118853
sI84
F1.1235339329254548
sI85
F0.9034486593274601
sI86
F0.5611655228015574
sI87
F1.065204902363151
sI88
F0.682038343985281
sI89
F1.0319068632934285
sI90
F1.177411995155524
sI91
F0.7254816977442232
sI92
F1.052612320449806
sI93
F0.9582294748742248
sI94
F1.1158737302864525
saF0.31561461794019935
aI284
aasS'K'
p18
I3
sS'S_j'
p19
(dp20
I1
F0.009208669145254414
sI2
F0.010175286180835368
sI3
F0.010577664242252508
sI4
F0.010359473996198023
sI5
F0.01017680569369794
sI6
F0.01029282684113809
sI7
F0.00994662128866478
sI8
F0.009844353423066606
sI9
F0.009835672133705401
sI10
F0.01013824745224799
sI11
F0.01102310156727503
sI12
F0.010665060252465768
sI13
F0.009446771731435374
sI14
F0.009890900800615011
sI15
F0.00943740650990489
sI16
F0.009173554299513262
sI17
F0.011101243856189406
sI18
F0.010213479507936387
sI19
F0.009958873785297652
sI20
F0.00997621815257823
sI21
F0.009438247992869662
sI22
F0.010795561725121446
sI23
F0.009669249526061841
sI24
F0.010158489576236964
sI25
F0.010134350159531584
sI26
F0.010122817795394978
sI27
F0.010516096670407179
sI28
F0.009504108653097441
sI29
F0.010046086173387779
sI30
F0.008948657855898923
sI31
F0.01004598035696499
sI32
F0.009100314106367153
sI33
F0.00953499922326781
sI34
F0.010546796163579597
sI35
F0.010454336642583464
sI36
F0.010188335036114436
sI37
F0.010417478031963632
sI38
F0.009770332570479682
sI39
F0.009987487314029202
sI40
F0.010607443502640826
sI41
F0.009279212301436421
sI42
F0.00994682890244066
sI43
F0.009999128616109566
sI44
F0.010065228306205683
sI45
F0.010774178289029927
sI46
F0.009749715333369952
sI47
F0.010108252931126736
sI48
F0.010234496415804754
sI49
F0.010011483156785577
sI50
F0.009925354197335976
sI51
F0.009815977828211935
sI52
F0.00970587863418934
sI53
F0.010308723597807053
sI54
F0.009882992795511416
sI55
F0.009078633366995227
sI56
F0.01003442926793519
sI57
F0.00980602401284852
sI58
F0.009576791363490189
sI59
F0.009599576463830521
sI60
F0.01049214865326503
sI61
F0.010309504233496325
sI62
F0.01034193166904142
sI63
F0.010104053386081764
sI64
F0.009396266914562901
sI65
F0.01035219881154319
sI66
F0.010644560923304949
sI67
F0.010319423017117905
sI68
F0.010328156726395959
sI69
F0.010160154796886096
sI70
F0.01101062107033863
sI71
F0.009631591731848679
sI72
F0.01006880091651575
sI73
F0.009961843377738986
sI74
F0.010051354293985838
sI75
F0.009796308145628773
sI76
F0.010734921910704371
sI77
F0.009664858008439725
sI78
F0.010103208702718962
sI79
F0.010588224254891794
sI80
F0.010140999243582492
sI81
F0.010146752484469161
sI82
F0.00987788711938029
sI83
F0.01083714605967255
sI84
F0.009593452356214362
sI85
F0.010455691386425792
sI86
F0.01048563650361543
sI87
F0.010083051349723373
sI88
F0.009597258239254459
sI89
F0.01023847187019293
sI90
F0.00926515281339155
sI91
F0.009574273416134864
sI92
F0.010651503075138895
sI93
F0.011001407026761136
sI94
F0.009984554485622256
ssS'poss_index'
p21
(dp22
I1
I1
sI2
I1
sI3
I1
sI4
I1
sI5
I1
sI6
I1
sI7
I1
sI8
I1
sI9
I1
sI10
I1
sI11
I1
sI12
I1
sI13
I1
sI14
I1
sI15
I1
sI16
I1
sI17
I1
sI18
I1
sI19
I1
sI20
I1
sI21
I1
sI22
I1
sI23
I1
sI24
I1
sI25
I1
sI26
I1
sI27
I1
sI28
I1
sI29
I1
sI30
I1
sI31
I1
sI32
I1
sI33
I1
sI34
I1
sI35
I1
sI36
I1
sI37
I1
sI38
I1
sI39
I1
sI40
I1
sI41
I1
sI42
I1
sI43
I1
sI44
I1
sI45
I1
sI46
I1
sI47
I1
sI48
I1
sI49
I1
sI50
I1
sI51
I1
sI52
I1
sI53
I1
sI54
I1
sI55
I1
sI56
I1
sI57
I1
sI58
I1
sI59
I1
sI60
I1
sI61
I1
sI62
I1
sI63
I1
sI64
I1
sI65
I1
sI66
I1
sI67
I1
sI68
I1
sI69
I1
sI70
I1
sI71
I1
sI72
I1
sI73
I1
sI74
I1
sI75
I1
sI76
I1
sI77
I1
sI78
I1
sI79
I1
sI80
I1
sI81
I1
sI82
I1
sI83
I1
sI84
I1
sI85
I1
sI86
I1
sI87
I1
sI88
I1
sI89
I1
sI90
I1
sI91
I1
sI92
I1
sI93
I1
sI94
I1
ssb.