ccopy_reg
_reconstructor
p0
(cNaiveCluster
NaiveClustering
p1
c__builtin__
object
p2
Ntp3
Rp4
(dp5
S'I'
p6
I10
sS'Clusters'
p7
(lp8
(lp9
I0
a(dp10
I1
F-0.34828333333333333
sI2
F0.11433333333333336
sI3
F0.19695000000000001
sI4
F0.2307833333333333
sI5
F0.3196333333333334
sI6
F0.40034999999999993
sI7
F0.38386666666666663
sI8
F0.2831666666666667
sI9
F0.19566666666666666
sI10
F0.13970000000000002
sI11
F0.06441666666666665
sI12
F0.06880000000000001
sI13
F0.15816666666666665
sI14
F0.11065000000000003
sI15
F0.10283333333333336
sI16
F0.21104999999999996
sI17
F0.3703833333333333
sI18
F0.5735499999999999
sI19
F0.6641166666666667
sI20
F0.5569166666666667
sI21
F0.5576999999999999
sI22
F0.6177333333333334
sI23
F0.6125833333333334
sI24
F0.5978833333333333
sI25
F0.6505666666666666
sI26
F0.6144166666666666
sI27
F0.6033666666666667
sI28
F0.5060333333333333
sI29
F0.47103333333333336
sI30
F0.5563666666666667
sI31
F0.5664666666666667
sI32
F0.5995166666666667
sI33
F-0.27514999999999995
sI34
F0.20241666666666666
sI35
F0.2764833333333333
sI36
F0.21726666666666672
sI37
F0.26055
sI38
F0.5481833333333334
sI39
F0.5932
sI40
F0.4450166666666666
sI41
F0.35816666666666674
sI42
F0.34886666666666677
sI43
F0.28014999999999995
sI44
F0.31204999999999994
sI45
F0.34985
sI46
F0.4392666666666667
sI47
F0.35813333333333336
sI48
F0.5304166666666666
sI49
F0.5622333333333333
sI50
F0.6481833333333334
sI51
F0.6140833333333333
sI52
F0.56875
sI53
F0.47975
sI54
F0.4943166666666666
sI55
F0.5238833333333333
sI56
F0.5806833333333333
sI57
F0.6137666666666667
sI58
F0.47896666666666676
sI59
F0.4730166666666667
sI60
F0.4782333333333333
sI61
F0.5012166666666666
sI62
F0.48156666666666664
sI63
F0.46711666666666674
sI64
F0.5901833333333333
sI65
F-0.296
sI66
F0.1776333333333333
sI67
F0.32466666666666666
sI68
F0.19198333333333334
sI69
F0.2134333333333333
sI70
F0.46715
sI71
F0.5152666666666667
sI72
F0.3704833333333333
sI73
F0.391
sI74
F0.3015666666666666
sI75
F0.2509
sI76
F0.3977666666666666
sI77
F0.4891166666666667
sI78
F0.5838333333333332
sI79
F0.5252333333333332
sI80
F0.6559666666666666
sI81
F0.6149333333333333
sI82
F0.5269166666666666
sI83
F0.5184333333333334
sI84
F0.3147833333333333
sI85
F0.20725
sI86
F0.21005
sI87
F0.2862
sI88
F0.36096666666666666
sI89
F0.41419999999999996
sI90
F0.3728333333333333
sI91
F0.31466666666666665
sI92
F0.21916666666666665
sI93
F0.23788333333333334
sI94
F0.21426666666666666
sI95
F0.2528
sI96
F0.3595666666666667
sI97
F-0.2259666666666667
sI98
F0.3239833333333333
sI99
F0.4883833333333333
sI100
F0.33315
sI101
F0.25051666666666667
sI102
F0.3886166666666666
sI103
F0.3897
sI104
F0.30843333333333334
sI105
F0.29208333333333336
sI106
F0.23834999999999995
sI107
F0.18306666666666666
sI108
F0.2345833333333333
sI109
F0.46049999999999996
sI110
F0.5084333333333333
sI111
F0.5133
sI112
F0.5435833333333333
sI113
F0.4749333333333333
sI114
F0.4506833333333333
sI115
F0.35555000000000003
sI116
F0.2010833333333333
sI117
F0.00828333333333333
sI118
F0.02858333333333333
sI119
F0.06413333333333333
sI120
F0.20696666666666666
sI121
F0.28071666666666667
sI122
F0.27013333333333334
sI123
F0.15306666666666666
sI124
F0.032283333333333324
sI125
F0.008333333333333321
sI126
F0.05691666666666666
sI127
F0.13215
sI128
F0.24926666666666664
sI129
F-0.025483333333333337
sI130
F0.7020833333333333
sI131
F0.8294166666666668
sI132
F0.5606666666666665
sI133
F0.13331666666666667
sI134
F-0.012416666666666663
sI135
F-0.10228333333333334
sI136
F-0.11756666666666665
sI137
F0.08973333333333333
sI138
F0.09176666666666672
sI139
F-0.0015333333333333588
sI140
F0.08948333333333336
sI141
F0.09743333333333334
sI142
F0.23811666666666675
sI143
F0.27745000000000003
sI144
F0.22213333333333332
sI145
F0.20011666666666666
sI146
F0.25498333333333334
sI147
F0.19960000000000003
sI148
F0.19011666666666666
sI149
F0.10266666666666666
sI150
F0.013766666666666637
sI151
F0.07326666666666669
sI152
F0.17426666666666668
sI153
F0.11486666666666667
sI154
F0.014299999999999986
sI155
F-0.17895
sI156
F-0.38499999999999995
sI157
F-0.46044999999999997
sI158
F-0.2957166666666666
sI159
F-0.15501666666666664
sI160
F-0.08265000000000002
sI161
F-0.10758333333333334
sI162
F0.7625
sI163
F0.8773666666666669
sI164
F0.5945833333333332
sI165
F0.28386666666666666
sI166
F0.047316666666666674
sI167
F-0.06166666666666665
sI168
F-0.06528333333333333
sI169
F-0.04013333333333333
sI170
F-0.07423333333333335
sI171
F-0.14368333333333333
sI172
F-0.08303333333333335
sI173
F0.040516666666666694
sI174
F0.03843333333333331
sI175
F0.141
sI176
F0.07998333333333332
sI177
F-0.0002333333333333215
sI178
F-0.028166666666666663
sI179
F0.06634999999999998
sI180
F-0.010466666666666676
sI181
F-0.09719999999999997
sI182
F-0.08803333333333331
sI183
F0.03443333333333333
sI184
F0.15255000000000002
sI185
F0.23335000000000003
sI186
F0.2018666666666667
sI187
F-0.07783333333333331
sI188
F-0.28395000000000004
sI189
F-0.2855
sI190
F-0.23968333333333333
sI191
F-0.14416666666666667
sI192
F-0.06645
sI193
F-0.2509166666666667
sI194
F0.7124
sI195
F0.6494833333333333
sI196
F0.22046666666666667
sI197
F-0.047599999999999996
sI198
F-0.1031
sI199
F-0.08558333333333334
sI200
F-0.12015
sI201
F-0.1318
sI202
F-0.15903333333333333
sI203
F-0.053866666666666674
sI204
F-0.02705000000000001
sI205
F0.1347666666666667
sI206
F0.2652666666666667
sI207
F0.3447
sI208
F0.33780000000000004
sI209
F0.15471666666666667
sI210
F0.08435000000000001
sI211
F0.013866666666666673
sI212
F-0.04343333333333333
sI213
F-0.12433333333333335
sI214
F-0.12930000000000003
sI215
F-0.11965
sI216
F0.10593333333333335
sI217
F0.34945
sI218
F0.30935
sI219
F0.23681666666666668
sI220
F-0.01918333333333332
sI221
F-0.038883333333333304
sI222
F0.014616666666666646
sI223
F0.1306
sI224
F0.1707333333333333
sI225
F-0.4428666666666667
sI226
F-0.007033333333333322
sI227
F0.07145
sI228
F0.16811666666666664
sI229
F0.2802
sI230
F0.35061666666666663
sI231
F0.36263333333333336
sI232
F0.22194999999999998
sI233
F0.10671666666666668
sI234
F0.042899999999999994
sI235
F-0.059300000000000005
sI236
F-0.03498333333333334
sI237
F0.010916666666666677
sI238
F0.10748333333333335
sI239
F0.06746666666666665
sI240
F0.15059999999999996
sI241
F0.3302833333333334
sI242
F0.46733333333333327
sI243
F0.5243666666666666
sI244
F0.4908833333333333
sI245
F0.5194833333333334
sI246
F0.6430833333333333
sI247
F0.4972666666666666
sI248
F0.6465333333333333
sI249
F0.7162666666666667
sI250
F0.6869833333333334
sI251
F0.6298833333333332
sI252
F0.5571666666666667
sI253
F0.4793333333333333
sI254
F0.48771666666666663
sI255
F0.5320166666666666
sI256
F0.5770666666666667
sI257
F-0.34521666666666667
sI258
F0.06411666666666666
sI259
F0.19995
sI260
F0.16781666666666664
sI261
F0.21653333333333333
sI262
F0.3412333333333333
sI263
F0.3258166666666667
sI264
F0.21656666666666666
sI265
F0.1829166666666667
sI266
F0.14154999999999998
sI267
F0.03218333333333333
sI268
F0.062416666666666676
sI269
F0.20076666666666665
sI270
F0.13829999999999998
sI271
F0.1295
sI272
F0.26664999999999994
sI273
F0.3537333333333333
sI274
F0.5282333333333332
sI275
F0.66675
sI276
F0.6108000000000001
sI277
F0.6053166666666667
sI278
F0.5626333333333333
sI279
F0.60715
sI280
F0.5591
sI281
F0.549
sI282
F0.6514833333333333
sI283
F0.6215166666666667
sI284
F0.4687166666666666
sI285
F0.49498333333333333
sI286
F0.5791333333333333
sI287
F0.5857
sI288
F0.6179833333333332
sI289
F-0.1774
sI290
F0.38875
sI291
F0.5835833333333333
sI292
F0.5122333333333334
sI293
F0.5919333333333334
sI294
F0.4884166666666666
sI295
F0.48103333333333337
sI296
F0.36424999999999996
sI297
F0.3222333333333333
sI298
F0.20545
sI299
F0.17295000000000005
sI300
F0.31
sI301
F0.5044166666666666
sI302
F0.59045
sI303
F0.5954333333333334
sI304
F0.5219333333333334
sI305
F0.42939999999999995
sI306
F0.42261666666666664
sI307
F0.32658333333333334
sI308
F0.13916666666666666
sI309
F-0.023149999999999997
sI310
F-0.10654999999999999
sI311
F-0.028249999999999997
sI312
F0.008066666666666649
sI313
F0.2662166666666667
sI314
F0.36998333333333333
sI315
F0.22886666666666666
sI316
F-0.00801666666666667
sI317
F0.037066666666666664
sI318
F0.10116666666666665
sI319
F0.18213333333333337
sI320
F0.25516666666666665
sI321
F-0.9125166666666668
sI322
F-0.8585833333333335
sI323
F-0.78425
sI324
F-0.7594500000000001
sI325
F-0.7241166666666666
sI326
F-0.6986500000000001
sI327
F-0.7114833333333334
sI328
F-0.7395666666666667
sI329
F-0.7060166666666666
sI330
F-0.6425833333333334
sI331
F-0.3247
sI332
F0.4575166666666666
sI333
F0.6714666666666668
sI334
F0.7690499999999999
sI335
F0.7634166666666667
sI336
F0.7584833333333332
sI337
F0.6686333333333332
sI338
F0.4828
sI339
F0.42335000000000006
sI340
F0.30526666666666663
sI341
F0.08085
sI342
F-0.30595
sI343
F-0.7336999999999999
sI344
F-0.8436333333333335
sI345
F-0.8792500000000001
sI346
F-0.9048666666666667
sI347
F-0.9597000000000001
sI348
F-0.9669666666666666
sI349
F-0.9801666666666667
sI350
F-0.9853833333333335
sI351
F-0.9920500000000001
sI352
F-1.0
sI353
F-1.0
sI354
F-0.6777833333333333
sI355
F-0.6619666666666667
sI356
F-0.6601333333333333
sI357
F-0.6609
sI358
F-0.6615833333333333
sI359
F-0.63065
sI360
F-0.6010500000000001
sI361
F-0.6192833333333334
sI362
F-0.5869500000000001
sI363
F-0.4629166666666667
sI364
F-0.11093333333333333
sI365
F0.46871666666666667
sI366
F0.51185
sI367
F0.5700999999999999
sI368
F0.5706666666666667
sI369
F0.3606166666666667
sI370
F0.10179999999999999
sI371
F-0.23325
sI372
F-0.3524
sI373
F-0.40249999999999997
sI374
F-0.5249833333333334
sI375
F-0.6541833333333332
sI376
F-0.8211999999999999
sI377
F-0.8574499999999999
sI378
F-0.8774499999999998
sI379
F-0.8929833333333332
sI380
F-0.9747833333333333
sI381
F-0.9807500000000001
sI382
F-0.9887333333333334
sI383
F-0.9920000000000001
sI384
F-0.9955000000000002
sI385
F-1.0
sI386
F-1.0
sI387
F-0.8678000000000001
sI388
F-0.8033
sI389
F-0.7728166666666667
sI390
F-0.7692
sI391
F-0.7708666666666666
sI392
F-0.7604333333333334
sI393
F-0.7217499999999999
sI394
F-0.76005
sI395
F-0.7240333333333332
sI396
F-0.5834333333333334
sI397
F-0.4245666666666667
sI398
F-0.3609500000000001
sI399
F-0.41435
sI400
F-0.4809666666666666
sI401
F-0.51705
sI402
F-0.5730666666666667
sI403
F-0.6518166666666667
sI404
F-0.7738999999999999
sI405
F-0.8669
sI406
F-0.8620333333333334
sI407
F-0.8483166666666667
sI408
F-0.7548833333333334
sI409
F-0.6858166666666666
sI410
F-0.6027499999999999
sI411
F-0.6344
sI412
F-0.65135
sI413
F-0.7746666666666667
sI414
F-0.82105
sI415
F-0.8422500000000002
sI416
F-0.8675166666666668
sI417
F-0.8697333333333335
sI418
F-1.0
sI419
F-1.0
sI420
F-0.6452333333333333
sI421
F-0.5499999999999999
sI422
F-0.6833333333333335
sI423
F-0.8880833333333333
sI424
F-0.8142833333333332
sI425
F-0.44046666666666673
sI426
F-0.6071333333333333
sI427
F-0.40238333333333337
sI428
F-0.32616666666666666
sI429
F0.5904833333333334
sI430
F0.6356999999999999
sI431
F0.6714333333333333
sI432
F-0.6738333333333333
sI433
F-0.8190333333333333
sI434
F-0.49520000000000003
sI435
F-0.4190500000000001
sI436
F-0.052400000000000044
sI437
F-0.00475000000000006
sI438
F-0.5523666666666667
sI439
F-0.6738000000000002
sI440
F-0.16905
sI441
F-0.2285833333333334
sI442
F-0.5142666666666666
sI443
F-0.7809666666666666
sI444
F-0.7095166666666666
sI445
F-0.6928500000000001
sI446
F-0.8809500000000001
sI447
F-0.8404666666666668
sI448
F-0.9261833333333334
sI449
F-0.9785666666666667
sI450
F-0.9142833333333334
sI451
F-1.0
sI452
F-1.0
sI453
F0.8704000000000001
sI454
F0.8610166666666667
sI455
F0.8575833333333334
sI456
F0.8500500000000002
sI457
F0.8531333333333334
sI458
F0.8486833333333335
sI459
F0.8485500000000001
sI460
F0.8495333333333334
sI461
F0.8212666666666667
sI462
F0.5583333333333332
sI463
F0.34636666666666666
sI464
F0.3376833333333333
sI465
F0.3196833333333334
sI466
F0.3158
sI467
F0.2906166666666667
sI468
F0.26088333333333336
sI469
F0.19653333333333334
sI470
F0.0756
sI471
F-0.13275
sI472
F-0.2748833333333333
sI473
F-0.6077333333333332
sI474
F0.2882666666666667
sI475
F-0.03601666666666668
sI476
F0.15285
sI477
F0.4863166666666666
sI478
F0.5825999999999999
sI479
F0.56165
sI480
F0.375
sI481
F-0.31315000000000004
sI482
F-0.03183333333333334
sI483
F0.22338333333333332
sI484
F0.18505
sI485
F0.14321666666666666
sI486
F0.014733333333333341
sI487
F0.15839999999999999
sI488
F0.28811666666666663
sI489
F0.4458166666666667
sI490
F0.6784
sI491
F0.7341166666666666
sI492
F0.76535
sI493
F0.8795833333333334
sI494
F0.87595
sI495
F0.7793833333333333
sI496
F0.7751
sI497
F0.8353166666666667
sI498
F0.8037166666666667
sI499
F0.6784833333333333
sI500
F0.60935
sI501
F0.5167
sI502
F0.40628333333333333
sI503
F0.1624
sI504
F0.030833333333333327
sI505
F0.011416666666666658
sI506
F0.028899999999999995
sI507
F0.07381666666666667
sI508
F0.05081666666666667
sI509
F-0.00806666666666667
sI510
F-0.06281666666666666
sI511
F-0.08106666666666666
sI512
F-0.38445
sI513
F-0.09926666666666667
sI514
F0.10181666666666667
sI515
F0.34833333333333333
sI516
F0.36983333333333335
sI517
F0.2926833333333333
sI518
F0.0802
sI519
F0.21061666666666667
sI520
F0.311
sI521
F0.4573833333333333
sI522
F0.6095666666666667
sI523
F0.7060666666666667
sI524
F0.71665
sI525
F0.8202666666666667
sI526
F0.8156666666666667
sI527
F0.7031666666666666
sI528
F0.7584
sI529
F0.7500333333333333
sI530
F0.7770666666666667
sI531
F0.6552166666666668
sI532
F0.56385
sI533
F0.5264833333333333
sI534
F0.3691666666666667
sI535
F0.12288333333333333
sI536
F-0.014583333333333332
sI537
F-0.01481666666666666
sI538
F0.031100000000000003
sI539
F0.07005
sI540
F0.09531666666666666
sI541
F0.028383333333333347
sI542
F0.008600000000000017
sI543
F-0.09363333333333329
sI544
F-0.40809999999999996
sI545
F-0.03873333333333335
sI546
F0.21966666666666668
sI547
F0.41440000000000005
sI548
F0.434
sI549
F0.3488166666666667
sI550
F0.22630000000000003
sI551
F0.3367
sI552
F0.3847166666666667
sI553
F0.5422166666666667
sI554
F0.70485
sI555
F0.7666000000000001
sI556
F0.8055166666666668
sI557
F0.8461333333333334
sI558
F0.7983499999999999
sI559
F0.7166333333333333
sI560
F0.7487
sI561
F0.7370333333333333
sI562
F0.7681499999999999
sI563
F0.7144
sI564
F0.6912500000000001
sI565
F0.5765333333333333
sI566
F0.36160000000000003
sI567
F0.19049999999999997
sI568
F0.08574999999999999
sI569
F0.01343333333333333
sI570
F-0.05248333333333334
sI571
F0.11201666666666664
sI572
F0.12358333333333334
sI573
F0.08506666666666667
sI574
F0.03910000000000002
sI575
F-0.07901666666666667
sI576
F-0.3437
sI577
F0.47836666666666655
sI578
F-0.8333333333333334
sI579
F-0.6666666666666666
sI580
F0.49999999999999994
sI581
F-0.44999999999999996
sI582
F-1.0
sI583
F-0.6
sI584
F-0.3416833333333334
sI585
F-1.0
sI586
F-0.22910000000000003
sI587
F-0.04129999999999999
sI588
F0.031133333333333343
sI589
F0.34765
sI590
F0.22771666666666668
sI591
F0.3462000000000001
sI592
F0.5775333333333332
sI593
F0.6067333333333333
sI594
F0.41988333333333333
sI595
F0.46596666666666664
sI596
F0.28098333333333336
sI597
F0.30346666666666666
sI598
F0.4016
sI599
F0.43110000000000004
sI600
F0.3895
sI601
F0.4537333333333333
sI602
F0.5348666666666667
sI603
F0.45311666666666667
sI604
F0.34636666666666666
sI605
F0.2550333333333333
sI606
F0.34099999999999997
sI607
F0.2845833333333333
sI608
F0.3008166666666667
sI609
F0.3424
sI610
F0.2996833333333333
sI611
F0.2969666666666667
sI612
F0.3649999999999999
sI613
F0.27666666666666667
sI614
F0.20779999999999998
sI615
F0.12225000000000003
sI616
F0.013349999999999997
sI617
F-0.3331166666666666
sa(dp11
I1
F0.07091183606060608
sI2
F0.1328395078787879
sI3
F0.07875367363636365
sI4
F0.08842789424242425
sI5
F0.09822951878787879
sI6
F0.08991535363636365
sI7
F0.07038344969696969
sI8
F0.05917602787878788
sI9
F0.04491411151515151
sI10
F0.21301878909090907
sI11
F0.14659485424242424
sI12
F0.13795633454545453
sI13
F0.19675515515151518
sI14
F0.15674275727272724
sI15
F0.13022343151515153
sI16
F0.16366803727272733
sI17
F0.1791696687878788
sI18
F0.17000226272727278
sI19
F0.07997510151515153
sI20
F0.07788265787878787
sI21
F0.08746353818181818
sI22
F0.09280152242424243
sI23
F0.1159722724242424
sI24
F0.11912068696969698
sI25
F0.1630826460606061
sI26
F0.19804646151515154
sI27
F0.16859814424242425
sI28
F0.16638920606060612
sI29
F0.13529832606060607
sI30
F0.06401740242424242
sI31
F0.05084784242424242
sI32
F0.03488710151515152
sI33
F0.09762377545454545
sI34
F0.17716251969696967
sI35
F0.10334325424242424
sI36
F0.09044646060606064
sI37
F0.20229345545454544
sI38
F0.12944458515151513
sI39
F0.08848951272727273
sI40
F0.05909229424242424
sI41
F0.07443744606060605
sI42
F0.1036039587878788
sI43
F0.06337893909090908
sI44
F0.11384269181818182
sI45
F0.10767915
sI46
F0.09476615515151515
sI47
F0.15941288242424242
sI48
F0.1875009196969697
sI49
F0.16635806424242425
sI50
F0.1057281196969697
sI51
F0.04750431606060605
sI52
F0.06120003727272728
sI53
F0.11574624090909091
sI54
F0.12033688333333334
sI55
F0.1098404106060606
sI56
F0.12500875242424242
sI57
F0.1443495696969697
sI58
F0.31319046424242425
sI59
F0.2736586796969697
sI60
F0.1773352206060606
sI61
F0.094358926969697
sI62
F0.06872339515151514
sI63
F0.03105659242424243
sI64
F0.061584548787878786
sI65
F0.08359070545454544
sI66
F0.18363173696969698
sI67
F0.1308723515151515
sI68
F0.17327219242424236
sI69
F0.0755754096969697
sI70
F0.15041600818181816
sI71
F0.09964681696969697
sI72
F0.06549619969696971
sI73
F0.0464297309090909
sI74
F0.06231953333333333
sI75
F0.07839798181818185
sI76
F0.07886936606060606
sI77
F0.09731018515151514
sI78
F0.13012519151515153
sI79
F0.16883860242424242
sI80
F0.09980798424242425
sI81
F0.09365800969696968
sI82
F0.08294771242424243
sI83
F0.09730550424242425
sI84
F0.1085264615151515
sI85
F0.16264953545454547
sI86
F0.17454939
sI87
F0.16943476363636364
sI88
F0.19610052242424242
sI89
F0.16646835636363638
sI90
F0.2798937296969697
sI91
F0.33105427151515143
sI92
F0.2518760642424243
sI93
F0.1857354287878788
sI94
F0.14526174060606062
sI95
F0.07109727272727272
sI96
F0.10760949696969695
sI97
F0.08933199151515156
sI98
F0.15744634515151515
sI99
F0.13209298515151516
sI100
F0.2265321027272727
sI101
F0.21128287606060608
sI102
F0.17644443969696968
sI103
F0.1468546581818182
sI104
F0.18882161333333333
sI105
F0.15788836696969696
sI106
F0.0975510190909091
sI107
F0.22008842424242425
sI108
F0.17891744333333334
sI109
F0.1453400181818182
sI110
F0.09882913333333333
sI111
F0.1417475454545455
sI112
F0.15797953060606057
sI113
F0.19264889696969698
sI114
F0.14671697787878785
sI115
F0.11605482272727273
sI116
F0.10482452696969699
sI117
F0.08166878151515151
sI118
F0.08239336333333333
sI119
F0.17742576969696974
sI120
F0.16552387515151515
sI121
F0.24006278151515156
sI122
F0.3184204824242425
sI123
F0.2846467515151515
sI124
F0.32946670878787876
sI125
F0.2922251224242424
sI126
F0.2813489996969697
sI127
F0.18717413181818185
sI128
F0.19834536969696967
sI129
F0.11795073787878789
sI130
F0.04572958878787879
sI131
F0.04025061424242424
sI132
F0.29552920969696966
sI133
F0.19658465060606062
sI134
F0.06979403242424244
sI135
F0.13356182878787884
sI136
F0.1424340133333333
sI137
F0.17829475151515148
sI138
F0.15434658787878786
sI139
F0.3467894424242425
sI140
F0.33018548696969696
sI141
F0.24361023151515152
sI142
F0.22648816333333333
sI143
F0.20689649545454544
sI144
F0.18181544969696967
sI145
F0.13693344333333332
sI146
F0.08527157424242422
sI147
F0.17274842181818179
sI148
F0.1433680396969697
sI149
F0.1562900824242424
sI150
F0.1333246533333333
sI151
F0.17040155878787877
sI152
F0.2140386787878788
sI153
F0.26350187878787884
sI154
F0.31461942909090906
sI155
F0.28728147000000004
sI156
F0.21936031272727272
sI157
F0.3067267136363636
sI158
F0.2977320687878788
sI159
F0.34794831606060606
sI160
F0.39338456090909085
sI161
F0.21282576333333328
sI162
F0.06745337818181818
sI163
F0.015363249696969694
sI164
F0.12731462878787878
sI165
F0.12478188606060607
sI166
F0.12350134878787879
sI167
F0.2338949624242424
sI168
F0.199701566969697
sI169
F0.09493448969696969
sI170
F0.23554255878787883
sI171
F0.15163828696969694
sI172
F0.2097498460606061
sI173
F0.19225314515151515
sI174
F0.2892983115151515
sI175
F0.22405165818181816
sI176
F0.12884425787878792
sI177
F0.11128873333333336
sI178
F0.12538870424242424
sI179
F0.13856616090909088
sI180
F0.18922538424242422
sI181
F0.13472798545454548
sI182
F0.13143146787878787
sI183
F0.2015206678787879
sI184
F0.21042820454545458
sI185
F0.14824672818181822
sI186
F0.18447139151515152
sI187
F0.33322929333333334
sI188
F0.21426653181818178
sI189
F0.1711887527272727
sI190
F0.19344583606060606
sI191
F0.4169850678787878
sI192
F0.45763374636363635
sI193
F0.20977753787878786
sI194
F0.10505034181818179
sI195
F0.07566422151515152
sI196
F0.07314667878787881
sI197
F0.043915825454545455
sI198
F0.16657000363636362
sI199
F0.17733842515151516
sI200
F0.10559039363636362
sI201
F0.050197018181818175
sI202
F0.13222197696969698
sI203
F0.21574749333333332
sI204
F0.25596055363636366
sI205
F0.2416481515151515
sI206
F0.2756695006060606
sI207
F0.21989932
sI208
F0.2651166981818182
sI209
F0.29260603969696963
sI210
F0.15953436454545455
sI211
F0.14589545696969697
sI212
F0.09821514787878788
sI213
F0.09185248242424243
sI214
F0.044366818181818174
sI215
F0.10778412454545454
sI216
F0.17527090424242422
sI217
F0.1355022918181818
sI218
F0.33825339
sI219
F0.441253886969697
sI220
F0.43478615606060605
sI221
F0.33183830151515153
sI222
F0.2339057633333333
sI223
F0.3073208872727273
sI224
F0.3618818496969697
sI225
F0.09802751515151516
sI226
F0.13338468242424242
sI227
F0.051292415454545444
sI228
F0.0515077996969697
sI229
F0.057636538181818193
sI230
F0.0647353706060606
sI231
F0.08593131515151516
sI232
F0.08091877909090908
sI233
F0.13057175606060606
sI234
F0.24191686909090912
sI235
F0.1509460981818182
sI236
F0.1580030651515152
sI237
F0.13880139242424241
sI238
F0.10076201060606059
sI239
F0.09265606787878788
sI240
F0.10385340363636364
sI241
F0.1467794796969697
sI242
F0.18255598060606062
sI243
F0.05957925696969698
sI244
F0.07821076696969695
sI245
F0.15917071606060604
sI246
F0.08531481787878788
sI247
F0.1085563515151515
sI248
F0.04018166787878789
sI249
F0.05485222787878788
sI250
F0.06458133424242425
sI251
F0.09616448333333333
sI252
F0.10514094424242426
sI253
F0.11435861333333334
sI254
F0.1485020106060606
sI255
F0.14655561060606062
sI256
F0.09163623515151516
sI257
F0.058133043333333335
sI258
F0.13456112333333337
sI259
F0.07093245181818181
sI260
F0.09441915242424241
sI261
F0.17297550787878788
sI262
F0.07096705333333332
sI263
F0.04910928333333332
sI264
F0.0743419406060606
sI265
F0.08666000333333332
sI266
F0.17756301909090907
sI267
F0.133453646969697
sI268
F0.12752847606060605
sI269
F0.18001879878787874
sI270
F0.19173467272727274
sI271
F0.1394437781818182
sI272
F0.11301240818181815
sI273
F0.18552565333333335
sI274
F0.17445965696969698
sI275
F0.07859469181818184
sI276
F0.08294269818181818
sI277
F0.052381014242424244
sI278
F0.17447747515151513
sI279
F0.1401373754545455
sI280
F0.09912602545454546
sI281
F0.21909106909090917
sI282
F0.22958768333333335
sI283
F0.2179837924242424
sI284
F0.20030287606060604
sI285
F0.10355324696969696
sI286
F0.08613082424242423
sI287
F0.07360942181818182
sI288
F0.057239356060606074
sI289
F0.0996321527272727
sI290
F0.08787469181818183
sI291
F0.1021439815151515
sI292
F0.07951852969696971
sI293
F0.07198495515151516
sI294
F0.14425507242424243
sI295
F0.08782933696969697
sI296
F0.05909371727272727
sI297
F0.1064724715151515
sI298
F0.19340101181818184
sI299
F0.2768308154545454
sI300
F0.17842334545454547
sI301
F0.11040039606060606
sI302
F0.11459090999999999
sI303
F0.10217917696969697
sI304
F0.17008465696969696
sI305
F0.24412354909090908
sI306
F0.16226811969696966
sI307
F0.13690143606060604
sI308
F0.08004367878787878
sI309
F0.07498627727272728
sI310
F0.1298072518181818
sI311
F0.18758803000000004
sI312
F0.1742695878787879
sI313
F0.14664893424242428
sI314
F0.25250579242424237
sI315
F0.2604878715151515
sI316
F0.19410022151515152
sI317
F0.16423655515151514
sI318
F0.12772222424242421
sI319
F0.08951566787878786
sI320
F0.10102615878787878
sI321
F0.04261513060606061
sI322
F0.10625706515151513
sI323
F0.24536872818181815
sI324
F0.29876706272727266
sI325
F0.3923593706060605
sI326
F0.33262968818181826
sI327
F0.2940114287878788
sI328
F0.21751575151515154
sI329
F0.1912129851515151
sI330
F0.1433821487878788
sI331
F0.10815985818181817
sI332
F0.04975287606060606
sI333
F0.04764160242424244
sI334
F0.027543273636363642
sI335
F0.01880606151515151
sI336
F0.039208308787878794
sI337
F0.053467198787878784
sI338
F0.10466055272727272
sI339
F0.1678137172727273
sI340
F0.1391891006060606
sI341
F0.1276127790909091
sI342
F0.051993979090909095
sI343
F0.012956316363636365
sI344
F0.006050282424242422
sI345
F0.003896873636363636
sI346
F0.0037715515151515162
sI347
F0.0035394509090909097
sI348
F0.002001962424242424
sI349
F0.0012746824242424242
sI350
F0.0007626942424242422
sI351
F0.0003529027272727275
sI352
F1.9463293932330617e-05
sI353
F1.514604729573927e-05
sI354
F0.5553330578787878
sI355
F0.6027635042424244
sI356
F0.6015817406060606
sI357
F0.6020559745454546
sI358
F0.6024690069696967
sI359
F0.5818291863636365
sI360
F0.569109179090909
sI361
F0.574696585151515
sI362
F0.5605035863636364
sI363
F0.5226731669696969
sI364
F0.3739601987878788
sI365
F0.04672535606060606
sI366
F0.050050975454545454
sI367
F0.1537392109090909
sI368
F0.09575780606060605
sI369
F0.21624479606060604
sI370
F0.25772117090909086
sI371
F0.27413257545454545
sI372
F0.31975882181818177
sI373
F0.23455597454545454
sI374
F0.0730926506060606
sI375
F0.0445435596969697
sI376
F0.01869949818181818
sI377
F0.013991317272727271
sI378
F0.013541673636363634
sI379
F0.00961183606060606
sI380
F0.0008329269696969696
sI381
F0.0005451790909090911
sI382
F0.0004064315151515155
sI383
F0.0002194327272727272
sI384
F0.00011308000000000024
sI385
F1.3523390476190333e-05
sI386
F1.0624028669172971e-05
sI387
F0.06914058181818179
sI388
F0.16718525454545452
sI389
F0.19030682515151517
sI390
F0.19989736727272728
sI391
F0.1869336896969697
sI392
F0.1098514315151515
sI393
F0.08915049545454547
sI394
F0.06559075000000002
sI395
F0.048859686060606054
sI396
F0.07798483515151516
sI397
F0.0357168206060606
sI398
F0.07373360090909092
sI399
F0.08210648818181819
sI400
F0.059530711515151526
sI401
F0.060158306363636366
sI402
F0.04789743515151516
sI403
F0.05227625787878787
sI404
F0.018092999999999995
sI405
F0.005345727272727269
sI406
F0.006314878787878789
sI407
F0.004487937878787879
sI408
F0.01990575606060606
sI409
F0.024577385151515148
sI410
F0.023979673636363642
sI411
F0.04951260363636363
sI412
F0.05010717181818183
sI413
F0.08566669333333332
sI414
F0.06644237909090911
sI415
F0.13096175363636364
sI416
F0.13363024333333334
sI417
F0.1569285696969697
sI418
F2.5807805102756854e-05
sI419
F2.1302115729323508e-05
sI420
F0.5959853806060605
sI421
F0.6705803345454545
sI422
F0.4045220533333335
sI423
F0.04104159606060606
sI424
F0.09624482515151517
sI425
F0.40480252606060607
sI426
F0.3977818206060606
sI427
F0.46966401060606067
sI428
F0.5434289442424243
sI429
F0.3930652833333334
sI430
F0.2832168472727273
sI431
F0.2322057151515151
sI432
F0.14758998424242425
sI433
F0.029285395151515157
sI434
F0.5215837745454545
sI435
F0.5216055936363637
sI436
F0.7398877454545454
sI437
F0.8367758336363638
sI438
F0.3547745224242424
sI439
F0.3056630327272727
sI440
F0.5452140154545454
sI441
F0.20529929787878787
sI442
F0.10968683151515152
sI443
F0.038491482424242426
sI444
F0.09376962515151514
sI445
F0.2132879790909091
sI446
F0.05385264090909092
sI447
F0.09847020606060605
sI448
F0.039557341515151515
sI449
F0.0055126533333333325
sI450
F0.05491725424242426
sI451
F7.434678901253182e-05
sI452
F7.995815426315845e-05
sI453
F0.03767320727272728
sI454
F0.0492169196969697
sI455
F0.052371145151515155
sI456
F0.055036953636363635
sI457
F0.05196100606060606
sI458
F0.056748912424242424
sI459
F0.06600090272727273
sI460
F0.07499152242424245
sI461
F0.09292676606060606
sI462
F0.07842203878787876
sI463
F0.4137738460606061
sI464
F0.42716833787878794
sI465
F0.43393004696969695
sI466
F0.4344693890909091
sI467
F0.4150004542424242
sI468
F0.4020988324242424
sI469
F0.38328281696969696
sI470
F0.35374484363636366
sI471
F0.2518859281818182
sI472
F0.12720372696969698
sI473
F0.016823813333333337
sI474
F0.15418936969696967
sI475
F0.40326923242424245
sI476
F0.19185377545454543
sI477
F0.09441038151515152
sI478
F0.07003546181818182
sI479
F0.07129848090909091
sI480
F0.7576446472727273
sI481
F0.07748744818181819
sI482
F0.06474564242424244
sI483
F0.05038400333333333
sI484
F0.12209312818181821
sI485
F0.13687967606060608
sI486
F0.1589312678787879
sI487
F0.12005590545454546
sI488
F0.15457773424242424
sI489
F0.1687923015151515
sI490
F0.0794833309090909
sI491
F0.03773114515151515
sI492
F0.03363944090909091
sI493
F0.0224214796969697
sI494
F0.023020066363636363
sI495
F0.033584636060606056
sI496
F0.023153865454545453
sI497
F0.01481180696969697
sI498
F0.01566585060606061
sI499
F0.024388686969696968
sI500
F0.048129586363636366
sI501
F0.06519268000000002
sI502
F0.11655245424242422
sI503
F0.1380073818181818
sI504
F0.08603656606060607
sI505
F0.09367581424242424
sI506
F0.08047622181818183
sI507
F0.08870278151515151
sI508
F0.08383880333333334
sI509
F0.10859106424242425
sI510
F0.1256739015151515
sI511
F0.13269229333333332
sI512
F0.09517547000000001
sI513
F0.06240048969696968
sI514
F0.044743014242424245
sI515
F0.043414322424242424
sI516
F0.0538922896969697
sI517
F0.08195191606060608
sI518
F0.08270142545454547
sI519
F0.13733842515151512
sI520
F0.11926579636363636
sI521
F0.1343276396969697
sI522
F0.06023121333333333
sI523
F0.046706926060606065
sI524
F0.042880444545454546
sI525
F0.03865605333333333
sI526
F0.0297748896969697
sI527
F0.09887286424242422
sI528
F0.08521781818181819
sI529
F0.08044274787878787
sI530
F0.02338218424242424
sI531
F0.02065063606060606
sI532
F0.04145173181818182
sI533
F0.04913726151515152
sI534
F0.14218394787878788
sI535
F0.13497658515151514
sI536
F0.11947933424242427
sI537
F0.09091240333333334
sI538
F0.05525743636363637
sI539
F0.03978050272727273
sI540
F0.043730948787878796
sI541
F0.06003909424242425
sI542
F0.08521471272727273
sI543
F0.10316113333333334
sI544
F0.10394816363636365
sI545
F0.07159214787878788
sI546
F0.03033800242424243
sI547
F0.06461095272727271
sI548
F0.10792576000000001
sI549
F0.127349566969697
sI550
F0.15422132727272725
sI551
F0.2005771381818182
sI552
F0.1360683887878788
sI553
F0.17222182151515153
sI554
F0.0741948518181818
sI555
F0.010164443636363636
sI556
F0.016097734242424243
sI557
F0.011983086060606062
sI558
F0.02460699727272727
sI559
F0.043716616969696975
sI560
F0.030899749090909093
sI561
F0.03482307515151516
sI562
F0.01692752818181819
sI563
F0.026523709090909092
sI564
F0.03410472090909092
sI565
F0.05184022787878788
sI566
F0.14817629818181818
sI567
F0.11046610545454544
sI568
F0.10286915727272729
sI569
F0.06133127878787879
sI570
F0.04802995242424243
sI571
F0.06135769060606061
sI572
F0.07119287606060606
sI573
F0.0927064315151515
sI574
F0.09991834545454545
sI575
F0.14467606878787878
sI576
F0.12015258545454545
sI577
F0.43281839151515145
sI578
F0.3333333333333334
sI579
F0.6060606060606059
sI580
F0.8181818181818181
sI581
F0.7718181818181818
sI582
F0.00021280952380952497
sI583
F0.37090909090909097
sI584
F0.5093336396969698
sI585
F0.0015398496240601645
sI586
F0.056755043636363633
sI587
F0.12144885454545455
sI588
F0.06740526060606061
sI589
F0.03595475727272728
sI590
F0.0472013196969697
sI591
F0.041945869090909096
sI592
F0.11490706424242424
sI593
F0.09109623515151516
sI594
F0.09541796696969697
sI595
F0.07428898787878788
sI596
F0.08964121060606059
sI597
F0.06536978424242425
sI598
F0.05605177454545454
sI599
F0.09512132
sI600
F0.11394889818181818
sI601
F0.05564349333333332
sI602
F0.07189055515151516
sI603
F0.09954815606060606
sI604
F0.12261587515151515
sI605
F0.10277951151515152
sI606
F0.07255841454545454
sI607
F0.08678254151515151
sI608
F0.12428683242424242
sI609
F0.09834746909090908
sI610
F0.11225320333333333
sI611
F0.13027472606060606
sI612
F0.1350100509090909
sI613
F0.10458899878787878
sI614
F0.09623968000000002
sI615
F0.10864528090909092
sI616
F0.06276277181818182
sI617
F0.1152891087878788
saF0.03225806451612903
aI12
aa(lp12
I1
a(dp13
I1
F-0.44208587896253615
sI2
F0.024422478386167155
sI3
F0.16957002881844374
sI4
F0.3929262247838615
sI5
F0.5239902017291064
sI6
F0.471463976945245
sI7
F0.26320576368876064
sI8
F0.08360115273775219
sI9
F-0.05263804034582135
sI10
F-0.12861786743515852
sI11
F-0.13682132564841498
sI12
F-0.06503976945244958
sI13
F0.06572161383285305
sI14
F0.24016195965417872
sI15
F0.4288536023054754
sI16
F0.5501216138328534
sI17
F0.6162910662824204
sI18
F0.6655567723342948
sI19
F0.7174720461095105
sI20
F0.7639734870317005
sI21
F0.7713550432276661
sI22
F0.7183423631123923
sI23
F0.6678138328530255
sI24
F0.6399827089337176
sI25
F0.6266662824207492
sI26
F0.5943412103746399
sI27
F0.5593556195965419
sI28
F0.5187158501440917
sI29
F0.4733792507204609
sI30
F0.4132749279538907
sI31
F0.3502270893371758
sI32
F0.28731988472622483
sI33
F-0.42679596541786746
sI34
F0.02238674351585014
sI35
F0.14261556195965422
sI36
F0.35494063400576387
sI37
F0.5389279538904895
sI38
F0.5767596541786739
sI39
F0.41553429394812674
sI40
F0.24746167146974077
sI41
F0.12243342939481272
sI42
F0.040717002881844384
sI43
F0.04807838616714697
sI44
F0.15342074927953891
sI45
F0.3034317002881844
sI46
F0.4781198847262247
sI47
F0.6177273775216142
sI48
F0.6617487031700288
sI49
F0.6516610951008647
sI50
F0.6233723342939482
sI51
F0.6349775216138331
sI52
F0.6520242074927953
sI53
F0.6705446685878963
sI54
F0.6362708933717582
sI55
F0.5934933717579248
sI56
F0.578034582132565
sI57
F0.5664063400576371
sI58
F0.5344063400576367
sI59
F0.5166806916426514
sI60
F0.4819031700288182
sI61
F0.4336703170028817
sI62
F0.3661487031700287
sI63
F0.30878847262247844
sI64
F0.23720922190201735
sI65
F-0.4065233429394815
sI66
F0.04977060518731988
sI67
F0.1684253602305476
sI68
F0.35068587896253617
sI69
F0.546915273775216
sI70
F0.6281971181556204
sI71
F0.5272195965417867
sI72
F0.3824138328530259
sI73
F0.3045371757925073
sI74
F0.2581244956772334
sI75
F0.3159446685878961
sI76
F0.44680288184438033
sI77
F0.5759711815561956
sI78
F0.6356887608069165
sI79
F0.6283982708933716
sI80
F0.5734870317002881
sI81
F0.5023181556195966
sI82
F0.45050432276657043
sI83
F0.43451066282420747
sI84
F0.4468242074927951
sI85
F0.47245244956772325
sI86
F0.4729129682997117
sI87
F0.45407089337175754
sI88
F0.45909567723342937
sI89
F0.4556979827089335
sI90
F0.45340403458213263
sI91
F0.43252103746397697
sI92
F0.3955239193083571
sI93
F0.34676772334293926
sI94
F0.2774328530259366
sI95
F0.21149682997118155
sI96
F0.149299711815562
sI97
F-0.22320749279538896
sI98
F0.2924040345821325
sI99
F0.4075585014409221
sI100
F0.4829688760806911
sI101
F0.42795100864553326
sI102
F0.40507031700288176
sI103
F0.32377291066282426
sI104
F0.3070887608069165
sI105
F0.3358703170028817
sI106
F0.3255008645533141
sI107
F0.3523319884726223
sI108
F0.4360841498559079
sI109
F0.479716426512968
sI110
F0.4676190201729104
sI111
F0.43958155619596495
sI112
F0.40476253602305456
sI113
F0.3653550432276658
sI114
F0.3706097982708934
sI115
F0.35858904899135463
sI116
F0.35838616714697374
sI117
F0.3732708933717582
sI118
F0.3416201729106628
sI119
F0.29062881844380406
sI120
F0.2523521613832851
sI121
F0.24149452449567738
sI122
F0.21726340057636892
sI123
F0.1984881844380404
sI124
F0.14425590778097988
sI125
F0.10316138328530253
sI126
F0.06882824207492791
sI127
F0.036137175792507206
sI128
F0.009878962536023071
sI129
F-0.02365763688760806
sI130
F0.5505348703170035
sI131
F0.6503365994236314
sI132
F0.539309510086455
sI133
F0.14236484149855913
sI134
F-0.032198847262247886
sI135
F-0.0502564841498559
sI136
F0.08893948126801156
sI137
F0.17619769452449566
sI138
F0.16958731988472625
sI139
F0.1623746397694526
sI140
F0.1680115273775215
sI141
F0.19882478386167132
sI142
F0.18438040345821322
sI143
F0.21032507204610945
sI144
F0.24565936599423654
sI145
F0.26408126801152726
sI146
F0.31199193083573484
sI147
F0.35820403458213257
sI148
F0.3904582132564843
sI149
F0.38132449567723326
sI150
F0.32029913544668565
sI151
F0.20896945244956763
sI152
F0.10027723342939482
sI153
F0.030269164265129735
sI154
F-0.05443573487031701
sI155
F-0.11566570605187323
sI156
F-0.16412219020172913
sI157
F-0.18961440922190206
sI158
F-0.18242824207492786
sI159
F-0.17401152737752154
sI160
F-0.1501423631123922
sI161
F0.04369164265129683
sI162
F0.6631723342939485
sI163
F0.7224622478386178
sI164
F0.4893371757925068
sI165
F0.03121383285302595
sI166
F-0.13166974063400588
sI167
F-0.12209106628242074
sI168
F0.02515446685878962
sI169
F0.07164207492795381
sI170
F0.05355504322766575
sI171
F0.047536599423631073
sI172
F0.12621095100864557
sI173
F0.15494063400576366
sI174
F0.13169855907780986
sI175
F0.14585302593659943
sI176
F0.1674605187319884
sI177
F0.2108472622478386
sI178
F0.23981613832853033
sI179
F0.2674881844380402
sI180
F0.2869037463976945
sI181
F0.2658403458213255
sI182
F0.21251412103746392
sI183
F0.08617809798270898
sI184
F-0.004234005763688762
sI185
F-0.05463573487031702
sI186
F-0.12994582132564836
sI187
F-0.19137982708933732
sI188
F-0.23707435158501453
sI189
F-0.24713832853025947
sI190
F-0.22610028818443803
sI191
F-0.18842708933717572
sI192
F-0.17991181556195976
sI193
F0.04222881844380402
sI194
F0.6209688760806925
sI195
F0.5135072046109512
sI196
F0.21098789625360226
sI197
F-0.06628587896253603
sI198
F-0.029867435158501408
sI199
F0.03238386167146975
sI200
F0.08168011527377524
sI201
F0.03648242074927953
sI202
F-0.022194236311239186
sI203
F0.04262824207492794
sI204
F0.20664783861671462
sI205
F0.276780403458213
sI206
F0.2312812680115273
sI207
F0.19724553314121027
sI208
F0.12593832853025927
sI209
F0.10005763688760802
sI210
F0.07241498559077811
sI211
F0.04672276657060516
sI212
F0.02444726224783862
sI213
F0.025302017291066337
sI214
F0.013855331412103752
sI215
F-0.004790201729106628
sI216
F-0.0007942363112391944
sI217
F0.021370605187319886
sI218
F-0.004480115273775222
sI219
F-0.05699193083573483
sI220
F-0.11922017291066286
sI221
F-0.13972046109510092
sI222
F-0.125978674351585
sI223
F-0.12786743515850132
sI224
F-0.11364841498559082
sI225
F-0.4007717579250722
sI226
F0.06712622478386167
sI227
F0.1961025936599424
sI228
F0.35848587896253636
sI229
F0.4798282420749281
sI230
F0.39543458213256477
sI231
F0.22713141210374632
sI232
F0.06679827089337173
sI233
F-0.07130893371757932
sI234
F-0.14108876080691643
sI235
F-0.1417700288184439
sI236
F-0.0789878962536024
sI237
F0.027551008645533143
sI238
F0.18100288184438054
sI239
F0.3435694524495679
sI240
F0.4624484149855904
sI241
F0.5315141210374638
sI242
F0.60942363112392
sI243
F0.6719319884726234
sI244
F0.7393775216138346
sI245
F0.7437925072046122
sI246
F0.7013158501440935
sI247
F0.6489089337175795
sI248
F0.6196288184438044
sI249
F0.6034951008645533
sI250
F0.5976749279538917
sI251
F0.545869740634006
sI252
F0.505733717579251
sI253
F0.45745648414985607
sI254
F0.40774697406340044
sI255
F0.34646397694524494
sI256
F0.28946743515850154
sI257
F-0.42391642651296835
sI258
F0.027562536023054758
sI259
F0.1710968299711814
sI260
F0.3819106628242077
sI261
F0.5024708933717581
sI262
F0.4417504322766574
sI263
F0.24266916426512988
sI264
F0.07629221902017282
sI265
F-0.037157348703170064
sI266
F-0.10968011527377522
sI267
F-0.1148824207492796
sI268
F-0.05846916426512967
sI269
F0.07151757925072047
sI270
F0.21734005763688746
sI271
F0.3874766570605184
sI272
F0.5106899135446684
sI273
F0.6082230547550437
sI274
F0.6371025936599426
sI275
F0.6804340057636887
sI276
F0.7378893371757931
sI277
F0.7406576368876089
sI278
F0.6964028818443816
sI279
F0.6432005763688766
sI280
F0.6239827089337178
sI281
F0.6058927953890493
sI282
F0.5963492795389046
sI283
F0.5598501440922192
sI284
F0.5042622478386167
sI285
F0.47470432276657093
sI286
F0.4191360230547554
sI287
F0.36390893371757926
sI288
F0.3214057636887609
sI289
F-0.28720461095100874
sI290
F0.20000403458213253
sI291
F0.37366916426512964
sI292
F0.5023475504322763
sI293
F0.5557377521613833
sI294
F0.5125688760806912
sI295
F0.388171181556196
sI296
F0.31621095100864566
sI297
F0.3333538904899132
sI298
F0.35487204610951023
sI299
F0.38879827089337154
sI300
F0.4460438040345822
sI301
F0.4660691642651295
sI302
F0.40863515850144094
sI303
F0.35482939481268005
sI304
F0.3238478386167145
sI305
F0.26764438040345817
sI306
F0.2261394812680115
sI307
F0.2006674351585014
sI308
F0.1738403458213256
sI309
F0.1678299711815562
sI310
F0.14128991354466844
sI311
F0.12778674351585007
sI312
F0.1577752161383285
sI313
F0.21145129682997124
sI314
F0.25053602305475503
sI315
F0.23459884726224758
sI316
F0.18278501440922185
sI317
F0.14135389048991354
sI318
F0.11615504322766579
sI319
F0.09139193083573482
sI320
F0.06013717579250727
sI321
F-1.000000000000008
sI322
F-1.000000000000008
sI323
F-1.000000000000008
sI324
F-1.000000000000008
sI325
F-1.000000000000008
sI326
F-0.9992887608069243
sI327
F-0.9903066282420806
sI328
F-0.9751510086455364
sI329
F-0.9510881844380407
sI330
F-0.8970386167146976
sI331
F-0.5310858789625358
sI332
F0.42156080691642656
sI333
F0.7082351585014416
sI334
F0.7843279538904899
sI335
F0.7405440922190197
sI336
F0.6081884726224785
sI337
F0.35779135446685845
sI338
F0.09551700288184438
sI339
F-0.09488357348703172
sI340
F-0.21177348703170037
sI341
F-0.3175953890489914
sI342
F-0.5283976945244959
sI343
F-0.7837360230547555
sI344
F-0.883977521613834
sI345
F-0.9323585014409242
sI346
F-0.9486553314121053
sI347
F-0.969578674351589
sI348
F-0.990145821325655
sI349
F-0.9972270893371833
sI350
F-1.000000000000008
sI351
F-1.000000000000008
sI352
F-1.000000000000008
sI353
F-1.000000000000008
sI354
F-1.000000000000008
sI355
F-1.000000000000008
sI356
F-1.000000000000008
sI357
F-1.000000000000008
sI358
F-1.000000000000008
sI359
F-0.9995279538904976
sI360
F-0.993280691642657
sI361
F-0.9816726224783898
sI362
F-0.9532737752161383
sI363
F-0.8728138328530256
sI364
F-0.5491590778097984
sI365
F0.25453544668587896
sI366
F0.522519884726225
sI367
F0.606497406340058
sI368
F0.5821757925072047
sI369
F0.3689527377521612
sI370
F-0.06021786743515849
sI371
F-0.41765763688760793
sI372
F-0.6014899135446689
sI373
F-0.6689158501440923
sI374
F-0.6965060518731988
sI375
F-0.7861550432276653
sI376
F-0.8878634005763698
sI377
F-0.9199804034582147
sI378
F-0.9415342939481279
sI379
F-0.9535141210374658
sI380
F-0.9728449567723376
sI381
F-0.9902847262247907
sI382
F-0.99717463976946
sI383
F-1.000000000000008
sI384
F-1.000000000000008
sI385
F-1.000000000000008
sI386
F-1.000000000000008
sI387
F-1.000000000000008
sI388
F-1.000000000000008
sI389
F-1.000000000000008
sI390
F-1.000000000000008
sI391
F-1.000000000000008
sI392
F-0.997451296829979
sI393
F-0.9773729106628307
sI394
F-0.9472645533141264
sI395
F-0.869360230547554
sI396
F-0.7282582132564853
sI397
F-0.49848242074927995
sI398
F-0.4514536023054753
sI399
F-0.45037982708933727
sI400
F-0.48576541786743527
sI401
F-0.5124126801152742
sI402
F-0.5616726224783859
sI403
F-0.6520317002881842
sI404
F-0.7321095100864563
sI405
F-0.8007867435158501
sI406
F-0.8438985590778109
sI407
F-0.8426818443804044
sI408
F-0.8340253602305485
sI409
F-0.7918368876080705
sI410
F-0.7041878962536029
sI411
F-0.7051072046109522
sI412
F-0.7536818443804054
sI413
F-0.8370899135446725
sI414
F-0.9320524495677298
sI415
F-0.976310662824215
sI416
F-1.000000000000008
sI417
F-1.000000000000008
sI418
F-1.000000000000008
sI419
F-1.000000000000008
sI420
F-1.000000000000008
sI421
F-1.000000000000008
sI422
F-1.000000000000008
sI423
F-1.000000000000008
sI424
F-1.000000000000008
sI425
F-0.9840270893371835
sI426
F-0.8804443804034633
sI427
F-0.6771510086455346
sI428
F-0.245453602305476
sI429
F0.7684645533141249
sI430
F0.9357769452449637
sI431
F0.8488265129683048
sI432
F-0.6024691642651298
sI433
F-0.7193896253602305
sI434
F-0.5734023054755042
sI435
F-0.0924708933717581
sI436
F0.28308184438040307
sI437
F0.03219769452449565
sI438
F-0.4102017291066284
sI439
F-0.40526801152737724
sI440
F-0.26421844380403453
sI441
F-0.29674351585014414
sI442
F-0.5756317002881847
sI443
F-0.7246587896253608
sI444
F-0.8121855907780994
sI445
F-0.8208265129683017
sI446
F-0.8454466858789655
sI447
F-0.9386576368876143
sI448
F-0.9722530259366068
sI449
F-1.000000000000008
sI450
F-1.000000000000008
sI451
F-1.000000000000008
sI452
F-1.000000000000008
sI453
F0.8705475504322797
sI454
F0.8739423631123953
sI455
F0.879017867435162
sI456
F0.885119884726228
sI457
F0.8925279538904933
sI458
F0.9035729106628281
sI459
F0.9196876080691685
sI460
F0.9425752161383333
sI461
F0.9409515850144137
sI462
F0.5997757925072046
sI463
F0.1511112391930836
sI464
F0.1444541786743515
sI465
F0.13675504322766566
sI466
F0.12372103746397697
sI467
F0.10338962536023055
sI468
F0.07077060518731984
sI469
F0.02046282420749284
sI470
F-0.07188126801152733
sI471
F-0.21234755043227677
sI472
F-0.34982363112391957
sI473
F-0.18397636887608065
sI474
F0.27030951008645515
sI475
F-0.5017844380403457
sI476
F-0.1453170028818443
sI477
F0.23219711815561975
sI478
F0.37319538904899113
sI479
F0.44876657060518726
sI480
F0.6911619596541813
sI481
F-0.1540536023054754
sI482
F0.10105878962536023
sI483
F0.30773948126801176
sI484
F0.34152680115273787
sI485
F0.22512391930835768
sI486
F0.22908011527377523
sI487
F0.37654178674351624
sI488
F0.5528270893371761
sI489
F0.6914299711815572
sI490
F0.7680530259366005
sI491
F0.8146979827089351
sI492
F0.7805417867435176
sI493
F0.7682011527377534
sI494
F0.7034340057636894
sI495
F0.6469100864553315
sI496
F0.613104899135447
sI497
F0.5693671469740634
sI498
F0.5302657060518735
sI499
F0.45994351585014415
sI500
F0.41294639769452446
sI501
F0.4168708933717575
sI502
F0.36649510086455345
sI503
F0.2882691642651296
sI504
F0.2348968299711817
sI505
F0.18567838616714682
sI506
F0.18577118155619585
sI507
F0.17842017291066295
sI508
F0.1518726224783863
sI509
F0.09394870317002878
sI510
F0.06167953890489914
sI511
F-0.044807492795389044
sI512
F-0.3866149855907782
sI513
F-0.08279423631123925
sI514
F0.18562824207492792
sI515
F0.40766109510086496
sI516
F0.3542132564841496
sI517
F0.17467377521613836
sI518
F0.14275907780979824
sI519
F0.3004138328530259
sI520
F0.5077394812680115
sI521
F0.666767146974064
sI522
F0.7664616714697415
sI523
F0.8048472622478396
sI524
F0.7429832853025948
sI525
F0.7138945244956785
sI526
F0.6512092219020174
sI527
F0.5968420749279544
sI528
F0.5648466858789627
sI529
F0.5326097982708937
sI530
F0.5001452449567723
sI531
F0.4239435158501438
sI532
F0.38166743515850177
sI533
F0.3692956772334292
sI534
F0.3180334293948128
sI535
F0.23705763688760817
sI536
F0.187171757925072
sI537
F0.13606858789625367
sI538
F0.13717809798270894
sI539
F0.15679481268011536
sI540
F0.12445706051873193
sI541
F0.0805550432276657
sI542
F0.0713463976945245
sI543
F-0.0017994236311239175
sI544
F-0.3424518731988472
sI545
F0.06436657060518737
sI546
F0.35555446685879
sI547
F0.5215146974063407
sI548
F0.4067008645533145
sI549
F0.19830201729106614
sI550
F0.14783515850144094
sI551
F0.2965694524495676
sI552
F0.5216282420749279
sI553
F0.6914772334293958
sI554
F0.8044034582132571
sI555
F0.8371360230547565
sI556
F0.7729521613832868
sI557
F0.7318570605187322
sI558
F0.6916207492795393
sI559
F0.624693948126801
sI560
F0.5841187319884729
sI561
F0.5345567723342943
sI562
F0.4907844380403456
sI563
F0.3994322766570605
sI564
F0.33715389048991373
sI565
F0.3099250720461094
sI566
F0.2579452449567723
sI567
F0.17298501440922184
sI568
F0.12224610951008645
sI569
F0.09315273775216137
sI570
F0.0875060518731988
sI571
F0.1119256484149856
sI572
F0.09034697406340057
sI573
F0.056569452449567736
sI574
F0.05054236311239193
sI575
F-0.026498559077809788
sI576
F-0.3163798270893372
sI577
F-0.04083515850144097
sI578
F-0.619596541786745
sI579
F-0.9423631123919379
sI580
F0.5619596541786748
sI581
F-0.9210374639769519
sI582
F-0.980979827089345
sI583
F-0.816714697406345
sI584
F-0.7668726224783897
sI585
F-0.9365994236311309
sI586
F-0.018708357348703155
sI587
F0.11467435158501432
sI588
F0.22140518731988473
sI589
F0.3941383285302591
sI590
F0.3948495677233431
sI591
F0.5134432276657056
sI592
F0.6963492795389051
sI593
F0.6352668587896257
sI594
F0.5136835734870315
sI595
F0.44965417867435126
sI596
F0.4230772334293949
sI597
F0.43125244956772346
sI598
F0.5239083573487031
sI599
F0.5327688760806919
sI600
F0.478162536023055
sI601
F0.4392368876080691
sI602
F0.40664610951008645
sI603
F0.3766051873198849
sI604
F0.36945763688760774
sI605
F0.38096253602305474
sI606
F0.3987550432276659
sI607
F0.36822536023054775
sI608
F0.3310172910662824
sI609
F0.3031521613832852
sI610
F0.27041959654178666
sI611
F0.25911123919308343
sI612
F0.2538069164265131
sI613
F0.22839654178674357
sI614
F0.15012391930835742
sI615
F0.11197175792507201
sI616
F-0.01224380403458214
sI617
F-0.38429682997118153
sa(dp14
I1
F0.029289187632389944
sI2
F0.059117384579966986
sI3
F0.05631498499508589
sI4
F0.06383584656460828
sI5
F0.056595438400826245
sI6
F0.08678499924772203
sI7
F0.11906704736552781
sI8
F0.10223954751311824
sI9
F0.09131242398227589
sI10
F0.08548271054688412
sI11
F0.08386984266528959
sI12
F0.08823198928087155
sI13
F0.11449845349102952
sI14
F0.13743426768169784
sI15
F0.14055426359247725
sI16
F0.12633688447368868
sI17
F0.08589281110492909
sI18
F0.05217512194099715
sI19
F0.04377207329146606
sI20
F0.03842558542219855
sI21
F0.03946059982275828
sI22
F0.05136097863370593
sI23
F0.0709475008485616
sI24
F0.08503692432443237
sI25
F0.08627861559394308
sI26
F0.08790810081124752
sI27
F0.08257580646399354
sI28
F0.07381494503706418
sI29
F0.08686325899018837
sI30
F0.11183313494761028
sI31
F0.1393736983391915
sI32
F0.18792162997917738
sI33
F0.030202255128183753
sI34
F0.05946993011277507
sI35
F0.06709896727157642
sI36
F0.05981425161000147
sI37
F0.05374512693308455
sI38
F0.06976155466808817
sI39
F0.10744244954306949
sI40
F0.11739551953823865
sI41
F0.10633201783878325
sI42
F0.09285397297596239
sI43
F0.09359825603438233
sI44
F0.1022409574872982
sI45
F0.11401588234478863
sI46
F0.11816120315836806
sI47
F0.09370101991304496
sI48
F0.08566207377721505
sI49
F0.07524829267278581
sI50
F0.0633472519491596
sI51
F0.06235401070713467
sI52
F0.06112551525045398
sI53
F0.06009332016658055
sI54
F0.06472616732954636
sI55
F0.08260626062067938
sI56
F0.09184935325148673
sI57
F0.108486599150439
sI58
F0.10762777394812684
sI59
F0.0984471594816012
sI60
F0.09267112192633806
sI61
F0.10789202625510155
sI62
F0.13077450244773534
sI63
F0.15890063662974122
sI64
F0.19607700500141595
sI65
F0.034003531563358926
sI66
F0.06204982838200264
sI67
F0.06846732536656057
sI68
F0.05390091364395064
sI69
F0.05536197372557513
sI70
F0.06105597721710447
sI71
F0.08042572354550148
sI72
F0.0924850226982726
sI73
F0.09280762875847487
sI74
F0.0954972448028519
sI75
F0.10097018028218749
sI76
F0.11159783525178663
sI77
F0.0989918974329931
sI78
F0.0876909280525063
sI79
F0.08820989930336001
sI80
F0.10606509957122162
sI81
F0.10184047998733983
sI82
F0.10775329648414979
sI83
F0.1106539909553397
sI84
F0.11579978114640774
sI85
F0.12206956891739275
sI86
F0.1222917638486781
sI87
F0.12624730536422843
sI88
F0.1248327531315487
sI89
F0.13836503453349103
sI90
F0.13803285119754796
sI91
F0.1344154317815796
sI92
F0.12235327858806283
sI93
F0.13350365722110238
sI94
F0.1591373430794089
sI95
F0.19490030204194492
sI96
F0.23561827268777813
sI97
F0.08546237046392706
sI98
F0.12401806160217221
sI99
F0.12440209353300793
sI100
F0.08359591810364646
sI101
F0.1071383405986906
sI102
F0.18008442579267378
sI103
F0.15391339568023182
sI104
F0.13850750076926927
sI105
F0.1471572743475871
sI106
F0.17294849973913462
sI107
F0.1938077109679998
sI108
F0.17904748191567707
sI109
F0.14540527033632622
sI110
F0.1478842443770719
sI111
F0.13377823989005674
sI112
F0.12775786206060202
sI113
F0.12364641138345195
sI114
F0.13191689666672224
sI115
F0.1399310769895554
sI116
F0.1526072407329547
sI117
F0.16039954004630952
sI118
F0.17284144641268678
sI119
F0.1811008740803916
sI120
F0.203736758514101
sI121
F0.21841665947860284
sI122
F0.23109947828088828
sI123
F0.23517551971548045
sI124
F0.2429583266918759
sI125
F0.25368588509403506
sI126
F0.25894337249487775
sI127
F0.2664071734983591
sI128
F0.286684780220886
sI129
F0.08166648267994867
sI130
F0.11040063724875473
sI131
F0.09956862602655304
sI132
F0.11142064438906554
sI133
F0.15679370847128984
sI134
F0.1830820293628292
sI135
F0.16902357714714059
sI136
F0.17930707274308252
sI137
F0.22502817872299297
sI138
F0.23657006943412562
sI139
F0.2578503101064449
sI140
F0.2329931362829202
sI141
F0.20141151672502544
sI142
F0.18521121094434553
sI143
F0.17024193541003818
sI144
F0.152167769066649
sI145
F0.13744916135330087
sI146
F0.1424524949636021
sI147
F0.15924985165997568
sI148
F0.1620637726707865
sI149
F0.18836928988955723
sI150
F0.20782170551948162
sI151
F0.23460825790808074
sI152
F0.24570076326631224
sI153
F0.23393448606953088
sI154
F0.25676518137828797
sI155
F0.25036704145058397
sI156
F0.25868160167380183
sI157
F0.2642577441848379
sI158
F0.26557304763938633
sI159
F0.28851960287251593
sI160
F0.29263562187070036
sI161
F0.07279317342706271
sI162
F0.09087763183355278
sI163
F0.08052066663423903
sI164
F0.13754483916309906
sI165
F0.15271844119538242
sI166
F0.16650431778114633
sI167
F0.17389397411070948
sI168
F0.20833140150455598
sI169
F0.24979510793556656
sI170
F0.2360624185510819
sI171
F0.24200750833869172
sI172
F0.2095316934057403
sI173
F0.20353739935566628
sI174
F0.1874189399690162
sI175
F0.17211348827838927
sI176
F0.1537536128586896
sI177
F0.132784265043061
sI178
F0.15293354887174954
sI179
F0.16579973844380402
sI180
F0.17759898180673328
sI181
F0.20417736484149857
sI182
F0.22183243341273673
sI183
F0.22840688969232567
sI184
F0.2265695823084738
sI185
F0.22484289305458838
sI186
F0.23488526827006054
sI187
F0.2317176228288718
sI188
F0.23269947179690514
sI189
F0.22304015491396123
sI190
F0.22945292771667977
sI191
F0.2366617124432376
sI192
F0.2578696716229948
sI193
F0.1224682308433976
sI194
F0.1380908880458427
sI195
F0.1606698867398511
sI196
F0.2031832882923823
sI197
F0.19855425352834347
sI198
F0.24519071000583031
sI199
F0.22154549499891743
sI200
F0.2052618154127035
sI201
F0.2388906589675335
sI202
F0.2672130674811349
sI203
F0.25384177896886617
sI204
F0.21699906186670195
sI205
F0.20906227660908533
sI206
F0.2086346545324913
sI207
F0.18923186115773502
sI208
F0.16627176046309397
sI209
F0.1545142042984459
sI210
F0.15988029226033246
sI211
F0.18244497251486735
sI212
F0.21899806504306119
sI213
F0.23076089649880882
sI214
F0.21881544918392162
sI215
F0.1886684437187454
sI216
F0.17450882516899613
sI217
F0.21266050306408368
sI218
F0.24416118558611374
sI219
F0.25590778606186815
sI220
F0.2454356484936115
sI221
F0.21778215943562487
sI222
F0.1955476133011276
sI223
F0.20398992156652404
sI224
F0.2140148489786945
sI225
F0.07654665110759444
sI226
F0.09778039153570653
sI227
F0.0806700770741783
sI228
F0.06863125190984665
sI229
F0.06705164717695862
sI230
F0.08923002145957923
sI231
F0.1030239750508904
sI232
F0.09413500358081651
sI233
F0.08149433156735682
sI234
F0.0833723396131999
sI235
F0.08447180395462343
sI236
F0.08428807788775802
sI237
F0.10931007354666751
sI238
F0.15122080195698878
sI239
F0.14106054692542186
sI240
F0.13756062562609317
sI241
F0.1229703487884595
sI242
F0.08023364071163236
sI243
F0.058427890389965154
sI244
F0.046746593366094234
sI245
F0.053943134394562865
sI246
F0.06302184052839369
sI247
F0.08699439723209672
sI248
F0.09422302390698135
sI249
F0.11381809902217185
sI250
F0.09877952662391092
sI251
F0.10034389257883433
sI252
F0.09424516518931887
sI253
F0.09927125645349905
sI254
F0.12090321822058597
sI255
F0.15249185890090133
sI256
F0.183431117867102
sI257
F0.05309314802418753
sI258
F0.05808743963285637
sI259
F0.06615121094367915
sI260
F0.06850528875880799
sI261
F0.06433791969948863
sI262
F0.08200415984807849
sI263
F0.11324319034698738
sI264
F0.09015130615315421
sI265
F0.07720007493861498
sI266
F0.08151844639536242
sI267
F0.07788344856290916
sI268
F0.09160664329496432
sI269
F0.11978733041262014
sI270
F0.141160747841615
sI271
F0.1468804252049776
sI272
F0.1308485666898769
sI273
F0.09306432062301145
sI274
F0.0754502988082824
sI275
F0.0608278433489363
sI276
F0.04824285430794087
sI277
F0.04680426695740539
sI278
F0.0556073857720178
sI279
F0.08580233190718121
sI280
F0.09663004709899889
sI281
F0.09954335980343486
sI282
F0.09375271140843892
sI283
F0.09448427065749368
sI284
F0.09571811773250488
sI285
F0.09590793324715566
sI286
F0.11069886953673949
sI287
F0.13562502867718346
sI288
F0.15076644736552777
sI289
F0.06153492367809958
sI290
F0.07807200125535135
sI291
F0.09321376815045569
sI292
F0.08743418001565857
sI293
F0.08376645715447018
sI294
F0.11362614931751937
sI295
F0.11805858020755941
sI296
F0.127238761382619
sI297
F0.1806001863070747
sI298
F0.22591344785793976
sI299
F0.20330010439006518
sI300
F0.16188147645716378
sI301
F0.15367269763022434
sI302
F0.15476537575452673
sI303
F0.15194424132997955
sI304
F0.15388312891872533
sI305
F0.14110620738884913
sI306
F0.13383354835001912
sI307
F0.15045481983242015
sI308
F0.1730213410264697
sI309
F0.17005256094884308
sI310
F0.18213704368409636
sI311
F0.17629282537289054
sI312
F0.17386495418167267
sI313
F0.17727636973097227
sI314
F0.175395499363329
sI315
F0.19387445918941879
sI316
F0.19441287260715295
sI317
F0.18865318353250818
sI318
F0.1997102007476139
sI319
F0.21986271831620324
sI320
F0.25441815477003565
sI321
F1.3981234082706754e-05
sI322
F3.5128127255639016e-05
sI323
F8.151934977192973e-05
sI324
F9.993695735338334e-05
sI325
F0.00013122072681704224
sI326
F0.00012519274991478732
sI327
F0.0005008786553613972
sI328
F0.0015786580553380715
sI329
F0.002743807576752013
sI330
F0.017297350758774643
sI331
F0.06310568451100268
sI332
F0.07223571082940486
sI333
F0.047622428240075954
sI334
F0.03089641872499208
sI335
F0.04396924183638452
sI336
F0.06795106206326734
sI337
F0.11746160767070352
sI338
F0.12485118846729194
sI339
F0.10027444305308923
sI340
F0.09630535166497314
sI341
F0.08608542656827291
sI342
F0.044957222422415045
sI343
F0.01733738606853125
sI344
F0.008105037296730011
sI345
F0.003932817001216045
sI346
F0.0027795883746730868
sI347
F0.0024061679832086697
sI348
F0.0004739401775749228
sI349
F0.0001414451600006648
sI350
F1.9483370363408402e-05
sI351
F2.075739065413533e-05
sI352
F1.9463293932330617e-05
sI353
F1.514604729573927e-05
sI354
F0.00018338772208270518
sI355
F0.00019951030094235667
sI356
F0.000199657279095237
sI357
F0.00019983151750376036
sI358
F0.00020015438185213134
sI359
F0.00021540045753383328
sI360
F0.00024686708414786956
sI361
F0.0007489269650680477
sI362
F0.004359110610851063
sI363
F0.03779143749596043
sI364
F0.08692472167313561
sI365
F0.12112800946244441
sI366
F0.08039424547050682
sI367
F0.06925967638053672
sI368
F0.09876155918108968
sI369
F0.17042324330895717
sI370
F0.21648482499775112
sI371
F0.12463423620596036
sI372
F0.04611772460895202
sI373
F0.037580852782728914
sI374
F0.04257622571471407
sI375
F0.019878219244723553
sI376
F0.007530948801119419
sI377
F0.0056364356842298164
sI378
F0.003223644687578075
sI379
F0.002244684279788775
sI380
F0.0013828453718911899
sI381
F0.0005668077140144214
sI382
F0.00016831010644500463
sI383
F1.2999632278195565e-05
sI384
F1.4940891017543926e-05
sI385
F1.3523390476190333e-05
sI386
F1.0624028669172971e-05
sI387
F2.415981998997486e-05
sI388
F5.737844009022547e-05
sI389
F6.80165720275691e-05
sI390
F7.139177728320851e-05
sI391
F6.835246226566425e-05
sI392
F0.0003467253379087472
sI393
F0.0033151961426595997
sI394
F0.0053593294624443896
sI395
F0.027338376795322417
sI396
F0.08223914584997752
sI397
F0.04788720601955655
sI398
F0.03021217526877779
sI399
F0.030860145603438232
sI400
F0.025145985390215054
sI401
F0.023523653480368476
sI402
F0.025485999566224108
sI403
F0.026114162344788548
sI404
F0.023184848550915363
sI405
F0.017085048725491825
sI406
F0.010704726789825265
sI407
F0.01097489964051907
sI408
F0.011345404210491234
sI409
F0.022254637710516254
sI410
F0.04482300690509897
sI411
F0.05981266246239436
sI412
F0.05912821016075016
sI413
F0.052692942643634305
sI414
F0.028033528223750902
sI415
F0.012056505174992805
sI416
F0.00012115563977694289
sI417
F9.562159975939899e-05
sI418
F2.5807805102756854e-05
sI419
F2.1302115729323508e-05
sI420
F0.00020102362056140116
sI421
F0.00024394695939849734
sI422
F0.0001599705703233081
sI423
F7.37623318270671e-05
sI424
F0.00021837742106265882
sI425
F0.00990738943745733
sI426
F0.07718831004780838
sI427
F0.27965003239059805
sI428
F0.5939547796618421
sI429
F0.27077481154337063
sI430
F0.06906662605653764
sI431
F0.15370372391930726
sI432
F0.1729109868787792
sI433
F0.07685827596141998
sI434
F0.23893107282703935
sI435
F0.5597499199307034
sI436
F0.5418710987156649
sI437
F0.720412851555364
sI438
F0.5507434921357295
sI439
F0.41989270380036964
sI440
F0.37885099064150174
sI441
F0.2946342185344238
sI442
F0.18519006176675376
sI443
F0.10321536555113159
sI444
F0.052208942566340726
sI445
F0.05894324738751626
sI446
F0.06822422613782902
sI447
F0.026879503951624792
sI448
F0.018788003191684208
sI449
F0.00024964501671930004
sI450
F0.00011458484699498603
sI451
F7.434678901253182e-05
sI452
F7.995815426315845e-05
sI453
F0.03453083735669908
sI454
F0.03338855111925506
sI455
F0.03136624811913837
sI456
F0.02967540477686533
sI457
F0.027532623349269644
sI458
F0.02457066250104099
sI459
F0.020542872996285308
sI460
F0.014637933834852056
sI461
F0.01249846608852095
sI462
F0.05116139432559844
sI463
F0.2493378700178241
sI464
F0.2503050483856674
sI465
F0.2488599956609084
sI466
F0.24838591155036543
sI467
F0.2459912417417667
sI468
F0.24381689219703148
sI469
F0.23736411754460202
sI470
F0.21956387511052622
sI471
F0.17133676706768164
sI472
F0.09167706360180572
sI473
F0.20529225365960888
sI474
F0.06399189918675353
sI475
F0.12832699941030462
sI476
F0.16268253783145362
sI477
F0.1740229286621912
sI478
F0.16305385500757946
sI479
F0.14026810963069083
sI480
F0.23906051161233285
sI481
F0.08299494104912458
sI482
F0.0877103812736753
sI483
F0.07863733702053945
sI484
F0.09736419289233893
sI485
F0.08734724575569293
sI486
F0.08627760870750105
sI487
F0.10495662030084457
sI488
F0.10281453001549204
sI489
F0.05789661967716683
sI490
F0.03900391926104846
sI491
F0.03896384193233502
sI492
F0.04384613197714506
sI493
F0.04509834450733786
sI494
F0.04973341467841614
sI495
F0.059223521371957806
sI496
F0.06560648422448406
sI497
F0.07885880458229905
sI498
F0.0932134164794856
sI499
F0.10044321529742967
sI500
F0.11649104232080085
sI501
F0.12004949750295689
sI502
F0.1155340192533858
sI503
F0.11463453786143833
sI504
F0.11291080516333243
sI505
F0.10582168146790827
sI506
F0.11243249650813748
sI507
F0.1083299208635539
sI508
F0.09845451933501018
sI509
F0.0909522203668105
sI510
F0.08551904105412203
sI511
F0.07414175543502523
sI512
F0.06443464393663276
sI513
F0.08383690031350469
sI514
F0.09245784417117828
sI515
F0.08056744365544476
sI516
F0.08720291577751499
sI517
F0.07544812355882798
sI518
F0.08144017924538988
sI519
F0.09871303333411077
sI520
F0.11196084014192666
sI521
F0.07029942516033384
sI522
F0.04013345317985709
sI523
F0.03506675290433275
sI524
F0.0448576377544935
sI525
F0.058942172542186505
sI526
F0.05647928939447952
sI527
F0.05672173845579786
sI528
F0.06941591053089236
sI529
F0.08269012649331185
sI530
F0.09457475271576356
sI531
F0.10992913275407712
sI532
F0.12384212619080144
sI533
F0.12415933717779155
sI534
F0.1288378844283787
sI535
F0.12053137840249206
sI536
F0.12605416047175624
sI537
F0.11581694360580369
sI538
F0.11359635073278818
sI539
F0.11751901650480581
sI540
F0.11587980702370433
sI541
F0.0935541080308507
sI542
F0.09122767677166799
sI543
F0.07503666832336625
sI544
F0.0802997277060185
sI545
F0.07513396951508387
sI546
F0.07608586647565428
sI547
F0.07384690114174346
sI548
F0.06971210783162039
sI549
F0.04955807383984944
sI550
F0.04698250361579851
sI551
F0.08087328056704039
sI552
F0.1102423949226232
sI553
F0.06545540557845116
sI554
F0.03001528091286167
sI555
F0.0253629273402076
sI556
F0.038852150421615494
sI557
F0.04893186621445585
sI558
F0.04665044095550627
sI559
F0.049267762824540706
sI560
F0.059446831873532
sI561
F0.08297928818377172
sI562
F0.104474280566374
sI563
F0.12100681352168047
sI564
F0.12473055486198799
sI565
F0.13213463182622304
sI566
F0.13170334947876927
sI567
F0.1252313403528177
sI568
F0.11100261705851973
sI569
F0.10270277140144266
sI570
F0.10441822201529213
sI571
F0.11033276405124016
sI572
F0.11110886654428542
sI573
F0.1027504717809132
sI574
F0.09851961100364806
sI575
F0.08174826043144377
sI576
F0.07513605959187748
sI577
F0.4989132044250465
sI578
F0.6178807616065057
sI579
F0.11227532441571834
sI580
F0.6861788076160636
sI581
F0.03894920957505279
sI582
F0.02449267878262877
sI583
F0.11706085189318872
sI584
F0.0355607951731606
sI585
F0.12313637953723962
sI586
F0.16593394452532848
sI587
F0.13570866555413033
sI588
F0.07526527731405436
sI589
F0.06984582843997268
sI590
F0.07674670851859859
sI591
F0.10159625905082388
sI592
F0.06674305268011534
sI593
F0.06537703551698286
sI594
F0.06844482733054592
sI595
F0.08315785694058074
sI596
F0.08948038176342228
sI597
F0.08525189192317306
sI598
F0.07900086776232272
sI599
F0.08262318261231696
sI600
F0.09200461905482157
sI601
F0.08396118984924461
sI602
F0.08837750607586081
sI603
F0.09386316240075951
sI604
F0.09711950510769439
sI605
F0.09768995963285636
sI606
F0.09307723936033048
sI607
F0.08797916929719643
sI608
F0.08905392224350751
sI609
F0.09213554094184676
sI610
F0.08408004585764023
sI611
F0.08626146007562761
sI612
F0.08087555856474155
sI613
F0.07445473686661894
sI614
F0.06856017916609748
sI615
F0.07259014428678512
sI616
F0.07092723391381119
sI617
F0.07198124955639587
saF0.8635235732009926
aI347
aa(lp15
I2
a(dp16
I1
F-0.4836487804878048
sI2
F-0.059165853658536605
sI3
F0.11695609756097564
sI4
F0.3519317073170732
sI5
F0.4642000000000001
sI6
F0.38987317073170724
sI7
F0.11613658536585365
sI8
F-0.026634146341463417
sI9
F-0.1230829268292683
sI10
F-0.21739024390243908
sI11
F-0.20176585365853658
sI12
F-0.08441951219512193
sI13
F0.06332682926829271
sI14
F0.3020390243902438
sI15
F0.5000243902439023
sI16
F0.6448243902439025
sI17
F0.6512926829268292
sI18
F0.6537317073170734
sI19
F0.6400975609756099
sI20
F0.736087804878049
sI21
F0.7765853658536588
sI22
F0.7156048780487805
sI23
F0.5786731707317074
sI24
F0.4912390243902439
sI25
F0.4570195121951219
sI26
F0.4436878048780487
sI27
F0.46209268292682926
sI28
F0.4672341463414633
sI29
F0.4824780487804879
sI30
F0.4746146341463415
sI31
F0.432619512195122
sI32
F0.35406341463414637
sI33
F-0.4927951219512196
sI34
F-0.07301463414634148
sI35
F0.05739024390243902
sI36
F0.3290146341463415
sI37
F0.554229268292683
sI38
F0.5148829268292683
sI39
F0.2679463414634146
sI40
F0.11579512195121952
sI41
F0.03760975609756097
sI42
F-0.03760975609756097
sI43
F-0.009009756097560983
sI44
F0.1460634146341463
sI45
F0.3647463414634146
sI46
F0.5721560975609757
sI47
F0.651312195121951
sI48
F0.6602439024390244
sI49
F0.5959219512195122
sI50
F0.5525756097560975
sI51
F0.5145073170731707
sI52
F0.5974146341463415
sI53
F0.6582243902439024
sI54
F0.6154536585365853
sI55
F0.4967951219512196
sI56
F0.39839512195121957
sI57
F0.35899024390243917
sI58
F0.35665365853658554
sI59
F0.38984878048780486
sI60
F0.4235414634146341
sI61
F0.46266829268292686
sI62
F0.42143414634146337
sI63
F0.39062926829268296
sI64
F0.3124878048780487
sI65
F-0.4600439024390244
sI66
F-0.024073170731707314
sI67
F0.10699024390243905
sI68
F0.3656487804878048
sI69
F0.6081902439024389
sI70
F0.6116195121951219
sI71
F0.4392341463414634
sI72
F0.29227804878048785
sI73
F0.2063951219512195
sI74
F0.1871804878048781
sI75
F0.2928682926829268
sI76
F0.48175121951219524
sI77
F0.6316731707317074
sI78
F0.6629317073170732
sI79
F0.5982731707317073
sI80
F0.5115560975609756
sI81
F0.45256097560975617
sI82
F0.3699219512195121
sI83
F0.32744878048780485
sI84
F0.40940000000000004
sI85
F0.5347756097560977
sI86
F0.5218439024390245
sI87
F0.40983902439024394
sI88
F0.2979317073170732
sI89
F0.24677073170731703
sI90
F0.2555073170731708
sI91
F0.29728292682926827
sI92
F0.3389512195121951
sI93
F0.3683268292682927
sI94
F0.33960975609756106
sI95
F0.2686682926829268
sI96
F0.14676097560975607
sI97
F-0.3357853658536586
sI98
F0.13794634146341464
sI99
F0.2769463414634146
sI100
F0.45101463414634146
sI101
F0.48371219512195107
sI102
F0.4843609756097562
sI103
F0.37673658536585364
sI104
F0.30320487804878055
sI105
F0.3118146341463415
sI106
F0.33224390243902435
sI107
F0.4813902439024391
sI108
F0.5116292682926828
sI109
F0.48938048780487803
sI110
F0.4060585365853659
sI111
F0.34266829268292687
sI112
F0.32214634146341464
sI113
F0.27507317073170723
sI114
F0.23226341463414638
sI115
F0.22105853658536584
sI116
F0.24487317073170728
sI117
F0.3831219512195122
sI118
F0.4010536585365853
sI119
F0.24851219512195116
sI120
F0.07133658536585363
sI121
F0.04613170731707317
sI122
F0.05675121951219513
sI123
F0.08981951219512194
sI124
F0.13975609756097562
sI125
F0.1856390243902439
sI126
F0.20153658536585373
sI127
F0.12397073170731712
sI128
F0.027175609756097563
sI129
F-0.12431219512195123
sI130
F0.42256585365853666
sI131
F0.5233951219512195
sI132
F0.5090585365853659
sI133
F0.13094146341463414
sI134
F0.017790243902439027
sI135
F0.03714634146341464
sI136
F0.15772195121951227
sI137
F0.2364682926829268
sI138
F0.25358536585365854
sI139
F0.3041073170731706
sI140
F0.27505853658536594
sI141
F0.21819999999999998
sI142
F0.13113658536585363
sI143
F0.13072682926829268
sI144
F0.17090243902439023
sI145
F0.21957073170731709
sI146
F0.22084878048780487
sI147
F0.29679024390243897
sI148
F0.35271707317073175
sI149
F0.46161463414634146
sI150
F0.39797560975609764
sI151
F0.14799024390243903
sI152
F-0.09611219512195121
sI153
F-0.13499024390243902
sI154
F-0.10174634146341463
sI155
F-0.049341463414634155
sI156
F-0.05119512195121951
sI157
F-0.04587804878048778
sI158
F0.0016975609756097534
sI159
F0.0615609756097561
sI160
F-0.006858536585365862
sI161
F0.00876097560975611
sI162
F0.5841707317073173
sI163
F0.6671609756097564
sI164
F0.41380487804878047
sI165
F-0.111209756097561
sI166
F-0.1983268292682927
sI167
F-0.08954634146341463
sI168
F-0.016741463414634145
sI169
F0.03389756097560975
sI170
F0.08443414634146343
sI171
F0.11521951219512196
sI172
F0.15286829268292682
sI173
F0.11854146341463415
sI174
F0.0044195121951219486
sI175
F0.04334634146341463
sI176
F0.14190243902439026
sI177
F0.23329756097560972
sI178
F0.22559024390243904
sI179
F0.32360975609756093
sI180
F0.3811170731707317
sI181
F0.49246829268292686
sI182
F0.4295658536585366
sI183
F0.14398048780487807
sI184
F-0.16221463414634146
sI185
F-0.1921560975609756
sI186
F-0.14979512195121955
sI187
F-0.08396585365853658
sI188
F-0.17727317073170734
sI189
F-0.12650731707317076
sI190
F-0.08768780487804877
sI191
F-0.0006097560975609966
sI192
F-0.00017073170731708178
sI193
F-0.03334634146341463
sI194
F0.4262000000000001
sI195
F0.4043951219512194
sI196
F0.1782146341463414
sI197
F-0.06752195121951221
sI198
F-0.03943902439024388
sI199
F-0.026736585365853653
sI200
F0.040741463414634166
sI201
F0.04506341463414634
sI202
F0.06071707317073172
sI203
F0.15566341463414635
sI204
F0.3088634146341463
sI205
F0.3153365853658537
sI206
F0.13175609756097562
sI207
F0.07608292682926829
sI208
F0.09120487804878047
sI209
F0.12115121951219514
sI210
F0.11164390243902436
sI211
F0.14146829268292685
sI212
F0.15982439024390246
sI213
F0.19209756097560968
sI214
F0.16887804878048782
sI215
F0.03819512195121952
sI216
F-0.13087317073170732
sI217
F-0.1424682926829268
sI218
F-0.07039999999999998
sI219
F-0.06404390243902439
sI220
F-0.10897560975609757
sI221
F-0.06825853658536586
sI222
F-0.024878048780487813
sI223
F-0.002404878048780485
sI224
F0.035117073170731705
sI225
F-0.3814292682926829
sI226
F0.010965853658536582
sI227
F0.1520829268292683
sI228
F0.3514536585365855
sI229
F0.4336243902439025
sI230
F0.3221609756097561
sI231
F0.13399512195121951
sI232
F-0.02473170731707316
sI233
F-0.12088292682926828
sI234
F-0.20682439024390237
sI235
F-0.17055609756097556
sI236
F-0.10260487804878048
sI237
F0.05402439024390244
sI238
F0.23625365853658542
sI239
F0.391619512195122
sI240
F0.579209756097561
sI241
F0.6466195121951219
sI242
F0.6301268292682928
sI243
F0.6168439024390245
sI244
F0.694151219512195
sI245
F0.6759463414634146
sI246
F0.6426487804878049
sI247
F0.5596682926829268
sI248
F0.5177804878048781
sI249
F0.47724390243902437
sI250
F0.43019512195121956
sI251
F0.4672829268292683
sI252
F0.4993121951219513
sI253
F0.4340926829268294
sI254
F0.42169756097560973
sI255
F0.4405951219512195
sI256
F0.3963024390243902
sI257
F-0.43552682926829284
sI258
F-0.024712195121951216
sI259
F0.12919999999999998
sI260
F0.36410243902439027
sI261
F0.4346536585365855
sI262
F0.3602975609756099
sI263
F0.11982439024390246
sI264
F-0.06941951219512196
sI265
F-0.1168536585365854
sI266
F-0.19224390243902437
sI267
F-0.14911219512195123
sI268
F-0.09031707317073173
sI269
F0.0934926829268293
sI270
F0.26685365853658544
sI271
F0.4800195121951222
sI272
F0.579258536585366
sI273
F0.6416048780487804
sI274
F0.641639024390244
sI275
F0.6595414634146342
sI276
F0.7148926829268294
sI277
F0.7541317073170735
sI278
F0.666839024390244
sI279
F0.5789024390243903
sI280
F0.5083560975609757
sI281
F0.49873658536585375
sI282
F0.4742731707317074
sI283
F0.4693560975609756
sI284
F0.48976097560975623
sI285
F0.498058536585366
sI286
F0.4810878048780488
sI287
F0.41487804878048795
sI288
F0.3676585365853659
sI289
F-0.35774146341463425
sI290
F0.07727317073170731
sI291
F0.26987317073170736
sI292
F0.49189268292682947
sI293
F0.5812634146341462
sI294
F0.4314634146341464
sI295
F0.2918390243902439
sI296
F0.2769170731707317
sI297
F0.33365365853658524
sI298
F0.36
sI299
F0.46472682926829256
sI300
F0.48708292682926835
sI301
F0.4403268292682928
sI302
F0.289990243902439
sI303
F0.1891268292682927
sI304
F0.21135121951219515
sI305
F0.1633560975609756
sI306
F0.16973170731707315
sI307
F0.14478536585365853
sI308
F0.1499219512195122
sI309
F0.20791219512195122
sI310
F0.18064878048780492
sI311
F0.03925853658536585
sI312
F-0.06468780487804877
sI313
F0.031219512195121955
sI314
F0.09565365853658538
sI315
F0.17963414634146346
sI316
F0.17064390243902441
sI317
F0.1799951219512195
sI318
F0.2061560975609756
sI319
F0.1490146341463415
sI320
F0.049112195121951224
sI321
F-1.0000000000000004
sI322
F-1.0000000000000004
sI323
F-0.9971902439024396
sI324
F-0.992863414634147
sI325
F-0.9893317073170736
sI326
F-0.9740829268292687
sI327
F-0.939736585365854
sI328
F-0.9116780487804881
sI329
F-0.8930829268292682
sI330
F-0.826580487804878
sI331
F-0.4740243902439024
sI332
F0.35111707317073165
sI333
F0.6890146341463412
sI334
F0.7963121951219513
sI335
F0.7394390243902438
sI336
F0.5899317073170729
sI337
F0.38660487804878046
sI338
F0.08973170731707315
sI339
F-0.13691219512195124
sI340
F-0.2761804878048781
sI341
F-0.3397560975609757
sI342
F-0.49637073170731716
sI343
F-0.648151219512195
sI344
F-0.7297024390243904
sI345
F-0.7960585365853656
sI346
F-0.8322195121951217
sI347
F-0.8625414634146341
sI348
F-0.8935902439024389
sI349
F-0.8987463414634146
sI350
F-0.9189853658536586
sI351
F-0.9322146341463418
sI352
F-0.9423853658536591
sI353
F-0.953546341463415
sI354
F-1.0000000000000004
sI355
F-1.0000000000000004
sI356
F-0.9981121951219517
sI357
F-0.994634146341464
sI358
F-0.9898829268292689
sI359
F-0.96459512195122
sI360
F-0.943707317073171
sI361
F-0.9244097560975612
sI362
F-0.8815365853658534
sI363
F-0.7911853658536586
sI364
F-0.49245853658536576
sI365
F0.20939024390243904
sI366
F0.5608975609756097
sI367
F0.6847365853658534
sI368
F0.6067804878048781
sI369
F0.417980487804878
sI370
F0.07495121951219513
sI371
F-0.2846926829268293
sI372
F-0.5352829268292683
sI373
F-0.6479268292682927
sI374
F-0.6628731707317074
sI375
F-0.7242731707317073
sI376
F-0.7918634146341463
sI377
F-0.8047951219512195
sI378
F-0.8238487804878047
sI379
F-0.8601365853658536
sI380
F-0.8837658536585364
sI381
F-0.9067073170731708
sI382
F-0.9167658536585366
sI383
F-0.933858536585366
sI384
F-0.9453268292682929
sI385
F-0.9566829268292686
sI386
F-0.9652731707317077
sI387
F-1.0000000000000004
sI388
F-1.0000000000000004
sI389
F-0.9964000000000005
sI390
F-0.9923902439024396
sI391
F-0.9825073170731713
sI392
F-0.9535365853658542
sI393
F-0.8993707317073176
sI394
F-0.8476682926829272
sI395
F-0.7477560975609755
sI396
F-0.6403121951219513
sI397
F-0.4494097560975609
sI398
F-0.46904390243902444
sI399
F-0.45384878048780497
sI400
F-0.4804829268292684
sI401
F-0.507248780487805
sI402
F-0.5599268292682927
sI403
F-0.6430682926829268
sI404
F-0.7177268292682927
sI405
F-0.7607609756097561
sI406
F-0.8071121951219513
sI407
F-0.8072390243902438
sI408
F-0.7955756097560976
sI409
F-0.751346341463415
sI410
F-0.605658536585366
sI411
F-0.5610243902439025
sI412
F-0.5878
sI413
F-0.6288926829268293
sI414
F-0.6858097560975611
sI415
F-0.7142780487804878
sI416
F-0.7862048780487807
sI417
F-0.8670829268292688
sI418
F-0.9163024390243907
sI419
F-0.9372292682926834
sI420
F-1.0000000000000004
sI421
F-1.0000000000000004
sI422
F-0.97839512195122
sI423
F-0.9303121951219517
sI424
F-0.8557512195121957
sI425
F-0.7623756097560979
sI426
F-0.6111463414634147
sI427
F-0.4278780487804879
sI428
F-0.15820487804878047
sI429
F0.6188195121951222
sI430
F0.7860634146341468
sI431
F0.7024390243902443
sI432
F-0.6104487804878048
sI433
F-0.7338097560975609
sI434
F-0.5749317073170732
sI435
F-0.3435365853658535
sI436
F0.04808292682926829
sI437
F0.021604878048780467
sI438
F-0.28153170731707317
sI439
F-0.37909756097560965
sI440
F-0.30593170731707325
sI441
F-0.32196097560975595
sI442
F-0.4125365853658536
sI443
F-0.3965073170731706
sI444
F-0.5616926829268293
sI445
F-0.6438926829268293
sI446
F-0.7205609756097563
sI447
F-0.8034634146341465
sI448
F-0.7463463414634148
sI449
F-0.7303073170731708
sI450
F-0.8536585365853662
sI451
F-0.8996487804878052
sI452
F-0.908014634146342
sI453
F0.835278048780488
sI454
F0.8432536585365855
sI455
F0.8521853658536587
sI456
F0.8615609756097562
sI457
F0.8733121951219512
sI458
F0.8894780487804881
sI459
F0.9078585365853662
sI460
F0.9345317073170736
sI461
F0.9459073170731711
sI462
F0.6393853658536587
sI463
F-0.0412292682926829
sI464
F-0.05044878048780489
sI465
F-0.058443902439024406
sI466
F-0.07198048780487805
sI467
F-0.09034146341463417
sI468
F-0.12191219512195124
sI469
F-0.16874146341463422
sI470
F-0.2482292682926829
sI471
F-0.35782926829268297
sI472
F-0.4260975609756097
sI473
F0.025360975609756094
sI474
F0.2843756097560975
sI475
F-0.45173170731707313
sI476
F-0.11726829268292684
sI477
F0.1912731707317073
sI478
F0.2812048780487806
sI479
F0.4035756097560976
sI480
F0.6459365853658539
sI481
F-0.13240487804878046
sI482
F0.17855609756097557
sI483
F0.3385804878048782
sI484
F0.27723414634146337
sI485
F0.22560487804878046
sI486
F0.23520000000000005
sI487
F0.43213658536585364
sI488
F0.6349707317073172
sI489
F0.7462048780487807
sI490
F0.7779707317073172
sI491
F0.8503121951219512
sI492
F0.7880829268292685
sI493
F0.6559609756097561
sI494
F0.6312146341463414
sI495
F0.6292439024390243
sI496
F0.6004634146341463
sI497
F0.5528439024390244
sI498
F0.46648292682926834
sI499
F0.42334146341463424
sI500
F0.41079512195121953
sI501
F0.3807219512195123
sI502
F0.3243170731707317
sI503
F0.27080487804878045
sI504
F0.23333658536585364
sI505
F0.21473658536585363
sI506
F0.2538731707317073
sI507
F0.2683902439024391
sI508
F0.20693658536585366
sI509
F0.09605853658536584
sI510
F0.09413658536585366
sI511
F-0.01334146341463414
sI512
F-0.407239024390244
sI513
F-0.06126829268292683
sI514
F0.248619512195122
sI515
F0.4067609756097561
sI516
F0.2877463414634146
sI517
F0.13053170731707317
sI518
F0.13157560975609753
sI519
F0.32589756097560985
sI520
F0.5503073170731708
sI521
F0.7244536585365854
sI522
F0.7382926829268293
sI523
F0.8111804878048781
sI524
F0.7560341463414633
sI525
F0.6000439024390243
sI526
F0.6190878048780488
sI527
F0.6375024390243902
sI528
F0.5877804878048779
sI529
F0.5506731707317073
sI530
F0.45265853658536587
sI531
F0.4242926829268295
sI532
F0.40197560975609753
sI533
F0.3760780487804879
sI534
F0.27134634146341463
sI535
F0.20715609756097564
sI536
F0.1774829268292683
sI537
F0.21423414634146343
sI538
F0.2610780487804878
sI539
F0.2593951219512195
sI540
F0.20202926829268292
sI541
F0.1572878048780488
sI542
F0.14300487804878054
sI543
F0.04189268292682928
sI544
F-0.3171512195121951
sI545
F0.03580975609756098
sI546
F0.3068243902439025
sI547
F0.4913853658536584
sI548
F0.34510731707317077
sI549
F0.15848292682926832
sI550
F0.13746829268292685
sI551
F0.3123317073170732
sI552
F0.5880487804878051
sI553
F0.7619170731707315
sI554
F0.7769121951219514
sI555
F0.849980487804878
sI556
F0.760648780487805
sI557
F0.6480975609756097
sI558
F0.6135073170731707
sI559
F0.6441268292682928
sI560
F0.6117170731707315
sI561
F0.5603463414634148
sI562
F0.5149463414634147
sI563
F0.4015560975609756
sI564
F0.35920487804878054
sI565
F0.3317073170731707
sI566
F0.2509219512195122
sI567
F0.1469170731707317
sI568
F0.12826829268292686
sI569
F0.17054146341463408
sI570
F0.23094146341463415
sI571
F0.2104195121951219
sI572
F0.1749658536585366
sI573
F0.1369560975609756
sI574
F0.10366829268292684
sI575
F0.048082926829268284
sI576
F-0.24985853658536594
sI577
F-0.048126829268292676
sI578
F-0.7560975609756101
sI579
F-1.0000000000000004
sI580
F0.7560975609756101
sI581
F-0.8487804878048785
sI582
F-1.0000000000000004
sI583
F-0.3317073170731708
sI584
F-0.6292829268292686
sI585
F-0.7560975609756101
sI586
F-0.18540975609756102
sI587
F0.008000000000000014
sI588
F0.20084390243902445
sI589
F0.3436439024390243
sI590
F0.3298243902439024
sI591
F0.5334048780487806
sI592
F0.7653414634146342
sI593
F0.5801073170731706
sI594
F0.47530243902439023
sI595
F0.3850878048780487
sI596
F0.4344536585365853
sI597
F0.47818048780487815
sI598
F0.4036439024390244
sI599
F0.4990097560975611
sI600
F0.5099951219512194
sI601
F0.40062926829268297
sI602
F0.34935609756097563
sI603
F0.312390243902439
sI604
F0.32759512195121954
sI605
F0.4136829268292683
sI606
F0.44380487804878055
sI607
F0.33610731707317076
sI608
F0.3608780487804877
sI609
F0.31899999999999995
sI610
F0.2509463414634146
sI611
F0.26770243902439017
sI612
F0.271590243902439
sI613
F0.2756097560975609
sI614
F0.18560975609756095
sI615
F0.1426829268292683
sI616
F0.08475121951219512
sI617
F-0.2771658536585366
sa(dp17
I1
F0.025819033560975608
sI2
F0.056313093804878055
sI3
F0.03713720102439024
sI4
F0.05125757721951219
sI5
F0.04400982199999998
sI6
F0.07276972151219509
sI7
F0.11457304887804877
sI8
F0.12672956780487804
sI9
F0.1266776899512195
sI10
F0.09655953990243903
sI11
F0.08776082780487805
sI12
F0.09115271360975609
sI13
F0.13546115551219515
sI14
F0.18483205243902442
sI15
F0.1548420523902439
sI16
F0.10678779439024391
sI17
F0.08216037619512194
sI18
F0.07335505321951219
sI19
F0.06384483824390243
sI20
F0.031728266097560964
sI21
F0.035149168780487794
sI22
F0.050207552975609755
sI23
F0.07454200751219514
sI24
F0.1039707284390244
sI25
F0.11903515760975608
sI26
F0.12776209209756098
sI27
F0.10770235419512196
sI28
F0.09757983580487804
sI29
F0.09060222575609758
sI30
F0.10179745078048778
sI31
F0.12708773760975606
sI32
F0.1607284648780488
sI33
F0.023940062975609765
sI34
F0.04453150478048779
sI35
F0.044798887902439036
sI36
F0.05038012078048782
sI37
F0.040177923121951224
sI38
F0.048182953951219507
sI39
F0.07673312404878047
sI40
F0.11112704097560977
sI41
F0.09189335590243902
sI42
F0.10325917790243903
sI43
F0.09514864790243904
sI44
F0.09576756087804877
sI45
F0.15616898604878043
sI46
F0.1215762030243902
sI47
F0.08009871209756096
sI48
F0.06544126702439024
sI49
F0.11274419175609757
sI50
F0.11500239039024392
sI51
F0.11246500019512196
sI52
F0.09541119478048783
sI53
F0.07595970039024391
sI54
F0.08497380004878047
sI55
F0.1332816169756098
sI56
F0.1579682489756098
sI57
F0.182128351902439
sI58
F0.20517654004878047
sI59
F0.1629855635609756
sI60
F0.12525076648780487
sI61
F0.12211846321951218
sI62
F0.16270557980487807
sI63
F0.17035922712195123
sI64
F0.18464543609756098
sI65
F0.018172653024390244
sI66
F0.05848259551219513
sI67
F0.05709889990243902
sI68
F0.05295251356097561
sI69
F0.04846830390243904
sI70
F0.0523361596097561
sI71
F0.07198484380487803
sI72
F0.09340337575609753
sI73
F0.11044581697560976
sI74
F0.1076951216097561
sI75
F0.14152558521951222
sI76
F0.11630608956097559
sI77
F0.08153891751219514
sI78
F0.0608620792195122
sI79
F0.1086697595121951
sI80
F0.14536809102439024
sI81
F0.16643730243902435
sI82
F0.13864300575609756
sI83
F0.14513830156097557
sI84
F0.13762213399999995
sI85
F0.07237860239024389
sI86
F0.09266762902439027
sI87
F0.11921219243902441
sI88
F0.16004309721951218
sI89
F0.19896838712195125
sI90
F0.2499557841951219
sI91
F0.2236515819512195
sI92
F0.1730266675609756
sI93
F0.19880014751219519
sI94
F0.23309020990243906
sI95
F0.25971295521951226
sI96
F0.2739304644390244
sI97
F0.06851444078048781
sI98
F0.11716257404878046
sI99
F0.1206421340487805
sI100
F0.07321832078048779
sI101
F0.14114972809756096
sI102
F0.1497007384390244
sI103
F0.1390660508780488
sI104
F0.1239036449756098
sI105
F0.16133516878048781
sI106
F0.15534108902439026
sI107
F0.17342921990243892
sI108
F0.1504816631219512
sI109
F0.1238947156097561
sI110
F0.1421610244878049
sI111
F0.1689642532195122
sI112
F0.15385520004878048
sI113
F0.17299846951219514
sI114
F0.17864152087804883
sI115
F0.21324025648780492
sI116
F0.21888546551219512
sI117
F0.14866870975609753
sI118
F0.13578815804878047
sI119
F0.16509983609756093
sI120
F0.1995953888780488
sI121
F0.26082856921951214
sI122
F0.2948636455609756
sI123
F0.24881885160975603
sI124
F0.20884346502439027
sI125
F0.2161718704390244
sI126
F0.25210699887804877
sI127
F0.27261343512195124
sI128
F0.3017542123902439
sI129
F0.11469494809756095
sI130
F0.14059388380487806
sI131
F0.13400081297560976
sI132
F0.10145824048780486
sI133
F0.16827893248780484
sI134
F0.20241347990243908
sI135
F0.22923158604878052
sI136
F0.19090407575609758
sI137
F0.2890401932195122
sI138
F0.2395379867804878
sI139
F0.212932518195122
sI140
F0.18887303848780493
sI141
F0.18248544800000005
sI142
F0.18659772087804877
sI143
F0.16093142751219514
sI144
F0.20484146224390248
sI145
F0.19336661512195125
sI146
F0.15015016956097563
sI147
F0.147655587902439
sI148
F0.17661164595121953
sI149
F0.19303551078048783
sI150
F0.19244727239024392
sI151
F0.214790887902439
sI152
F0.22877242609756102
sI153
F0.2607891159024391
sI154
F0.3115826840487804
sI155
F0.3136678664878049
sI156
F0.2587389989756097
sI157
F0.25124311975609753
sI158
F0.2535567022439024
sI159
F0.3151522484390243
sI160
F0.37250192648780495
sI161
F0.1023229264390244
sI162
F0.11377922712195125
sI163
F0.09248513443902438
sI164
F0.12309043697560976
sI165
F0.15761994190243903
sI166
F0.16603216351219513
sI167
F0.16663692604878047
sI168
F0.20133046648780498
sI169
F0.2314377542439024
sI170
F0.262496523804878
sI171
F0.23721932960975606
sI172
F0.22858667921951223
sI173
F0.16234029648780485
sI174
F0.12862072560975607
sI175
F0.13814954804878052
sI176
F0.20060940824390242
sI177
F0.19535536824390248
sI178
F0.132556903902439
sI179
F0.12350300190243904
sI180
F0.15416053395121954
sI181
F0.16200152321951217
sI182
F0.18747695980487802
sI183
F0.2524924176097561
sI184
F0.22303266478048783
sI185
F0.2644980370243902
sI186
F0.32197282097560986
sI187
F0.2947807478048781
sI188
F0.2615893115121951
sI189
F0.23055548419512198
sI190
F0.23383397009756096
sI191
F0.2532676619024391
sI192
F0.2903528951219512
sI193
F0.15199306404878052
sI194
F0.20562149400000002
sI195
F0.16186949097560976
sI196
F0.15099971078048782
sI197
F0.15198687375609754
sI198
F0.20549845043902437
sI199
F0.2099720948780488
sI200
F0.2325463524878049
sI201
F0.27335175087804875
sI202
F0.29341053395121947
sI203
F0.23091492687804877
sI204
F0.23348478087804883
sI205
F0.1897937148780488
sI206
F0.19531104502439028
sI207
F0.1688282359512195
sI208
F0.16480050897560974
sI209
F0.1665532995609756
sI210
F0.1510867370243903
sI211
F0.12533171321951225
sI212
F0.19891450639024394
sI213
F0.24885376624390249
sI214
F0.2768110737560976
sI215
F0.18579811297560975
sI216
F0.17431694951219515
sI217
F0.23535653521951222
sI218
F0.30031538199999996
sI219
F0.3018203730243902
sI220
F0.324651160390244
sI221
F0.27452983048780494
sI222
F0.2225921017560975
sI223
F0.2351661289756098
sI224
F0.28531492995121954
sI225
F0.050964529121951214
sI226
F0.08635452980487805
sI227
F0.05292392395121952
sI228
F0.0647369780487805
sI229
F0.06888751039024389
sI230
F0.10172694043902442
sI231
F0.09352758697560973
sI232
F0.11557860521951216
sI233
F0.10666184195121951
sI234
F0.1231449303902439
sI235
F0.08585375502439026
sI236
F0.12034937697560978
sI237
F0.1224930763902439
sI238
F0.15110400804878052
sI239
F0.16041176360975612
sI240
F0.11993854390243903
sI241
F0.07007909760975609
sI242
F0.10770589351219513
sI243
F0.07960351502439027
sI244
F0.04466795556097561
sI245
F0.09445754004878047
sI246
F0.06305833156097562
sI247
F0.08132407921951221
sI248
F0.07705224960975611
sI249
F0.10193345902439024
sI250
F0.11613549897560975
sI251
F0.10080483195121948
sI252
F0.09840903009756097
sI253
F0.08626541819512196
sI254
F0.08909041224390245
sI255
F0.10038780897560977
sI256
F0.12935791824390241
sI257
F0.06168625551219513
sI258
F0.07291708009756097
sI259
F0.06903974
sI260
F0.06423871624390243
sI261
F0.07477930204878049
sI262
F0.08246228624390244
sI263
F0.10928976839024392
sI264
F0.1462891156097561
sI265
F0.12261395404878053
sI266
F0.08472577502439023
sI267
F0.06605343609756095
sI268
F0.07121314995121951
sI269
F0.09468684019512194
sI270
F0.1586058440487805
sI271
F0.13312489560975613
sI272
F0.09176392048780488
sI273
F0.08141922897560973
sI274
F0.08525935643902437
sI275
F0.08247812448780491
sI276
F0.040233846195121964
sI277
F0.04436112321951221
sI278
F0.07566847243902441
sI279
F0.09868660424390244
sI280
F0.13250196702439024
sI281
F0.15463708287804878
sI282
F0.14083566351219512
sI283
F0.09406265902439027
sI284
F0.10932639443902438
sI285
F0.08709330248780488
sI286
F0.10821756209756099
sI287
F0.12753252975609758
sI288
F0.14866047248780487
sI289
F0.07561256648780489
sI290
F0.07296412751219514
sI291
F0.06863379951219511
sI292
F0.06921183819512196
sI293
F0.07893994287804879
sI294
F0.1329714408780488
sI295
F0.1474802904390244
sI296
F0.22166562995121958
sI297
F0.21740191804878053
sI298
F0.19477867599999998
sI299
F0.16448487551219518
sI300
F0.16749383995121947
sI301
F0.16799424751219513
sI302
F0.18432836990243898
sI303
F0.1898520675121951
sI304
F0.16895725756097563
sI305
F0.16630152702439022
sI306
F0.1440330652195122
sI307
F0.18194374878048777
sI308
F0.1828227897560976
sI309
F0.195702082097561
sI310
F0.20279815756097563
sI311
F0.15742869248780483
sI312
F0.15219006209756097
sI313
F0.1976620076097561
sI314
F0.24335298204878048
sI315
F0.20870170380487807
sI316
F0.1997365530243903
sI317
F0.15529723897560974
sI318
F0.1985239290243903
sI319
F0.21295718878048775
sI320
F0.22009811609756097
sI321
F1.3981234082706754e-05
sI322
F3.5128127255639016e-05
sI323
F0.00032368390243902413
sI324
F0.0007463848780487805
sI325
F0.0009216752195121948
sI326
F0.00683981595121951
sI327
F0.05353225687804876
sI328
F0.07191973175609759
sI329
F0.061522839951219516
sI330
F0.07489774160975611
sI331
F0.0720347483902439
sI332
F0.06339453995121949
sI333
F0.0476670167804878
sI334
F0.03033664609756098
sI335
F0.036921964439024374
sI336
F0.06452066321951222
sI337
F0.09124103897560976
sI338
F0.1025095032195122
sI339
F0.10172045609756097
sI340
F0.10062654160975608
sI341
F0.09480693302439025
sI342
F0.04544042512195122
sI343
F0.02576978356097561
sI344
F0.027946014243902435
sI345
F0.020041318487804882
sI346
F0.015670225609756096
sI347
F0.011826016487804876
sI348
F0.008637307902439025
sI349
F0.00952688004878049
sI350
F0.013197684780487806
sI351
F0.016396218780487803
sI352
F0.016360952780487804
sI353
F0.013123010048780484
sI354
F0.00018338772208270518
sI355
F0.00019951030094235667
sI356
F0.000199657279095237
sI357
F0.0003902178048780489
sI358
F0.0007644019512195122
sI359
F0.014866642975609752
sI360
F0.042043946195121966
sI361
F0.03830504990243902
sI362
F0.048667552878048775
sI363
F0.10094792278048784
sI364
F0.08761238448780488
sI365
F0.10847146390243903
sI366
F0.05190254224390245
sI367
F0.02671107687804878
sI368
F0.0793571516097561
sI369
F0.1408908036097561
sI370
F0.17974827156097561
sI371
F0.14252385419512198
sI372
F0.06603912995121951
sI373
F0.05310355551219513
sI374
F0.061779347512195125
sI375
F0.03528732351219512
sI376
F0.015921744878048778
sI377
F0.02069440097560975
sI378
F0.018935375560975607
sI379
F0.01132364087804878
sI380
F0.007815003804878049
sI381
F0.006574574195121953
sI382
F0.007069105804878046
sI383
F0.008896262487804878
sI384
F0.012131843512195125
sI385
F0.01176343995121952
sI386
F0.009488067512195117
sI387
F2.415981998997486e-05
sI388
F5.737844009022547e-05
sI389
F0.0005313599999999996
sI390
F0.0007950899024390258
sI391
F0.0014617161951219523
sI392
F0.009605766878048783
sI393
F0.035832553121951216
sI394
F0.05120517721951221
sI395
F0.09015481502439024
sI396
F0.14059262609756093
sI397
F0.06493006990243902
sI398
F0.026050015024390236
sI399
F0.020813523560975607
sI400
F0.02073962995121952
sI401
F0.01968546756097561
sI402
F0.019364073512195122
sI403
F0.021605909219512196
sI404
F0.030451811512195115
sI405
F0.026729970439024392
sI406
F0.016249434097560973
sI407
F0.01729321243902439
sI408
F0.0197371263902439
sI409
F0.030721298048780484
sI410
F0.03991679848780488
sI411
F0.0700589283902439
sI412
F0.05678273999999999
sI413
F0.03967523419512194
sI414
F0.03975636590243902
sI415
F0.033511475756097565
sI416
F0.03868996497560975
sI417
F0.0321014559512195
sI418
F0.019298864243902435
sI419
F0.017624155121951215
sI420
F0.00020102362056140116
sI421
F0.00024394695939849734
sI422
F0.01913760097560976
sI423
F0.054658690097560934
sI424
F0.1638331175609755
sI425
F0.3037299143902437
sI426
F0.40792183804878057
sI427
F0.5561417537560978
sI428
F0.6427760709756098
sI429
F0.47756762560975635
sI430
F0.2580803448780487
sI431
F0.3099510464390242
sI432
F0.09371034156097559
sI433
F0.03683165190243903
sI434
F0.18853277121951223
sI435
F0.3350094488780488
sI436
F0.6127889699512197
sI437
F0.6944389089756098
sI438
F0.602267621219512
sI439
F0.5092155562439025
sI440
F0.4542943052195123
sI441
F0.42655100843902444
sI442
F0.3932740508780488
sI443
F0.5267017841951219
sI444
F0.313123498195122
sI445
F0.23746572019512202
sI446
F0.1158874764390244
sI447
F0.040580442878048774
sI448
F0.07376303404878051
sI449
F0.1808158721951219
sI450
F0.0781282924878048
sI451
F0.06489681356097561
sI452
F0.07197438478048776
sI453
F0.040740165756097554
sI454
F0.038145480048780496
sI455
F0.03460851278048781
sI456
F0.031179052439024392
sI457
F0.028269104097560973
sI458
F0.023589423756097558
sI459
F0.019484298487804877
sI460
F0.01385143921951218
sI461
F0.009633056195121954
sI462
F0.0552641887804878
sI463
F0.30569024112195115
sI464
F0.30694103756097557
sI465
F0.3114066390243902
sI466
F0.31587563160975607
sI467
F0.31657109048780496
sI468
F0.31543205009756087
sI469
F0.30088270048780485
sI470
F0.2688726251219512
sI471
F0.21012076312195124
sI472
F0.14035899224390247
sI473
F0.23914776643902444
sI474
F0.08529327039024394
sI475
F0.10569864321951218
sI476
F0.16806285121951223
sI477
F0.17059364151219514
sI478
F0.12292364497560976
sI479
F0.10081623239024388
sI480
F0.33548982687804885
sI481
F0.06327393297560976
sI482
F0.06733177302439025
sI483
F0.05090637760975612
sI484
F0.054936537804878054
sI485
F0.05787163297560976
sI486
F0.07065473200000001
sI487
F0.08833214887804877
sI488
F0.09302972912195122
sI489
F0.07442279297560972
sI490
F0.05600555512195123
sI491
F0.023940002097560975
sI492
F0.03553702795121952
sI493
F0.0554246944390244
sI494
F0.042585106780487804
sI495
F0.05649790702439026
sI496
F0.04883700287804878
sI497
F0.07235972302439024
sI498
F0.09049919595121951
sI499
F0.08998993648780487
sI500
F0.09961278897560973
sI501
F0.12434043775609756
sI502
F0.12037480595121954
sI503
F0.11977754097560975
sI504
F0.11602054687804879
sI505
F0.11824875687804877
sI506
F0.14644585751219513
sI507
F0.13133665390243904
sI508
F0.08951006687804877
sI509
F0.10440867648780487
sI510
F0.08339146287804876
sI511
F0.061728142487804866
sI512
F0.0641185424390244
sI513
F0.09386067321951222
sI514
F0.07167512160975609
sI515
F0.07280349843902438
sI516
F0.09640098604878046
sI517
F0.09461592921951217
sI518
F0.07787174239024389
sI519
F0.11061677224390246
sI520
F0.1295532181951219
sI521
F0.09053520404878046
sI522
F0.04805697619512195
sI523
F0.0263458336097561
sI524
F0.035709607804878064
sI525
F0.06344490102439024
sI526
F0.072248882097561
sI527
F0.06019077824390245
sI528
F0.0560468776097561
sI529
F0.06474056351219512
sI530
F0.10255285248780488
sI531
F0.12177350819512192
sI532
F0.1151406523902439
sI533
F0.10235447375609755
sI534
F0.13798257604878045
sI535
F0.12239279102439024
sI536
F0.1308196399512195
sI537
F0.15902392580487804
sI538
F0.13477325575609758
sI539
F0.12902429497560974
sI540
F0.15026206312195126
sI541
F0.10551346809756099
sI542
F0.10763547297560977
sI543
F0.08959923819512194
sI544
F0.05625166556097562
sI545
F0.08141445990243902
sI546
F0.0864348203902439
sI547
F0.0629409407804878
sI548
F0.07570884619512196
sI549
F0.06537534595121952
sI550
F0.052106947219512194
sI551
F0.09199837921951219
sI552
F0.09254606556097561
sI553
F0.0463553279512195
sI554
F0.036828308097560984
sI555
F0.016257715609756092
sI556
F0.033880081560975606
sI557
F0.03469649024390244
sI558
F0.053583702195121964
sI559
F0.04494551751219513
sI560
F0.043820021951219514
sI561
F0.07273801404878048
sI562
F0.0896213140487805
sI563
F0.12671773302439027
sI564
F0.11514064097560976
sI565
F0.12555440419512193
sI566
F0.10740139375609757
sI567
F0.10848390195121953
sI568
F0.12836964321951216
sI569
F0.16156861848780488
sI570
F0.13371004248780485
sI571
F0.1023267576097561
sI572
F0.10861115180487804
sI573
F0.09017858102439025
sI574
F0.09138030321951222
sI575
F0.0791614379512195
sI576
F0.07966846648780489
sI577
F0.37781922151219494
sI578
F0.43902439024390244
sI579
F0.0011669172932330912
sI580
F0.43902439024390244
sI581
F0.17556097560975623
sI582
F0.00021280952380952497
sI583
F0.48121951219512193
sI584
F0.12141229795121954
sI585
F0.43902439024390266
sI586
F0.126094369902439
sI587
F0.08504624
sI588
F0.05762364102439026
sI589
F0.09173621702439025
sI590
F0.08238813239024392
sI591
F0.14216208497560978
sI592
F0.0669985024878049
sI593
F0.06372978619512196
sI594
F0.08240121824390242
sI595
F0.08059685809756095
sI596
F0.08134053004878049
sI597
F0.10149163360975609
sI598
F0.08220496702439026
sI599
F0.12707373190243898
sI600
F0.10646542697560973
sI601
F0.08912842712195121
sI602
F0.10545623502439025
sI603
F0.06302973590243903
sI604
F0.11827206497560976
sI605
F0.11846048595121952
sI606
F0.10511998897560977
sI607
F0.110143090195122
sI608
F0.10996236575609758
sI609
F0.11785681600000002
sI610
F0.11143080204878049
sI611
F0.08948050624390247
sI612
F0.09146630390243904
sI613
F0.09744081990243902
sI614
F0.10692461190243899
sI615
F0.10413060595121951
sI616
F0.07426087956097563
sI617
F0.07750591380487803
saF0.10421836228287841
aI41
aasS'K'
p18
I3
sS'S_j'
p19
(dp20
I1
F0.0003038202363508771
sI2
F0.0006149890555989973
sI3
F0.0005501477924586465
sI4
F0.0006381383619047624
sI5
F0.0005767051231979956
sI6
F0.0008575694961779451
sI7
F0.0011920642947268177
sI8
F0.0010541317361303262
sI9
F0.0009548512562380947
sI10
F0.0009265463934210529
sI11
F0.0008721974608421058
sI12
F0.0009002658073082696
sI13
F0.0011854498731804514
sI14
F0.0014292118800902265
sI15
F0.001447082477954887
sI16
F0.0012915208933107786
sI17
F0.0008958979127593979
sI18
F0.0005753840527293234
sI19
F0.0004717277609999999
sI20
F0.00039936187857393516
sI21
F0.0004149508055914788
sI22
F0.0005242465624837092
sI23
F0.0007298496521303255
sI24
F0.000895019830553885
sI25
F0.0009394329049599
sI26
F0.0009662281082481197
sI27
F0.000880077362984963
sI28
F0.000786246581230576
sI29
F0.0008814591777218044
sI30
F0.001098384633333333
sI31
F0.0013688317860626564
sI32
F0.0018316029340451102
sI33
F0.0003241611605789476
sI34
F0.0006280968793884712
sI35
F0.0006678924509674186
sI36
F0.0006000608039197996
sI37
F0.0005851951436090227
sI38
F0.0006926002426065161
sI39
F0.0010639411034360892
sI40
F0.0011746903432957388
sI41
F0.0010588022704661661
sI42
F0.0009721279890827074
sI43
F0.000944048259438597
sI44
F0.0010214562992456146
sI45
F0.0011788757846516278
sI46
F0.0011814838270776942
sI47
F0.0009580301882305771
sI48
F0.0008651529677167924
sI49
F0.0008163099426065164
sI50
F0.0006986760942355895
sI51
F0.0006799140199874691
sI52
F0.0006470763367192983
sI53
F0.0006397848284310774
sI54
F0.0006857430129097744
sI55
F0.0008898545339122809
sI56
F0.0010191083288120305
sI57
F0.0012040776392080199
sI58
F0.001254775812007519
sI59
F0.0011075912484185464
sI60
F0.0009812002935238092
sI61
F0.001086029057032582
sI62
F0.0013224058177042613
sI63
F0.001569974733543861
sI64
F0.0019423380470150364
sI65
F0.0003427009860426067
sI66
F0.0006577111447994987
sI67
F0.0006982428858120306
sI68
F0.0005759664609298246
sI69
F0.0005866721787243107
sI70
F0.0006310484358671681
sI71
F0.0008041792129699246
sI72
F0.0009211624632681714
sI73
F0.0009399077933609026
sI74
F0.0009586496006416034
sI75
F0.0010407075971528817
sI76
F0.0011080151960300756
sI77
F0.0009723570784461157
sI78
F0.00085887234836842
sI79
F0.0009241672667644126
sI80
F0.00109884766834837
sI81
F0.0010821314194260651
sI82
F0.0011043318920400998
sI83
F0.0011450636363884708
sI84
F0.0011781384227669172
sI85
F0.0012010680637568924
sI86
F0.0012246548841478697
sI87
F0.0012705660912180456
sI88
F0.0013228048766290737
sI89
F0.0014854420767518807
sI90
F0.0015617511838972437
sI91
F0.0015010242851904766
sI92
F0.0013153180341829575
sI93
F0.0014122366083107758
sI94
F0.0016586809772330816
sI95
F0.0019734440218947373
sI96
F0.002360426708208019
sI97
F0.0008460876574411024
sI98
F0.0012589010949348362
sI99
F0.001254425825360903
sI100
F0.0008679658546265666
sI101
F0.0011414832592255642
sI102
F0.0017663116910676701
sI103
F0.0015182281431553879
sI104
F0.0013773776384862144
sI105
F0.0014823963841503753
sI106
F0.0016846720159774426
sI107
F0.0019402441974310772
sI108
F0.0017708735337719284
sI109
F0.0014253870723784463
sI110
F0.0014563040629348364
sI111
F0.0013792356988446112
sI112
F0.0013182930417944873
sI113
F0.001310395173611528
sI114
F0.0013836835178721802
sI115
F0.0014766279899649127
sI116
F0.0015896950774536326
sI117
F0.0016016640364812018
sI118
F0.00169066091788471
sI119
F0.001800890200611528
sI120
F0.002042781792157895
sI121
F0.0022578243281979955
sI122
F0.002412507769333334
sI123
F0.0023784713727418544
sI124
F0.002410699240498747
sI125
F0.0025065387431553884
sI126
F0.0025921585313057657
sI127
F0.002644380329621552
sI128
F0.0028599692188245626
sI129
F0.0008650188915263152
sI130
F0.001133910849521303
sI131
F0.00103447887913534
sI132
F0.0011504076877167921
sI133
F0.0015826995518170416
sI134
F0.00181214866624311
sI135
F0.0017404611556666668
sI136
F0.0018032230964385963
sI137
F0.0022961431013308275
sI138
F0.0023428265663533857
sI139
F0.0025728634684210527
sI140
F0.0023137020372531333
sI141
F0.0020001459512681706
sI142
F0.0018592311997493746
sI143
F0.00170214445112782
sI144
F0.0015802365646015038
sI145
F0.001426362554385965
sI146
F0.0014176261818521305
sI147
F0.0015868305182857134
sI148
F0.0016345008769899755
sI149
F0.0019000623525789462
sI150
F0.0020662929280701762
sI151
F0.0023050460380551383
sI152
F0.002457054896350878
sI153
F0.002390829034345864
sI154
F0.002629329111488725
sI155
F0.0025702410590877213
sI156
F0.0025905979769197986
sI157
F0.0026708451414310793
sI158
F0.002675534346706771
sI159
F0.0029648258504235575
sI160
F0.0030391961808421022
sI161
F0.0007999676478295747
sI162
F0.0009298401797468694
sI163
F0.000805550541543861
sI164
F0.0013602259733709267
sI165
F0.0015562891867167909
sI166
F0.0016585474420426067
sI167
F0.001741410335776942
sI168
F0.002067244936250626
sI169
F0.002429031805513782
sI170
F0.002381035083887218
sI171
F0.002393920204448621
sI172
F0.0021177490711177956
sI173
F0.0019855449771528796
sI174
F0.001850682431375941
sI175
F0.0017024441513759387
sI176
F0.0015726321366190477
sI177
F0.0013917436325213038
sI178
F0.001514550190052632
sI179
F0.001615178929902257
sI180
F0.0017825063633057643
sI181
F0.0020609998439874693
sI182
F0.0022216624975413537
sI183
F0.0022934004195463652
sI184
F0.0022780585628847127
sI185
F0.0022998742710375938
sI186
F0.0024433749285614043
sI187
F0.002410418028749372
sI188
F0.0023433230295639086
sI189
F0.0022265958436065167
sI190
F0.002295331217842104
sI191
F0.0024537065753984957
sI192
F0.0026857013750350863
sI193
F0.0013011837338947367
sI194
F0.0014710998666265691
sI195
F0.0015937010916666672
sI196
F0.001934520134646617
sI197
F0.0018863783969523809
sI198
F0.002379756040398496
sI199
F0.0021874133310776952
sI200
F0.002055123861243109
sI201
F0.00236787719115539
sI202
F0.002660285944852131
sI203
F0.0025073796994461157
sI204
F0.00221342286119298
sI205
F0.0020774023179548867
sI206
F0.002090692996488722
sI207
F0.0018918166365914783
sI208
F0.0016948194029473677
sI209
F0.001588747500348371
sI210
F0.001583309846255639
sI211
F0.0017567574751654158
sI212
F0.0021443835732431068
sI213
F0.002309612993581453
sI214
F0.0022167438431052646
sI215
F0.0018579080992481185
sI216
F0.0017561424917268173
sI217
F0.0021768971721278195
sI218
F0.0025456235921403492
sI219
F0.0026687326817017537
sI220
F0.002576622935729327
sI221
F0.002262470917591478
sI222
F0.001997678261614034
sI223
F0.002121422406393485
sI224
F0.0022830600321578935
sI225
F0.000742817570887218
sI226
F0.00097552023433584
sI227
F0.0007727240821954895
sI228
F0.0006847830384360909
sI229
F0.0006794262675463657
sI230
F0.0008989379135814536
sI231
F0.001024977526817042
sI232
F0.0009701096517192986
sI233
F0.0008616755132807015
sI234
F0.0009277320576541358
sI235
F0.0008630902369699233
sI236
F0.000896273289902255
sI237
F0.0011097222326791989
sI238
F0.0014952425547844598
sI239
F0.0014347764487994989
sI240
F0.001384940608310777
sI241
F0.0012025400180426065
sI242
F0.000860531519909775
sI243
F0.0006115463987744368
sI244
F0.0004909208063258148
sI245
F0.0006243386237493744
sI246
F0.0006371947621027566
sI247
F0.0008790619463032569
sI248
F0.0009153414685488716
sI249
F0.0011235929603383463
sI250
F0.0010199327673558912
sI251
F0.0010058808739348366
sI252
F0.0009457358512055133
sI253
F0.0009795321050225575
sI254
F0.0011806643791879693
sI255
F0.00148054269833584
sI256
F0.0017783628138746863
sI257
F0.000540261783756892
sI258
F0.0006169403107669166
sI259
F0.0006643464157994987
sI260
F0.0006979151297619045
sI261
F0.0007074698694511287
sI262
F0.0008219090185864659
sI263
F0.0011216752402606518
sI264
F0.0009754957370927328
sI265
F0.0008373349576340853
sI266
F0.0008667706903659151
sI267
F0.0007860915564812035
sI268
F0.0009063692185563914
sI269
F0.0011884543703634082
sI270
F0.001440288040741854
sI271
F0.0014743869540952395
sI272
F0.0012805688400100265
sI273
F0.0009602399689223059
sI274
F0.0007913576280476182
sI275
F0.0006322716478796994
sI276
F0.00048656710395739367
sI277
F0.00047040829712030114
sI278
F0.0006119516116265664
sI279
F0.000885667614914788
sI280
F0.0010112023123784448
sI281
F0.0010897917843984972
sI282
F0.001032522475285715
sI283
F0.0009827373142832078
sI284
F0.000995389302353383
sI285
F0.0009481367053408527
sI286
F0.0011025756952781963
sI287
F0.001340291643418547
sI288
F0.0014989988257042603
sI289
F0.0006454641960877197
sI290
F0.0008001011570701748
sI291
F0.0009294196736215536
sI292
F0.0008496445508145365
sI293
F0.0008263052411027563
sI294
F0.0011645197918696748
sI295
F0.0012074551870776943
sI296
F0.0013440999749348376
sI297
F0.001813443342345863
sI298
F0.0022142192819548886
sI299
F0.0020240888037067668
sI300
F0.001628184024451128
sI301
F0.0015325528204411024
sI302
F0.0015824131327092715
sI303
F0.00158077799930827
sI304
F0.001575188514884713
sI305
F0.0014763517959273194
sI306
F0.0013645706596090237
sI307
F0.001532777055749373
sI308
F0.0017065609448396004
sI309
F0.0017041006909172933
sI310
F0.0018384763436491236
sI311
F0.0017517731198771938
sI312
F0.0017584435273959899
sI313
F0.0018073119426541351
sI314
F0.0018619757038997498
sI315
F0.0019650319453734335
sI316
F0.0019502481566691723
sI317
F0.0018417028832481194
sI318
F0.0019736749681177946
sI319
F0.0021498903005488733
sI320
F0.0024660752143959904
sI321
F1.3981234082706754e-05
sI322
F3.5128127255639016e-05
sI323
F8.151934977192973e-05
sI324
F9.993695735338334e-05
sI325
F0.00013122072681704224
sI326
F0.00012519274991478732
sI327
F0.00016323456017794413
sI328
F0.00016474093828320845
sI329
F0.00015793363618797
sI330
F0.000286973160010025
sI331
F0.0006639690489197999
sI332
F0.0007087844475087717
sI333
F0.00047457870632581427
sI334
F0.00030614173028571423
sI335
F0.00042364159309273176
sI336
F0.0006718077947268169
sI337
F0.0011532005704260652
sI338
F0.001258214598433584
sI339
F0.001099108139546367
sI340
F0.00105824779051629
sI341
F0.0009240430979223068
sI342
F0.0004646854614310781
sI343
F0.00019701645708020065
sI344
F0.00012200955272180453
sI345
F7.27796698721806e-05
sI346
F5.360112833082709e-05
sI347
F4.422634465162889e-05
sI348
F2.1937537220551522e-05
sI349
F2.0054399588972576e-05
sI350
F1.9483370363408402e-05
sI351
F2.075739065413533e-05
sI352
F1.9463293932330617e-05
sI353
F1.514604729573927e-05
sI354
F0.00018338772208270518
sI355
F0.00019951030094235667
sI356
F0.000199657279095237
sI357
F0.00019983151750376036
sI358
F0.00020015438185213134
sI359
F0.00021540045753383328
sI360
F0.00024686708414786956
sI361
F0.0002433894617318289
sI362
F0.0002833890570325815
sI363
F0.0006261088030075189
sI364
F0.0010021692942330821
sI365
F0.0011878666754661664
sI366
F0.0007644010253408517
sI367
F0.0006759673982456134
sI368
F0.0009629984144736837
sI369
F0.0016809782517894743
sI370
F0.0021516943016917276
sI371
F0.0013239583838370924
sI372
F0.0005754031502656641
sI373
F0.0004645580172030079
sI374
F0.0004605626429172934
sI375
F0.00022814249414536316
sI376
F9.582414183208028e-05
sI377
F8.641348968421062e-05
sI378
F6.41765854536342e-05
sI379
F4.222886286716794e-05
sI380
F2.7385631516290687e-05
sI381
F1.807595364411017e-05
sI382
F1.4600172228070119e-05
sI383
F1.2999632278195565e-05
sI384
F1.4940891017543926e-05
sI385
F1.3523390476190333e-05
sI386
F1.0624028669172971e-05
sI387
F2.415981998997486e-05
sI388
F5.737844009022547e-05
sI389
F6.80165720275691e-05
sI390
F7.139177728320851e-05
sI391
F6.835246226566425e-05
sI392
F6.0446832478696645e-05
sI393
F0.00011269290745864592
sI394
F0.00013411398235338326
sI395
F0.0003596299418947372
sI396
F0.0008880626766817037
sI397
F0.0004937931506265664
sI398
F0.00031120619225814583
sI399
F0.00031150835618797034
sI400
F0.0002552923929824562
sI401
F0.0002403417202380952
sI402
F0.0002536657347343357
sI403
F0.00026259968879949864
sI404
F0.00023730506946365918
sI405
F0.00017934256384711787
sI406
F0.0001122441445213033
sI407
F0.00011492473058646607
sI408
F0.00012666115187969933
sI409
F0.0002350855475087718
sI410
F0.0004466572654611533
sI411
F0.0006225368520676697
sI412
F0.0006108654508170434
sI413
F0.0005606394713884726
sI414
F0.0003591011859022554
sI415
F0.00024064980420801985
sI416
F0.00012115563977694289
sI417
F9.562159975939899e-05
sI418
F2.5807805102756854e-05
sI419
F2.1302115729323508e-05
sI420
F0.00020102362056140116
sI421
F0.00024394695939849734
sI422
F0.0001599705703233081
sI423
F7.37623318270671e-05
sI424
F0.00021837742106265882
sI425
F0.0006260793623959923
sI426
F0.001272097006877205
sI427
F0.0031871596400375765
sI428
F0.005954144952140356
sI429
F0.0029634521836366013
sI430
F0.0009799011685112827
sI431
F0.001734956080200495
sI432
F0.0016355721264761883
sI433
F0.0007144876666766936
sI434
F0.002406527555197994
sI435
F0.0054178133823934785
sI436
F0.005596139491729307
sI437
F0.0071745361773207905
sI438
F0.005499747997152883
sI439
F0.004258035967696738
sI440
F0.0038955084258546374
sI441
F0.003041240051406014
sI442
F0.0020554211658922275
sI443
F0.0015350584926691752
sI444
F0.0008518559348370927
sI445
F0.0008402522390751867
sI446
F0.0007376679125714276
sI447
F0.0003197702850100273
sI448
F0.0002948200797969919
sI449
F0.00024964501671930004
sI450
F0.00011458484699498603
sI451
F7.434678901253182e-05
sI452
F7.995815426315845e-05
sI453
F0.0003518156111879711
sI454
F0.00034223731046616456
sI455
F0.0003218940240576431
sI456
F0.00030458560391979873
sI457
F0.00028216572779699397
sI458
F0.0002533769710050135
sI459
F0.0002174235520701753
sI460
F0.00016403494195238132
sI461
F0.00014789688460150376
sI462
F0.0005227271743734333
sI463
F0.002630263198837094
sI464
F0.002644288899225563
sI465
F0.002636954455889724
sI466
F0.002638770584701752
sI467
F0.0026120087418446125
sI468
F0.002588421010766919
sI469
F0.002509761667646618
sI470
F0.0023076869327694235
sI471
F0.0017879485913558895
sI472
F0.0009781296767694232
sI473
F0.0021228835446215556
sI474
F0.0006831935749373444
sI475
F0.0013941118861052638
sI476
F0.0016582525653233086
sI477
F0.0017271447811929828
sI478
F0.0015782747984736847
sI479
F0.0013430005289122816
sI480
F0.002648426706543867
sI481
F0.0008125292034461145
sI482
F0.0008572723214010018
sI483
F0.0007499555919799506
sI484
F0.0009433798926691724
sI485
F0.0008551600154786971
sI486
F0.000876337981664161
sI487
F0.0010492821431979955
sI488
F0.0010554583976917298
sI489
F0.0006443997375839601
sI490
F0.00041877844812030065
sI491
F0.0003755249948771928
sI492
F0.000425246553573935
sI493
F0.0004688315905363406
sI494
F0.0004945710531428573
sI495
F0.000585017526794486
sI496
F0.0006321903783358397
sI497
F0.0007816192711378445
sI498
F0.0009300031940626563
sI499
F0.0009836121152481212
sI500
F0.001134587796250627
sI501
F0.0011879906780927318
sI502
F0.0011568886667644117
sI503
F0.0011569664580551385
sI504
F0.001131287741102757
sI505
F0.0010719721158796984
sI506
F0.0011560928183433595
sI507
F0.001106760051969925
sI508
F0.0009727324488721803
sI509
F0.0009263696579423558
sI510
F0.0008655833723082708
sI511
F0.0007427652140350876
sI512
F0.000649671050666667
sI513
F0.0008388341160501256
sI514
F0.0008919887722280698
sI515
F0.0007846341281102757
sI516
F0.0008719053477593984
sI517
F0.0007778891217017549
sI518
F0.0008083038426466162
sI519
F0.0010078568679298243
sI520
F0.0011471259578922312
sI521
F0.0007540124059924816
sI522
F0.0004204474761278205
sI523
F0.00034629823269172953
sI524
F0.0004369923933734337
sI525
F0.0006013902530726822
sI526
F0.0005795762882180455
sI527
F0.0005840286806992484
sI528
F0.0006927738945764419
sI529
F0.0008179919613433584
sI530
F0.000954639814433585
sI531
F0.0010966409753759398
sI532
F0.0012106110946340847
sI533
F0.0012000122862932331
sI534
F0.0012976879225664168
sI535
F0.0012095375864035085
sI536
F0.001269028845353383
sI537
F0.0012018169692631574
sI538
F0.001153666588268171
sI539
F0.0011718541104661661
sI540
F0.00117350396635589
sI541
F0.0009400722203007525
sI542
F0.0009286566087117801
sI543
F0.0007734263601403508
sI544
F0.0007833335259749368
sI545
F0.0007565648926090225
sI546
F0.0007619761755488725
sI547
F0.0007252732554486215
sI548
F0.0007139934481979946
sI549
F0.0005388406306165411
sI550
F0.0005041172641378445
sI551
F0.0008494930012932336
sI552
F0.0010963749990877197
sI553
F0.000673283024759398
sI554
F0.00032107778044110304
sI555
F0.00024069931897493791
sI556
F0.00037579001880701826
sI557
F0.00047327849022556407
sI558
F0.0004745039352781956
sI559
F0.0004870486602907269
sI560
F0.0005762768999999995
sI561
F0.0008143418260626562
sI562
F0.0010230485481303266
sI563
F0.0012125837172832082
sI564
F0.0012430001125914784
sI565
F0.0013068056447518791
sI566
F0.0012938351796992482
sI567
F0.0012259204593258156
sI568
F0.0011200659459423563
sI569
F0.0010772451003283215
sI570
F0.0010786967962681715
sI571
F0.001085215372671679
sI572
F0.0010987633663533834
sI573
F0.0010130371058045102
sI574
F0.0009761647791453633
sI575
F0.000834316168719298
sI576
F0.0007689595091629073
sI577
F0.004903428836669173
sI578
F0.0059187969924811654
sI579
F0.0011669172932330912
sI580
F0.006652631578947391
sI581
F0.0007939824561403509
sI582
F0.00021280952380952497
sI583
F0.0018239573934837158
sI584
F0.0006370987950275671
sI585
F0.0015398496240601645
sI586
F0.0016173625518897227
sI587
F0.0013121294905162905
sI588
F0.0007397375798471176
sI589
F0.0007103962684310776
sI590
F0.0007725087922781959
sI591
F0.0010438256402606513
sI592
F0.0006866330156165403
sI593
F0.0006588789107869669
sI594
F0.0007061484064135343
sI595
F0.000826385014032581
sI596
F0.0008883119089699239
sI597
F0.0008662092346766914
sI598
F0.0007997301298847124
sI599
F0.0008739527947644111
sI600
F0.0009393831108746873
sI601
F0.0008342470816015035
sI602
F0.00090019738024812
sI603
F0.0009103969188746873
sI604
F0.0009962737075087714
sI605
F0.0010000962838872182
sI606
F0.0009355281824561405
sI607
F0.0009000979451027565
sI608
F0.0009178935580551377
sI609
F0.0009448780419448627
sI610
F0.0008724069433358396
sI611
F0.0008741178911654127
sI612
F0.0008340199128796992
sI613
F0.000774761667609023
sI614
F0.0007302623050401
sI615
F0.0007647035570526318
sI616
F0.000715522771368421
sI617
F0.0007446931701228063
ssS'poss_index'
p21
(dp22
I1
I1
sI2
I1
sI3
I1
sI4
I1
sI5
I1
sI6
I1
sI7
I1
sI8
I1
sI9
I1
sI10
I1
sI11
I1
sI12
I1
sI13
I1
sI14
I1
sI15
I1
sI16
I1
sI17
I1
sI18
I1
sI19
I1
sI20
I1
sI21
I1
sI22
I1
sI23
I1
sI24
I1
sI25
I1
sI26
I1
sI27
I1
sI28
I1
sI29
I1
sI30
I1
sI31
I1
sI32
I1
sI33
I1
sI34
I1
sI35
I1
sI36
I1
sI37
I1
sI38
I1
sI39
I1
sI40
I1
sI41
I1
sI42
I1
sI43
I1
sI44
I1
sI45
I1
sI46
I1
sI47
I1
sI48
I1
sI49
I1
sI50
I1
sI51
I1
sI52
I1
sI53
I1
sI54
I1
sI55
I1
sI56
I1
sI57
I1
sI58
I1
sI59
I1
sI60
I1
sI61
I1
sI62
I1
sI63
I1
sI64
I1
sI65
I1
sI66
I1
sI67
I1
sI68
I1
sI69
I1
sI70
I1
sI71
I1
sI72
I1
sI73
I1
sI74
I1
sI75
I1
sI76
I1
sI77
I1
sI78
I1
sI79
I1
sI80
I1
sI81
I1
sI82
I1
sI83
I1
sI84
I1
sI85
I1
sI86
I1
sI87
I1
sI88
I1
sI89
I1
sI90
I1
sI91
I1
sI92
I1
sI93
I1
sI94
I1
sI95
I1
sI96
I1
sI97
I1
sI98
I1
sI99
I1
sI100
I1
sI101
I1
sI102
I1
sI103
I1
sI104
I1
sI105
I1
sI106
I1
sI107
I1
sI108
I1
sI109
I1
sI110
I1
sI111
I1
sI112
I1
sI113
I1
sI114
I1
sI115
I1
sI116
I1
sI117
I1
sI118
I1
sI119
I1
sI120
I1
sI121
I1
sI122
I1
sI123
I1
sI124
I1
sI125
I1
sI126
I1
sI127
I1
sI128
I1
sI129
I1
sI130
I1
sI131
I1
sI132
I1
sI133
I1
sI134
I1
sI135
I1
sI136
I1
sI137
I1
sI138
I1
sI139
I1
sI140
I1
sI141
I1
sI142
I1
sI143
I1
sI144
I1
sI145
I1
sI146
I1
sI147
I1
sI148
I1
sI149
I1
sI150
I1
sI151
I1
sI152
I1
sI153
I1
sI154
I1
sI155
I1
sI156
I1
sI157
I1
sI158
I1
sI159
I1
sI160
I1
sI161
I1
sI162
I1
sI163
I1
sI164
I1
sI165
I1
sI166
I1
sI167
I1
sI168
I1
sI169
I1
sI170
I1
sI171
I1
sI172
I1
sI173
I1
sI174
I1
sI175
I1
sI176
I1
sI177
I1
sI178
I1
sI179
I1
sI180
I1
sI181
I1
sI182
I1
sI183
I1
sI184
I1
sI185
I1
sI186
I1
sI187
I1
sI188
I1
sI189
I1
sI190
I1
sI191
I1
sI192
I1
sI193
I1
sI194
I1
sI195
I1
sI196
I1
sI197
I1
sI198
I1
sI199
I1
sI200
I1
sI201
I1
sI202
I1
sI203
I1
sI204
I1
sI205
I1
sI206
I1
sI207
I1
sI208
I1
sI209
I1
sI210
I1
sI211
I1
sI212
I1
sI213
I1
sI214
I1
sI215
I1
sI216
I1
sI217
I1
sI218
I1
sI219
I1
sI220
I1
sI221
I1
sI222
I1
sI223
I1
sI224
I1
sI225
I1
sI226
I1
sI227
I1
sI228
I1
sI229
I1
sI230
I1
sI231
I1
sI232
I1
sI233
I1
sI234
I1
sI235
I1
sI236
I1
sI237
I1
sI238
I1
sI239
I1
sI240
I1
sI241
I1
sI242
I1
sI243
I1
sI244
I1
sI245
I1
sI246
I1
sI247
I1
sI248
I1
sI249
I1
sI250
I1
sI251
I1
sI252
I1
sI253
I1
sI254
I1
sI255
I1
sI256
I1
sI257
I1
sI258
I1
sI259
I1
sI260
I1
sI261
I1
sI262
I1
sI263
I1
sI264
I1
sI265
I1
sI266
I1
sI267
I1
sI268
I1
sI269
I1
sI270
I1
sI271
I1
sI272
I1
sI273
I1
sI274
I1
sI275
I1
sI276
I1
sI277
I1
sI278
I1
sI279
I1
sI280
I1
sI281
I1
sI282
I1
sI283
I1
sI284
I1
sI285
I1
sI286
I1
sI287
I1
sI288
I1
sI289
I1
sI290
I1
sI291
I1
sI292
I1
sI293
I1
sI294
I1
sI295
I1
sI296
I1
sI297
I1
sI298
I1
sI299
I1
sI300
I1
sI301
I1
sI302
I1
sI303
I1
sI304
I1
sI305
I1
sI306
I1
sI307
I1
sI308
I1
sI309
I1
sI310
I1
sI311
I1
sI312
I1
sI313
I1
sI314
I1
sI315
I1
sI316
I1
sI317
I1
sI318
I1
sI319
I1
sI320
I1
sI321
I1
sI322
I1
sI323
I1
sI324
I1
sI325
I1
sI326
I1
sI327
I1
sI328
I1
sI329
I1
sI330
I1
sI331
I1
sI332
I1
sI333
I1
sI334
I1
sI335
I1
sI336
I1
sI337
I1
sI338
I1
sI339
I1
sI340
I1
sI341
I1
sI342
I1
sI343
I1
sI344
I1
sI345
I1
sI346
I1
sI347
I1
sI348
I1
sI349
I1
sI350
I1
sI351
I1
sI352
I1
sI353
I1
sI354
I1
sI355
I1
sI356
I1
sI357
I1
sI358
I1
sI359
I1
sI360
I1
sI361
I1
sI362
I1
sI363
I1
sI364
I1
sI365
I1
sI366
I1
sI367
I1
sI368
I1
sI369
I1
sI370
I1
sI371
I1
sI372
I1
sI373
I1
sI374
I1
sI375
I1
sI376
I1
sI377
I1
sI378
I1
sI379
I1
sI380
I1
sI381
I1
sI382
I1
sI383
I1
sI384
I1
sI385
I1
sI386
I1
sI387
I1
sI388
I1
sI389
I1
sI390
I1
sI391
I1
sI392
I1
sI393
I1
sI394
I1
sI395
I1
sI396
I1
sI397
I1
sI398
I1
sI399
I1
sI400
I1
sI401
I1
sI402
I1
sI403
I1
sI404
I1
sI405
I1
sI406
I1
sI407
I1
sI408
I1
sI409
I1
sI410
I1
sI411
I1
sI412
I1
sI413
I1
sI414
I1
sI415
I1
sI416
I1
sI417
I1
sI418
I1
sI419
I1
sI420
I1
sI421
I1
sI422
I1
sI423
I1
sI424
I1
sI425
I1
sI426
I1
sI427
I1
sI428
I1
sI429
I1
sI430
I1
sI431
I1
sI432
I1
sI433
I1
sI434
I1
sI435
I1
sI436
I1
sI437
I1
sI438
I1
sI439
I1
sI440
I1
sI441
I1
sI442
I1
sI443
I1
sI444
I1
sI445
I1
sI446
I1
sI447
I1
sI448
I1
sI449
I1
sI450
I1
sI451
I1
sI452
I1
sI453
I1
sI454
I1
sI455
I1
sI456
I1
sI457
I1
sI458
I1
sI459
I1
sI460
I1
sI461
I1
sI462
I1
sI463
I1
sI464
I1
sI465
I1
sI466
I1
sI467
I1
sI468
I1
sI469
I1
sI470
I1
sI471
I1
sI472
I1
sI473
I1
sI474
I1
sI475
I1
sI476
I1
sI477
I1
sI478
I1
sI479
I1
sI480
I1
sI481
I1
sI482
I1
sI483
I1
sI484
I1
sI485
I1
sI486
I1
sI487
I1
sI488
I1
sI489
I1
sI490
I1
sI491
I1
sI492
I1
sI493
I1
sI494
I1
sI495
I1
sI496
I1
sI497
I1
sI498
I1
sI499
I1
sI500
I1
sI501
I1
sI502
I1
sI503
I1
sI504
I1
sI505
I1
sI506
I1
sI507
I1
sI508
I1
sI509
I1
sI510
I1
sI511
I1
sI512
I1
sI513
I1
sI514
I1
sI515
I1
sI516
I1
sI517
I1
sI518
I1
sI519
I1
sI520
I1
sI521
I1
sI522
I1
sI523
I1
sI524
I1
sI525
I1
sI526
I1
sI527
I1
sI528
I1
sI529
I1
sI530
I1
sI531
I1
sI532
I1
sI533
I1
sI534
I1
sI535
I1
sI536
I1
sI537
I1
sI538
I1
sI539
I1
sI540
I1
sI541
I1
sI542
I1
sI543
I1
sI544
I1
sI545
I1
sI546
I1
sI547
I1
sI548
I1
sI549
I1
sI550
I1
sI551
I1
sI552
I1
sI553
I1
sI554
I1
sI555
I1
sI556
I1
sI557
I1
sI558
I1
sI559
I1
sI560
I1
sI561
I1
sI562
I1
sI563
I1
sI564
I1
sI565
I1
sI566
I1
sI567
I1
sI568
I1
sI569
I1
sI570
I1
sI571
I1
sI572
I1
sI573
I1
sI574
I1
sI575
I1
sI576
I1
sI577
I1
sI578
I1
sI579
I1
sI580
I1
sI581
I1
sI582
I1
sI583
I1
sI584
I1
sI585
I1
sI586
I1
sI587
I1
sI588
I1
sI589
I1
sI590
I1
sI591
I1
sI592
I1
sI593
I1
sI594
I1
sI595
I1
sI596
I1
sI597
I1
sI598
I1
sI599
I1
sI600
I1
sI601
I1
sI602
I1
sI603
I1
sI604
I1
sI605
I1
sI606
I1
sI607
I1
sI608
I1
sI609
I1
sI610
I1
sI611
I1
sI612
I1
sI613
I1
sI614
I1
sI615
I1
sI616
I1
sI617
I1
ssb.