ccopy_reg
_reconstructor
p0
(cNaiveCluster
NaiveClustering
p1
c__builtin__
object
p2
Ntp3
Rp4
(dp5
S'I'
p6
I10
sS'Clusters'
p7
(lp8
(lp9
I0
a(dp10
I1
F98.875
sI2
F108.21428571428572
sI3
F9.000000000000002
sI4
F0.0019841269642857143
sI5
F0.047619047142857154
sI6
F9.656746045357142
sI7
F120.3992053644643
sI8
F12.391865156428565
sI9
F159.67493253214286
sI10
F27.957672017857146
sI11
F21.158730382142863
sI12
F37.4384920357143
sI13
F25.27579396964285
sI14
F-20.396825453571434
sI15
F28.44246007142857
sI16
F-8.045634958928572
sI17
F37.83928569642858
sI18
F0.5300809435714287
sI19
F-2.080860298214286
sa(dp11
I1
F5621.638636363634
sI2
F1881.4077922077925
sI3
F8.094123917297763e-30
sI4
F0.0002204585493827161
sI5
F0.0035273367901234574
sI6
F74.01437786162009
sI7
F50869.27885366708
sI8
F147.22463248576284
sI9
F105837.26996964474
sI10
F294.82435235562826
sI11
F257.2955710463759
sI12
F379.3074810487599
sI13
F283.542547894973
sI14
F60.15885568391276
sI15
F201.34208142411566
sI16
F59.551414563765555
sI17
F364.3694335900539
sI18
F0.021721707817083435
sI19
F1.1020761477008207
saF0.11332007952286283
aI56
aa(lp12
I1
a(dp13
I1
F122.61231884057973
sI2
F197.08333333333331
sI3
F8.999999999999982
sI4
F0.030998389384058016
sI6
F1.5712560204710144
sI7
F1.4587888896231875
sI8
F2.02073266307971
sI9
F1.8306680794927541
sI10
F14.0997047844203
sI11
F11.183977535724633
sI12
F12.99919498695653
sI13
F18.11594213840581
sI14
F-8.747181927355072
sI15
F-3.3015297907608674
sI16
F12.048711736231882
sI17
F18.637278706159435
sI18
F0.4414727343840581
sI19
F1.7708861376811582
sa(dp14
I1
F5461.009156785247
sI2
F1535.1312121212118
sI3
F3.1669179613236214e-28
sI4
F0.002851542746202771
sI5
F7.688958009460896e-06
sI6
F0.5984058001928513
sI7
F70.20277320692792
sI8
F1.0446079020949777
sI9
F141.5354611564169
sI10
F34.25031001379312
sI11
F25.81146148188536
sI12
F32.33463508752822
sI13
F55.08496034899439
sI14
F14.317354013205652
sI15
F38.05388948637686
sI16
F41.949896845732084
sI17
F47.66795525837584
sI18
F0.022444064476730804
sI19
F1.9573636943854187
saF0.5506958250497018
aI276
aa(lp15
I2
a(dp16
I1
F94.90476190476191
sI2
F114.952380952381
sI3
F9.000000000000018
sI5
F0.004629629583333334
sI6
F1.2060185066964286
sI7
F2.2324196246190477
sI8
F1.2238756601726193
sI9
F2.5190602242678573
sI10
F2.7389770669285727
sI11
F0.8683862513095237
sI12
F5.653439186130953
sI13
F1.6951058295238093
sI14
F-5.611772509940477
sI15
F8.743386225238098
sI16
F-3.1316137647023816
sI17
F5.656084689702382
sI18
F0.8770444776785703
sI19
F-2.233631608928572
sa(dp17
I1
F5350.110635871111
sI2
F358.7881380096951
sI3
F3.1743384928653783e-28
sI4
F1.8266656404997696e-05
sI5
F0.0004959217268549322
sI6
F1.4136672788589455
sI7
F70.20277320692792
sI8
F1.3011912388513611
sI9
F141.5354611564169
sI10
F4.827839104784567
sI11
F1.446239345973682
sI12
F13.434436384955196
sI13
F3.6584604795675046
sI14
F11.240481892935065
sI15
F22.307229894941923
sI16
F2.952855777499183
sI17
F13.436273980073835
sI18
F0.02627046879632076
sI19
F0.05107060157874613
saF0.3359840954274354
aI168
aasS'K'
p18
I3
sS'S_j'
p19
(dp20
I1
F55.97885034068138
sI2
F29.18024893787575
sI3
F8.094123917297763e-30
sI4
F1.8266656404997696e-05
sI5
F7.688958009460896e-06
sI6
F0.15728302715952805
sI7
F70.20277320692792
sI8
F0.2872248464432668
sI9
F141.5354611564169
sI10
F1.128508818596222
sI11
F0.8453150652028869
sI12
F1.4924697021787485
sI13
F1.3708844181009272
sI14
F0.36759862605091614
sI15
F1.5464754935086011
sI16
F0.9942097419272032
sI17
F1.6414138280281125
sI18
F0.0006383958079178288
sI19
F0.05107060157874613
ssS'poss_index'
p21
(dp22
I1
I1
sI2
I1
sI3
I1
sI4
I1
sI5
I1
sI6
I1
sI7
I1
sI8
I1
sI9
I1
sI10
I1
sI11
I1
sI12
I1
sI13
I1
sI14
I1
sI15
I1
sI16
I1
sI17
I1
sI18
I1
sI19
I1
ssb.