ccopy_reg
_reconstructor
p0
(cperceptron
Margin_Perceptron
p1
c__builtin__
object
p2
Ntp3
Rp4
(dp5
S'I'
p6
I5
sS'rate'
p7
F1.0
sS'weights'
p8
(dp9
I3
F-51.0
sI4
F-26.0
sI5
F-11.0
sI6
F-101.0
sI7
F-61.0
sI8
F-105.0
sI9
F145.0
sI10
F-31.0
sI11
F-10.0
sI12
F34.0
sI13
F22.0
sI14
F3.0
sI15
F-25.0
sI16
F-44.18999999999997
sI17
F85.91999999999999
sI18
F35.68999999999997
sI19
F-18.75
sI20
F-69.66
sI21
F-39.00999999999996
sI22
F-19.0
sI23
F-12.0
sI24
F-114.0
sI25
F-25.0
sI26
F-58.0
sI27
F-41.0
sI28
F-66.0
sI29
F83.0
sI30
F-25.0
sI31
F57.0
sI32
F30.88000000000011
sI33
F58.93000000000001
sI34
F69.40999999999994
sI35
F-52.92999999999995
sI36
F40.81
sI37
F-47.20999999999998
sI38
F14.38000000000002
sI39
F-20.0
sI40
F-49.0
sI41
F-65.0
sI42
F0.0
ssb.