ccopy_reg
_reconstructor
p0
(cperceptron
Margin_Perceptron
p1
c__builtin__
object
p2
Ntp3
Rp4
(dp5
S'I'
p6
I5
sS'rate'
p7
F1.0
sS'weights'
p8
(dp9
I3
F-36.0
sI4
F-101.0
sI5
F-7.0
sI6
F-33.0
sI7
F30.0
sI8
F-121.0
sI9
F50.0
sI10
F9.0
sI11
F-42.0
sI12
F11.0
sI13
F19.0
sI14
F-41.0
sI15
F-59.0
sI16
F-19.469999999999956
sI17
F-0.6300000000000097
sI18
F44.46000000000001
sI19
F-24.120000000000033
sI20
F-36.53
sI21
F-68.65999999999997
sI22
F-115.0
sI23
F170.0
sI24
F-133.0
sI25
F88.0
sI26
F-60.0
sI27
F-37.0
sI28
F65.0
sI29
F18.0
sI30
F-19.0
sI31
F55.0
sI32
F14.590000000000032
sI33
F116.46999999999997
sI34
F-87.68000000000009
sI35
F-40.579999999999984
sI36
F-20.79000000000002
sI37
F-37.359999999999985
sI38
F38.42999999999977
sI39
F-73.0
sI40
F-90.0
sI41
F-23.0
sI42
F7.0
ssb.