ccopy_reg
_reconstructor
p0
(cperceptron
Margin_Perceptron
p1
c__builtin__
object
p2
Ntp3
Rp4
(dp5
S'I'
p6
I5
sS'rate'
p7
F1.0
sS'weights'
p8
(dp9
I3
F18.0
sI4
F-98.0
sI5
F-8.0
sI6
F-31.0
sI7
F59.0
sI8
F-150.0
sI9
F33.0
sI10
F14.0
sI11
F-53.0
sI12
F-68.0
sI13
F71.0
sI14
F-47.0
sI15
F33.0
sI16
F-8.199999999999974
sI17
F7.149999999999977
sI18
F118.57999999999998
sI19
F-48.31999999999999
sI20
F21.21999999999999
sI21
F4.540000000000006
sI22
F-86.0
sI23
F-64.0
sI24
F-167.0
sI25
F15.0
sI26
F-28.0
sI27
F-90.0
sI28
F-99.0
sI29
F-30.0
sI30
F-80.0
sI31
F122.0
sI32
F13.980000000000047
sI33
F51.33999999999999
sI34
F88.72999999999993
sI35
F-59.10999999999996
sI36
F98.39000000000004
sI37
F31.470000000000027
sI38
F36.07999999999987
sI39
F84.0
sI40
F-79.0
sI41
F-35.0
sI42
F23.0
ssb.