ccopy_reg
_reconstructor
p0
(cperceptron
Margin_Perceptron
p1
c__builtin__
object
p2
Ntp3
Rp4
(dp5
S'I'
p6
I5
sS'rate'
p7
F1.0
sS'weights'
p8
(dp9
I3
F-22.0
sI4
F-63.0
sI5
F-30.0
sI6
F-120.0
sI7
F-63.0
sI8
F-145.0
sI9
F122.0
sI10
F36.0
sI11
F7.0
sI12
F-21.0
sI13
F36.0
sI14
F-75.0
sI15
F-11.0
sI16
F-2.490000000000009
sI17
F30.53
sI18
F-5.210000000000008
sI19
F-42.91
sI20
F-19.019999999999996
sI21
F-0.9099999999999966
sI22
F-90.0
sI23
F28.0
sI24
F-91.0
sI25
F-42.0
sI26
F-30.0
sI27
F22.0
sI28
F37.0
sI29
F23.0
sI30
F-93.0
sI31
F41.0
sI32
F-30.86999999999989
sI33
F90.46999999999997
sI34
F-63.400000000000034
sI35
F-18.539999999999964
sI36
F30.069999999999936
sI37
F-7.959999999999951
sI38
F34.16999999999994
sI39
F-46.0
sI40
F-84.0
sI41
F-65.0
sI42
F9.0
ssb.