ccopy_reg
_reconstructor
p0
(cperceptron
Margin_Perceptron
p1
c__builtin__
object
p2
Ntp3
Rp4
(dp5
S'I'
p6
I5
sS'rate'
p7
F1.0
sS'weights'
p8
(dp9
I3
F-51.0
sI4
F-121.0
sI5
F-25.0
sI6
F-147.0
sI7
F20.0
sI8
F-151.0
sI9
F60.0
sI10
F-69.0
sI11
F43.0
sI12
F20.0
sI13
F36.0
sI14
F-19.0
sI15
F28.0
sI16
F78.03000000000003
sI17
F27.669999999999987
sI18
F74.65000000000003
sI19
F25.069999999999993
sI20
F-1.9200000000000017
sI21
F-48.48999999999998
sI22
F-91.0
sI23
F34.0
sI24
F-52.0
sI25
F76.0
sI26
F33.0
sI27
F-54.0
sI28
F-33.0
sI29
F-7.0
sI30
F-76.0
sI31
F-11.0
sI32
F-48.19999999999993
sI33
F121.60000000000002
sI34
F34.479999999999905
sI35
F59.32000000000002
sI36
F35.860000000000014
sI37
F-118.27999999999997
sI38
F25.020000000000188
sI39
F-44.0
sI40
F-64.0
sI41
F-6.0
sI42
F35.0
ssb.