ccopy_reg
_reconstructor
p0
(cperceptron
Margin_Perceptron
p1
c__builtin__
object
p2
Ntp3
Rp4
(dp5
S'I'
p6
I25
sS'rate'
p7
F1.0
sS'weights'
p8
(dp9
I1
F347.0
sI2
F-4990.0
sI3
F-443.0
sI4
F-2848.0
sI5
F-75257.0
sI6
F-98900.0
sI7
F651.0
sI8
F-22.0
sI9
F-708.0
sI10
F2372.0
sI11
F-775.0
sI12
F13.0
sI13
F6808.450000000011
sI14
F-7820.269999999996
sI15
F-1434.3300000000054
sI16
F8996.670000000015
sI17
F695.5300000000001
sI18
F-10406.929999999988
sI19
F-4989.0
sI20
F302.0
sI21
F-3166.0
sI22
F-329344.0
sI23
F-87803.0
sI24
F1592.0
sI25
F656.0
sI26
F-1277.0
sI27
F-261.0
sI28
F-3143.0
sI29
F3689.0
sI30
F8094.420000000009
sI31
F-4551.840000000003
sI32
F-3076.159999999997
sI33
F7076.0999999999985
sI34
F2294.309999999997
sI35
F-11548.220000000003
sI36
F61.74999999999881
sI37
F-416.0
sI38
F-2422.0
sI39
F-1781.0
sI40
F-1242.0
ssb.