ccopy_reg
_reconstructor
p0
(cPegasos
Pegasos
p1
c__builtin__
object
p2
Ntp3
Rp4
(dp5
S'I'
p6
I25
sS'lamb'
p7
F0.0001
sS'weights'
p8
(dp9
I1
F39.93808049535598
sI2
F-224.66460268317678
sI3
F-56.34674922600601
sI4
F-63.15789473684035
sI5
F-9492.156862744741
sI6
F-10431.372549019574
sI7
F276.78018575850865
sI8
F111.45510835913285
sI9
F27.244582043343787
sI10
F266.3570691434487
sI11
F49.019607843136974
sI12
F90.815273477812
sI13
F477.5325077399321
sI14
F-443.28586171310116
sI15
F279.0165118679012
sI16
F110.88028895768724
sI17
F417.3704850361181
sI18
F-618.2156862745101
sI19
F-510.7327141382809
sI20
F-17.853457172341972
sI21
F-223.5294117647082
sI22
F-48018.67905057058
sI23
F-9969.969040247446
sI24
F-22.910216718265264
sI25
F123.63261093911355
sI26
F-89.78328173374581
sI27
F27.76057791537576
sI28
F-229.82456140350766
sI29
F817.1310629514913
sI30
F249.22394220845973
sI31
F-337.7812177502496
sI32
F42.162022703818224
sI33
F975.0970072239332
sI34
F271.32094943240537
sI35
F-799.7409700722317
sI36
F17.05779153766755
sI37
F-45.201238390093486
sI38
F-240.97007223941952
sI39
F-143.44685242518065
sI40
F-81.21775025799583
ssb.