ccopy_reg
_reconstructor
p0
(cperceptron
Margin_Perceptron
p1
c__builtin__
object
p2
Ntp3
Rp4
(dp5
S'I'
p6
I25
sS'rate'
p7
F1.0
sS'weights'
p8
(dp9
I1
F264.0
sI2
F-5108.0
sI3
F-226.0
sI4
F-4666.0
sI5
F-32694.0
sI6
F-94388.0
sI7
F2959.0
sI8
F348.0
sI9
F140.0
sI10
F2997.0
sI11
F-443.0
sI12
F393.0
sI13
F4383.150000000014
sI14
F-193.8400000000047
sI15
F-3128.5700000000043
sI16
F3615.650000000004
sI17
F6989.889999999975
sI18
F-7712.449999999992
sI19
F-1356.0
sI20
F-931.0
sI21
F-4303.0
sI22
F-268780.0
sI23
F-47569.0
sI24
F256.0
sI25
F484.0
sI26
F-1208.0
sI27
F27.0
sI28
F-1960.0
sI29
F2600.0
sI30
F4974.010000000008
sI31
F1369.5599999999993
sI32
F1267.2600000000002
sI33
F6496.060000000004
sI34
F-845.1899999999989
sI35
F-7313.539999999998
sI36
F73.3099999999972
sI37
F2179.0
sI38
F-531.0
sI39
F159.0
sI40
F-1013.0
ssb.