ccopy_reg
_reconstructor
p0
(cNaiveCluster
NaiveClustering
p1
c__builtin__
object
p2
Ntp3
Rp4
(dp5
S'I'
p6
I10
sS'Clusters'
p7
(lp8
(lp9
I0
a(dp10
I1
F0.400921658986174
sI2
F26.458525345621993
sI3
F2.926267281105996
sI4
F7.815668202764972
sI5
F41448.66359447005
sI6
F22884.472350230397
sI7
F5.490783410138253
sI8
F7.211981566820322
sI9
F8.398617511520772
sI10
F7.896313364055342
sI11
F8.251152073732761
sI12
F7.65437788018437
sI13
F24.671336405529942
sI14
F17.227419354838702
sI15
F19.68850230414743
sI16
F16.776244239631335
sI17
F10.57900921658983
sI18
F11.045967741935458
sI19
F27.615207373271808
sI20
F2.716589861751157
sI21
F7.645161290322596
sI22
F26203.596774193564
sI23
F16858.29493087553
sI24
F7.6313364055299955
sI25
F8.126728110599117
sI26
F8.449308755760391
sI27
F8.608294930875603
sI28
F8.21889400921663
sI29
F28.396313364055285
sI30
F38.20967741935483
sI31
F12.559907834101368
sI32
F19.990783410138263
sI33
F16.444700460829456
sI34
F7.066820276497697
sI35
F5.728110599078327
sI36
F0.21186635944700458
sI37
F3.9470046082949177
sI38
F3.617511520737315
sI39
F5.071428571428571
sI40
F2.2188940092165916
sa(dp11
I1
F0.24073817860601726
sI2
F11.126451400048952
sI3
F1.7820797990655681
sI4
F14.035227381573195
sI5
F4124338334.133067
sI6
F616694660.1158645
sI7
F13.238944881386946
sI8
F1.7886782814146378
sI9
F1.875379146667221
sI10
F2.31485935654154
sI11
F1.44486010153148
sI12
F2.679345685976086
sI13
F171.63090398356803
sI14
F59.138061685166925
sI15
F56.31581692031815
sI16
F46.658315884781935
sI17
F37.731981233171176
sI18
F42.185250446994026
sI19
F10.482077670522834
sI20
F1.870994348719154
sI21
F10.783729419652854
sI22
F3634593955.6639776
sI23
F611198573.5802522
sI24
F6.099339087493752
sI25
F1.9169283000393778
sI26
F3.028602292440478
sI27
F1.3150349613137322
sI28
F2.6286491203797264
sI29
F238.75250369834265
sI30
F167.22383222826525
sI31
F64.61649514160138
sI32
F114.43409499686003
sI33
F103.64705037196265
sI34
F26.773815732059013
sI35
F23.55177147965648
sI36
F0.08000182043613831
sI37
F9.12651525632975
sI38
F7.248283862453564
sI39
F2.0110524579346793
sI40
F1.1413511989016738
saF0.11194029850746269
aI434
aa(lp12
I1
a(dp13
I1
F0.75973154362415
sI2
F26.908724832214833
sI3
F2.734899328859077
sI4
F7.797315436241552
sI5
F25936.357046979712
sI6
F20572.99127516786
sI7
F5.259731543624141
sI8
F6.926174496644191
sI9
F8.34429530201336
sI10
F7.58791946308717
sI11
F8.497315436241585
sI12
F7.730201342281791
sI13
F22.389657718120684
sI14
F17.59771812080529
sI15
F21.31969127516758
sI16
F17.918859060402617
sI17
F9.536812080536796
sI18
F11.230590604026798
sI19
F26.256375838926274
sI20
F2.68322147651007
sI21
F8.430201342281864
sI22
F39724.53489932882
sI23
F15506.602684563684
sI24
F5.72080536912741
sI25
F7.791946308724771
sI26
F7.995973154362323
sI27
F8.096644295301973
sI28
F7.8583892617448505
sI29
F12.476510067114043
sI30
F17.566919463087157
sI31
F19.247456375838762
sI32
F20.927322147650884
sI33
F18.03269127516776
sI34
F11.574302013422695
sI35
F12.65483892617445
sI36
F0.22477852348993266
sI37
F3.5852348993289005
sI38
F3.419463087248374
sI39
F4.85771812080535
sI40
F2.123489932885923
sa(dp14
I1
F0.18266211727162654
sI2
F11.516176344648203
sI3
F1.562313791067399
sI4
F13.503552224140213
sI5
F4124338334.133067
sI6
F659412668.7984432
sI7
F10.684005300616112
sI8
F1.7957549997521023
sI9
F1.78400034255681
sI10
F2.3377988920991
sI11
F1.1111412100369051
sI12
F2.797542605505257
sI13
F57.71466146772078
sI14
F40.07206544097387
sI15
F37.67238902483946
sI16
F27.38242945628126
sI17
F25.874206552976688
sI18
F36.44189353946842
sI19
F11.554106399953069
sI20
F1.4133516030307203
sI21
F15.742942202550411
sI22
F3634593955.6639776
sI23
F443454930.79569274
sI24
F7.469345220656244
sI25
F2.0990620253221275
sI26
F2.339809159789235
sI27
F1.7099282884328821
sI28
F1.8435998215098746
sI29
F39.430273910240864
sI30
F32.757241880682415
sI31
F37.0076132032672
sI32
F29.525765893465426
sI33
F26.21450860173701
sI34
F26.575218081997782
sI35
F30.022553936429095
sI36
F0.0851163041724323
sI37
F7.030003470641449
sI38
F6.837364385809171
sI39
F2.028096871464559
sI40
F1.1667413380449922
saF0.38368502316006176
aI1490
aa(lp15
I2
a(dp16
I1
F0.999999999999994
sI2
F26.986301369862986
sI3
F2.881278538812777
sI4
F7.639269406392685
sI5
F28982.76255707763
sI6
F15333.78538812784
sI7
F5.452054794520552
sI8
F6.84931506849315
sI9
F8.150684931506838
sI10
F7.525114155251137
sI11
F8.342465753424642
sI12
F7.561643835616434
sI13
F27.363515981735166
sI14
F16.341278538812762
sI15
F19.661872146118693
sI16
F17.53785388127851
sI17
F8.576986301369846
sI18
F10.472922374429212
sI19
F27.80821917808217
sI20
F3.999999999999976
sI21
F8.210045662100445
sI22
F32787.60730593606
sI24
F4.484018264840172
sI25
F7.050228310502287
sI26
F9.14611872146118
sI27
F7.922374429223727
sI28
F8.196347031963452
sI29
F7.1232876712328785
sI30
F14.849315068493127
sI31
F23.031963470319685
sI32
F20.995433789954333
sI33
F13.963470319634675
sI34
F11.315068493150662
sI35
F15.844748858447465
sI36
F0.22762557077625586
sI37
F3.337899543378996
sI38
F3.0684931506849367
sI39
F4.72602739726027
sI40
F2.20091324200913
sa(dp17
I1
F0.0025006391690800835
sI2
F10.33467387206234
sI3
F1.7748313853629964
sI4
F14.25918478488541
sI5
F4124338334.133067
sI6
F549564796.0041894
sI7
F11.386452180470048
sI8
F1.7524192534874894
sI9
F2.266180721377398
sI10
F2.2963847346152213
sI11
F1.1528214151061944
sI12
F3.2106321477943975
sI13
F144.9504761132755
sI14
F52.012124045913346
sI15
F47.88216849733995
sI16
F37.55466096937707
sI17
F26.419018398894057
sI18
F42.04967765908434
sI19
F16.421766997612202
sI20
F0.01527818369452974
sI21
F8.038247245611853
sI22
F8706028771.31296
sI23
F3904400.1396946376
sI24
F10.617862678563917
sI25
F0.9378325164425451
sI26
F0.5106614720790925
sI27
F0.6590842444807491
sI28
F0.9658581542457373
sI29
F2.603996481085831
sI30
F26.688199070001108
sI31
F96.26044153994401
sI32
F31.784382723807095
sI33
F20.42067780989485
sI34
F23.877340706296298
sI35
F43.278538812785335
sI36
F0.08284754723304431
sI37
F6.39906162288971
sI38
F5.908131205228116
sI39
F2.1539524946587942
sI40
F1.4915587951908178
saF0.056613484302624806
aI219
aa(lp18
I3
a(dp19
I1
F0.8508064516129026
sI2
F27.020161290322665
sI3
F2.649193548387103
sI4
F7.556451612903222
sI5
F34292.48387096777
sI6
F19765.120967741954
sI7
F7.181451612903229
sI8
F7.770161290322591
sI9
F7.536290322580647
sI10
F8.310483870967733
sI11
F8.419354838709664
sI12
F8.13306451612903
sI13
F48.5556451612903
sI14
F7.864112903225812
sI15
F12.922983870967762
sI16
F19.18346774193547
sI17
F4.69879032258064
sI18
F6.775403225806455
sI19
F25.83467741935492
sI20
F2.790322580645166
sI21
F8.068548387096772
sI22
F87585.09274193556
sI23
F16570.443548387113
sI24
F6.088709677419364
sI25
F7.576612903225805
sI26
F7.600806451612921
sI27
F8.15725806451613
sI28
F7.568548387096785
sI29
F12.504032258064539
sI30
F18.418024193548398
sI31
F17.85754032258065
sI32
F18.688185483870946
sI33
F19.357540322580647
sI34
F12.409959677419367
sI35
F13.248669354838709
sI36
F0.16370967741935477
sI37
F4.036290322580641
sI38
F2.887096774193549
sI39
F4.306451612903234
sI40
F1.5604838709677455
sa(dp20
I1
F0.1274487397152938
sI2
F6.926717382786991
sI3
F1.1436430716990986
sI4
F10.709350920726134
sI5
F4124338334.133067
sI6
F717071665.7828785
sI7
F9.590423795220065
sI8
F1.1250979495886098
sI9
F3.9339003526185254
sI10
F1.664343084759046
sI11
F1.0461016063732522
sI12
F2.042950894606233
sI13
F245.9011987723652
sI14
F40.65760973618907
sI15
F51.90028336815988
sI16
F171.42784298680917
sI17
F19.9891037939141
sI18
F38.77367999869396
sI19
F13.247861433982015
sI20
F1.486221757868613
sI21
F13.756415698054033
sI22
F20518872778.068302
sI23
F871307584.1425489
sI24
F6.7451351704322775
sI25
F2.8281147969178573
sI26
F3.512064124330668
sI27
F2.626991641635106
sI28
F2.327265900483213
sI29
F45.271238735797304
sI30
F44.66976652572807
sI31
F59.75196679998693
sI32
F39.87982300999082
sI33
F37.89767530201114
sI34
F38.35274615221363
sI35
F38.462078789016644
sI36
F0.09296027164685913
sI37
F8.480459057071947
sI38
F6.432545383309418
sI39
F2.189108005746374
sI40
F0.40118519002220254
saF0.06407617086978899
aI248
aa(lp21
I4
a(dp22
I1
F0.4736842105263156
sI2
F26.736842105263154
sI3
F2.6578947368421044
sI4
F6.789473684210528
sI5
F54097.89473684211
sI6
F27969.42105263158
sI7
F4.815789473684211
sI8
F7.447368421052629
sI9
F8.421052631578943
sI10
F7.947368421052629
sI11
F8.236842105263156
sI12
F7.526315789473682
sI13
F23.05263157894738
sI14
F17.210526315789476
sI15
F19.973684210526326
sI16
F18.210526315789483
sI17
F9.342105263157896
sI18
F12.21052631578948
sI19
F25.10526315789472
sI20
F3.999999999999997
sI21
F6.578947368421054
sI22
F449256.99999999977
sI24
F8.421052631578952
sI25
F4.499999999999998
sI26
F8.026315789473678
sI27
F8.473684210526308
sI28
F8.552631578947361
sI29
F8.131578947368421
sI30
F19.60526315789475
sI31
F19.60526315789475
sI32
F14.868421052631588
sI33
F17.631578947368432
sI34
F12.500000000000005
sI35
F15.789473684210522
sI36
F0.16552631578947374
sI37
F4.157894736842105
sI38
F3.6578947368421044
sI39
F5.394736842105263
sI40
F2.2368421052631575
sa(dp23
I1
F0.25604551920341384
sI2
F34.793741109530565
sI3
F1.204125177809388
sI4
F12.386913229018495
sI5
F8691416322.745377
sI6
F757343274.5746799
sI7
F5.34352773826458
sI8
F1.2809388335704126
sI9
F0.9530583214793739
sI10
F2.2674253200568986
sI11
F1.1045519203413947
sI12
F2.5263157894736854
sI13
F88.69985775248934
sI14
F61.35988620199148
sI15
F33.43172119487908
sI16
F40.49502133712658
sI17
F35.474395448079655
sI18
F49.30583214793742
sI19
F11.394025604551912
sI20
F0.01527818369452974
sI21
F2.3044096728307255
sI22
F3634593955.6639776
sI23
F3904400.1396946376
sI24
F2.3044096728307246
sI25
F2.1486486486486496
sI26
F0.9452347083926037
sI27
F0.2560455192034139
sI28
F0.25391180654338563
sI29
F1.2524893314367
sI30
F1.866998577524892
sI31
F1.866998577524892
sI32
F23.630867709815057
sI33
F6.401137980085344
sI34
F53.71621621621623
sI35
F214.22475106685656
sI36
F0.0703929587482219
sI37
F8.028449502133718
sI38
F7.36628733997155
sI39
F2.191322901849218
sI40
F1.0504978662873399
saF0.010036026762738034
aI38
aa(lp24
I5
a(dp25
I2
F25.602150537634426
sI3
F3.060931899641576
sI4
F8.896057347670252
sI5
F38422.02867383516
sI6
F30323.577060931926
sI7
F5.168458781362001
sI8
F6.745519713261651
sI9
F8.390681003584241
sI10
F7.448028673835118
sI11
F7.992831541218634
sI12
F7.318996415770599
sI13
F15.51978494623659
sI14
F19.609390681003624
sI15
F20.89612903225812
sI16
F17.541290322580682
sI17
F12.365663082437322
sI18
F14.014408602150558
sI19
F26.534050179211487
sI20
F2.741935483870967
sI21
F6.978494623655923
sI22
F13261.100358422957
sI24
F4.734767025089598
sI25
F6.605734767025087
sI26
F8.465949820788518
sI27
F7.813620071684584
sI28
F8.408602150537627
sI29
F8.232974910394262
sI30
F21.059462365591443
sI31
F16.787706093189982
sI32
F19.631218637992863
sI33
F17.54412186379932
sI34
F9.956344086021526
sI35
F14.877455197132662
sI36
F0.18924731182795704
sI37
F3.1146953405017914
sI38
F3.4336917562724
sI39
F5.347670250896051
sI40
F2.2222222222222254
sa(dp26
I1
F0.0025006391690800835
sI2
F5.312369459271304
sI3
F1.381166034914007
sI4
F15.17980454346202
sI5
F4124338334.133067
sI6
F721417117.7773129
sI7
F9.795260565740962
sI8
F2.053711869214303
sI9
F1.5842293906810072
sI10
F2.7733684020525424
sI11
F1.352466413965596
sI12
F2.2899615791237964
sI13
F24.864583406822952
sI14
F29.327211497898478
sI15
F28.454975609190086
sI16
F30.287437897424066
sI17
F20.207008821330014
sI18
F23.67163840798333
sI19
F9.717361594595292
sI20
F1.5230912044557998
sI21
F11.970758876769517
sI22
F3634593955.6639776
sI23
F3904400.1396946376
sI24
F6.50493798509582
sI25
F2.01665764162863
sI26
F1.3936205874010499
sI27
F1.144993682473379
sI28
F1.0842422835924814
sI29
F1.646966297929395
sI30
F21.00782165235549
sI31
F15.342927812588583
sI32
F7.3113416750470295
sI33
F11.368596258477112
sI34
F20.98169737758181
sI35
F22.000442781258904
sI36
F0.07350626595497792
sI37
F5.224207730589728
sI38
F5.275263660039704
sI39
F2.090920811737705
sI40
F0.8641087130295751
saF0.07205352547606794
aI279
aa(lp27
I6
a(dp28
I2
F26.029411764705888
sI3
F2.88235294117647
sI4
F8.088235294117645
sI5
F24298.558823529405
sI6
F27645.970588235297
sI7
F4.352941176470588
sI8
F7.294117647058824
sI9
F8.323529411764707
sI10
F7.529411764705885
sI11
F8.47058823529412
sI12
F7.382352941176469
sI13
F18.460882352941173
sI14
F19.225588235294115
sI15
F23.13735294117647
sI16
F16.99029411764706
sI17
F10.784411764705885
sI18
F11.402058823529412
sI19
F23.8235294117647
sI20
F2.0
sI21
F4.0588235294117645
sI22
F535929.9999999997
sI24
F4.647058823529411
sI25
F8.588235294117647
sI26
F7.47058823529412
sI27
F6.000000000000001
sI28
F9.058823529411763
sI29
F7.647058823529412
sI30
F22.64705882352942
sI31
F14.70588235294118
sI32
F22.64705882352942
sI33
F9.70588235294118
sI34
F7.647058823529412
sI35
F22.64705882352942
sI36
F0.35705882352941176
sI37
F3.735294117647056
sI38
F4.352941176470588
sI39
F5.64705882352941
sI40
F2.176470588235293
sa(dp29
I1
F0.0025006391690800835
sI2
F8.756684491978609
sI3
F1.258467023172905
sI4
F14.810160427807482
sI5
F4124338334.133067
sI6
F693369453.7869873
sI7
F12.598930481283421
sI8
F1.729055258467023
sI9
F2.528520499108735
sI10
F1.8930481283422462
sI11
F0.9233511586452765
sI12
F4.485739750445633
sI13
F43.683238591800354
sI14
F65.50601934046347
sI15
F78.98265035650626
sI16
F30.1244150623886
sI17
F34.47177691622104
sI18
F29.353113814616755
sI19
F9.240641711229948
sI20
F0.01527818369452974
sI21
F1.0267379679144386
sI22
F10276622400.000002
sI23
F3904400.1396946376
sI24
F6.417112299465242
sI25
F2.3101604278074865
sI26
F0.2566844919786097
sI27
F0.024287867771897537
sI28
F1.0267379679144386
sI29
F6.417112299465237
sI30
F6.4171122994652405
sI31
F25.66844919786097
sI32
F6.4171122994652405
sI33
F25.66844919786097
sI34
F6.417112299465237
sI35
F6.4171122994652405
sI36
F0.06862139037433154
sI37
F10.139928698752227
sI38
F9.568627450980388
sI39
F1.32620320855615
sI40
F1.664884135472371
saF0.009006690684508493
aI34
aa(lp30
I7
a(dp31
I2
F26.909920182440192
sI3
F2.73888255416188
sI4
F8.196123147092361
sI5
F33866.5427594071
sI6
F25039.02622576967
sI7
F5.340935005701261
sI8
F7.2303306727479795
sI9
F8.633979475484631
sI10
F7.768529076396804
sI11
F8.297605473204067
sI12
F7.5005701254275925
sI13
F18.506294184720886
sI14
F19.25657924743472
sI15
F21.693295324971807
sI16
F16.78679589509715
sI17
F11.613477765108469
sI18
F12.115188141391299
sI19
F26.99771949828962
sI20
F2.877993158494827
sI21
F7.3671607753705795
sI22
F22997.777651083376
sI23
F37.00342075256557
sI24
F5.589509692132289
sI25
F6.898517673888273
sI26
F7.758266818700127
sI27
F7.48688711516535
sI28
F8.20296465222351
sI29
F7.653363740022836
sI30
F32.12348916761729
sI31
F15.808038768529205
sI32
F19.128426453820033
sI33
F17.444389965792645
sI34
F6.680923603192781
sI35
F8.723705815279455
sI36
F0.20784492588369433
sI37
F3.9543899657924624
sI38
F4.383124287343219
sI39
F5.289623717217776
sI40
F2.1961231470923455
sa(dp32
I1
F0.0025006391690800835
sI2
F17.566077276726883
sI3
F1.3986348229487162
sI4
F15.185236094406545
sI5
F4124338334.133067
sI6
F615694284.5917804
sI7
F14.320845243487733
sI8
F1.6341018311699869
sI9
F1.4811728443271335
sI10
F1.879008450352216
sI11
F1.054023940061336
sI12
F3.147545336686416
sI13
F78.07055782659897
sI14
F65.14136750883844
sI15
F49.64721001884805
sI16
F35.22806905989172
sI17
F30.980399649334156
sI18
F42.14408344058977
sI19
F9.374424017119356
sI20
F1.6529055570307807
sI21
F14.746317614532582
sI22
F3634593955.6639776
sI23
F3904400.1396946376
sI24
F11.883816768456215
sI25
F2.436036612986354
sI26
F4.2154709652562055
sI27
F3.133674887927391
sI28
F2.2715437122194317
sI29
F3.760984676902924
sI30
F241.32723393053374
sI31
F79.76032628616593
sI32
F75.0517061969247
sI33
F54.91474703040149
sI34
F26.28769880351753
sI35
F42.31012152522871
sI36
F0.09130208551360774
sI37
F9.146319176520219
sI38
F9.369029953713115
sI39
F1.9160223468341064
sI40
F1.0459666880138312
saF0.22593926917138446
aI877
aa(lp33
I8
a(dp34
I2
F27.066666666666666
sI3
F2.533333333333334
sI4
F7.633333333333333
sI5
F40083.23333333334
sI6
F28326.43333333333
sI7
F5.033333333333335
sI8
F7.166666666666667
sI9
F8.4
sI10
F7.999999999999999
sI11
F8.299999999999999
sI12
F7.8
sI13
F20.600000000000005
sI14
F17.633333333333333
sI15
F19.86666666666667
sI16
F16.866666666666667
sI17
F13.233333333333336
sI18
F11.800000000000002
sI19
F27.933333333333316
sI20
F2.466666666666668
sI21
F7.999999999999999
sI22
F4666310.400000006
sI24
F3.733333333333334
sI25
F7.000000000000001
sI26
F7.933333333333334
sI27
F7.999999999999999
sI28
F8.466666666666667
sI29
F8.466666666666667
sI30
F75.0
sI31
F5.0
sI32
F5.0
sI33
F7.3333333333333375
sI34
F2.666666666666666
sI35
F5.0
sI36
F0.019333333333333338
sI37
F4.166666666666666
sI38
F4.566666666666667
sI39
F5.200000000000002
sI40
F2.133333333333334
sa(dp35
I1
F0.0025006391690800835
sI2
F18.478160919540226
sI3
F1.4988505747126424
sI4
F16.791954022988502
sI5
F4124338334.133067
sI6
F650849952.667816
sI7
F7.205747126436777
sI8
F1.9367816091954029
sI9
F1.6275862068965514
sI10
F1.724137931034482
sI11
F1.1827586206896552
sI12
F1.6827586206896559
sI13
F82.45517241379308
sI14
F43.826436781609196
sI15
F41.15402298850575
sI16
F48.05057471264368
sI17
F35.012643678160906
sI18
F43.06206896551723
sI19
F1.0298850574712637
sI20
F0.2574712643678159
sI21
F0.14218307333799582
sI22
F25665665271377.22
sI23
F3904400.1396946376
sI24
F12.616091954022993
sI25
F0.027709297912713444
sI26
F1.0298850574712648
sI27
F0.024287867771897537
sI28
F0.2574712643678162
sI29
F0.8619744964878987
sI30
F1.7806679336741158
sI31
F0.6117762136092689
sI32
F0.5236832575028336
sI33
F6.436781609195398
sI34
F6.436781609195404
sI35
F0.44206996414314736
sI36
F0.04986850574712643
sI37
F8.971264367816092
sI38
F6.874712643678162
sI39
F2.510344827586208
sI40
F0.947126436781609
saF0.00797735460627895
aI30
aa(lp36
I9
a(dp37
I1
F0.8237885462555081
sI2
F25.541850220264255
sI3
F3.52863436123349
sI4
F6.7224669603524205
sI5
F928698.114537446
sI6
F2217.3568281938324
sI7
F5.422907488986774
sI8
F6.537444933920704
sI9
F8.052863436123346
sI10
F7.365638766519825
sI11
F8.255506607929533
sI12
F7.431718061674
sI13
F31.559471365638803
sI14
F20.872246696035262
sI15
F14.361233480176194
sI16
F14.436123348017636
sI17
F6.647577092511
sI18
F12.211453744493385
sI19
F25.11013215859028
sI20
F2.933920704845823
sI21
F7.088105726872242
sI22
F34262.969162995585
sI23
F16646.286343612337
sI24
F4.88105726872246
sI25
F6.555066079295148
sI26
F7.277533039647568
sI27
F6.859030837004409
sI28
F6.951541850220268
sI29
F9.726872246696027
sI30
F18.619735682819396
sI31
F18.76511013215859
sI32
F22.276123348017624
sI33
F17.787136563876654
sI34
F10.02502202643173
sI35
F12.483171806167405
sI36
F0.1716740088105725
sI37
F1.9647577092511046
sI38
F1.9118942731277595
sI39
F5.740088105726858
sI40
F3.312775330396474
sa(dp38
I1
F0.14580328252309838
sI2
F10.727223110210106
sI3
F1.5865658258937214
sI4
F9.865112471248658
sI5
F6282098370241.797
sI6
F106073776.94733146
sI7
F7.908853456005613
sI8
F4.338193442750775
sI9
F2.890998401621774
sI10
F3.5604070016763525
sI11
F1.6158434369030434
sI12
F4.272971813964371
sI13
F294.66348290515
sI14
F102.84643873533196
sI15
F81.93087988772372
sI16
F52.5124946395853
sI17
F37.937195430977404
sI18
F90.71615141709852
sI19
F81.8948968851117
sI20
F1.4867646485517085
sI21
F16.87715878523253
sI22
F3634593955.6639776
sI23
F616723323.6654334
sI24
F12.476940470157121
sI25
F7.106467584109774
sI26
F7.86511247124869
sI27
F7.103933569841334
sI28
F7.92242017855055
sI29
F48.20825698803167
sI30
F59.5127928501813
sI31
F58.28845695684373
sI32
F53.143045082063104
sI33
F31.71588512728547
sI34
F35.90625431367198
sI35
F37.536466001325536
sI36
F0.08018302600288478
sI37
F2.3438852286460574
sI38
F2.726716307356439
sI39
F1.6976336205216194
sI40
F2.1185528829285354
saF0.05867215645908389
aI227
aasS'K'
p39
I10
sS'S_j'
p40
(dp41
I1
F0.0025006391690800835
sI2
F0.1242897167016206
sI3
F0.015555076400679225
sI4
F0.1391026938313553
sI5
F4124338334.133067
sI6
F6482334.5355017
sI7
F0.11680049269283148
sI8
F0.01947325277139684
sI9
F0.020016682312993698
sI10
F0.023226788508272908
sI11
F0.011970758014581162
sI12
F0.029194758147742465
sI13
F1.595630870568202
sI14
F0.5955907112521127
sI15
F0.5264134737376849
sI16
F0.4393813007257908
sI17
F0.32225018744026496
sI18
F0.43208042562450116
sI19
F0.15716622524052123
sI20
F0.01527818369452974
sI21
F0.14218307333799582
sI22
F3634593955.6639776
sI23
F3904400.1396946376
sI24
F0.09361903858317225
sI25
F0.027709297912713444
sI26
F0.03189292852625047
sI27
F0.024287867771897537
sI28
F0.023985082725789135
sI29
F0.8619744964878987
sI30
F1.7806679336741158
sI31
F0.6117762136092689
sI32
F0.5236832575028336
sI33
F0.4310985172832556
sI34
F0.3246477542162501
sI35
F0.44206996414314736
sI36
F0.0008529927571490388
sI37
F0.07668330370518513
sI38
F0.07415593528413228
sI39
F0.021051025000832696
sI40
F0.012397453310696378
ssS'poss_index'
p42
(dp43
I1
I1
sI2
I1
sI3
I1
sI4
I1
sI5
I1
sI6
I1
sI7
I1
sI8
I1
sI9
I1
sI10
I1
sI11
I1
sI12
I1
sI13
I1
sI14
I1
sI15
I1
sI16
I1
sI17
I1
sI18
I1
sI19
I1
sI20
I1
sI21
I1
sI22
I1
sI23
I1
sI24
I1
sI25
I1
sI26
I1
sI27
I1
sI28
I1
sI29
I1
sI30
I1
sI31
I1
sI32
I1
sI33
I1
sI34
I1
sI35
I1
sI36
I1
sI37
I1
sI38
I1
sI39
I1
sI40
I1
ssb.