ccopy_reg
_reconstructor
p0
(cperceptron
Margin_Perceptron
p1
c__builtin__
object
p2
Ntp3
Rp4
(dp5
S'I'
p6
I25
sS'rate'
p7
F1.0
sS'weights'
p8
(dp9
I1
F250.0
sI2
F-2273.0
sI3
F-162.0
sI4
F-1280.0
sI5
F-14598.0
sI6
F-115248.0
sI7
F3992.0
sI8
F515.0
sI9
F228.0
sI10
F3958.0
sI11
F-907.0
sI12
F1136.0
sI13
F7559.960000000017
sI14
F-5673.3700000000035
sI15
F473.1299999999969
sI16
F10442.47000000002
sI17
F5128.429999999998
sI18
F-9491.809999999989
sI19
F-910.0
sI20
F794.0
sI21
F-3850.0
sI22
F-258277.0
sI23
F-78049.0
sI24
F821.0
sI25
F818.0
sI26
F-738.0
sI27
F1512.0
sI28
F-2233.0
sI29
F4325.0
sI30
F3364.749999999999
sI31
F-366.8800000000019
sI32
F-1589.8200000000015
sI33
F14405.860000000017
sI34
F2309.5499999999993
sI35
F-8324.06
sI36
F181.3200000000032
sI37
F1517.0
sI38
F-2173.0
sI39
F-282.0
sI40
F-1490.0
ssb.