ccopy_reg
_reconstructor
p0
(cperceptron
Margin_Perceptron
p1
c__builtin__
object
p2
Ntp3
Rp4
(dp5
S'I'
p6
I25
sS'rate'
p7
F1.0
sS'weights'
p8
(dp9
I1
F219.0
sI2
F-6263.0
sI3
F-221.0
sI4
F-3346.0
sI5
F-75939.0
sI6
F-34642.0
sI7
F-598.0
sI8
F785.0
sI9
F-826.0
sI10
F3657.0
sI11
F-625.0
sI12
F-489.0
sI13
F6029.5300000000225
sI14
F-2647.819999999996
sI15
F-1781.8000000000056
sI16
F9232.720000000023
sI17
F664.4300000000012
sI18
F-12353.31999999998
sI19
F-3844.0
sI20
F287.0
sI21
F-6372.0
sI22
F16721.0
sI23
F-162307.0
sI24
F-1490.0
sI25
F393.0
sI26
F-544.0
sI27
F-184.0
sI28
F-2497.0
sI29
F-8952.0
sI30
F2887.9100000000026
sI31
F142.35000000000048
sI32
F1948.3199999999997
sI33
F9145.420000000004
sI34
F-322.7500000000001
sI35
F-14972.080000000004
sI36
F-5.8900000000000725
sI37
F-2288.0
sI38
F-3308.0
sI39
F-647.0
sI40
F-708.0
ssb.