ccopy_reg
_reconstructor
p0
(cPegasos
Pegasos
p1
c__builtin__
object
p2
Ntp3
Rp4
(dp5
S'I'
p6
I25
sS'lamb'
p7
F0.0001
sS'weights'
p8
(dp9
I1
F22.600619195046246
sI2
F-646.336429308566
sI3
F-22.807017543859132
sI4
F-345.30443756449984
sI5
F-7836.842105262229
sI6
F-3575.0257997943036
sI7
F-61.71310629514902
sI8
F81.0113519091836
sI9
F-85.24251805985622
sI10
F377.3993808049545
sI11
F-64.49948400412721
sI12
F-50.46439628482926
sI13
F622.2425180598589
sI14
F-273.2528379772947
sI15
F-183.88028895768764
sI16
F952.809081527322
sI17
F68.56862745097837
sI18
F-1274.8524251806145
sI19
F-396.69762641898814
sI20
F29.618163054695568
sI21
F-657.5851393188852
sI22
F1725.5933952529113
sI23
F-16749.948400412723
sI24
F-153.76676986584033
sI25
F40.55727554179511
sI26
F-56.140350877192866
sI27
F-18.988648090815047
sI28
F-257.6883384932927
sI29
F-923.8390092879137
sI30
F298.02992776057965
sI31
F14.690402476780486
sI32
F201.06501547987446
sI33
F943.7997936016604
sI34
F-33.30753353973144
sI35
F-1545.1062951496297
sI36
F-0.6078431372548969
sI37
F-236.11971104231068
sI38
F-341.38286893704446
sI39
F-66.76986584107219
sI40
F-73.06501547987581
ssb.