ccopy_reg
_reconstructor
p0
(cperceptron
Margin_Perceptron
p1
c__builtin__
object
p2
Ntp3
Rp4
(dp5
S'I'
p6
I25
sS'rate'
p7
F1.0
sS'weights'
p8
(dp9
I1
F388.0
sI2
F-2180.0
sI3
F-548.0
sI4
F-614.0
sI5
F-91979.0
sI6
F-101080.0
sI7
F2685.0
sI8
F1080.0
sI9
F262.0
sI10
F2583.0
sI11
F477.0
sI12
F882.0
sI13
F4657.290000000014
sI14
F-4320.44
sI15
F2708.6699999999964
sI16
F1079.4299999999982
sI17
F4044.319999999996
sI18
F-6005.509999999995
sI19
F-4939.0
sI20
F-174.0
sI21
F-2160.0
sI22
F-465301.0
sI23
F-96609.0
sI24
F-222.0
sI25
F1198.0
sI26
F-868.0
sI27
F268.0
sI28
F-2229.0
sI29
F7913.0
sI30
F2399.9800000000005
sI31
F-3268.0999999999995
sI32
F398.5500000000003
sI33
F9453.690000000002
sI34
F2629.0999999999985
sI35
F-7734.489999999992
sI36
F165.32000000000122
sI37
F-435.0
sI38
F-2334.0
sI39
F-1390.0
sI40
F-789.0
ssb.