ccopy_reg
_reconstructor
p0
(cPegasos
Pegasos
p1
c__builtin__
object
p2
Ntp3
Rp4
(dp5
S'I'
p6
I25
sS'lamb'
p7
F0.0001
sS'weights'
p8
(dp9
I1
F25.799793601651192
sI2
F-234.57172342621328
sI3
F-16.71826625387036
sI4
F-132.09494324045448
sI5
F-1506.501547989407
sI6
F-11893.498452012152
sI7
F411.971104231174
sI8
F53.14757481940173
sI9
F23.5294117647062
sI10
F408.4623323013437
sI11
F-93.60165118678987
sI12
F117.23426212590282
sI13
F780.181630546951
sI14
F-585.4871001031992
sI15
F48.82662538699721
sI16
F1077.6542827657247
sI17
F529.2497420020622
sI18
F-979.5469556243482
sI19
F-93.9112487100126
sI20
F81.94014447884346
sI21
F-397.3168214654227
sI22
F-26653.97316821203
sI23
F-8054.592363261363
sI24
F84.72652218782255
sI25
F84.41692466460181
sI26
F-76.16099071207545
sI27
F156.03715170278707
sI28
F-230.44375644994733
sI29
F446.3364293085637
sI30
F347.2394220846204
sI31
F-37.861713106294694
sI32
F-164.06811145510474
sI33
F1486.6728586171191
sI34
F238.3436532507711
sI35
F-859.0361197110359
sI36
F18.712074303405192
sI37
F156.55314757481608
sI38
F-224.25180598555283
sI39
F-29.102167182661873
sI40
F-153.76676986584027
ssb.