ccopy_reg
_reconstructor
p0
(cNaiveCluster
NaiveClustering
p1
c__builtin__
object
p2
Ntp3
Rp4
(dp5
S'I'
p6
I10
sS'Clusters'
p7
(lp8
(lp9
I0
a(dp10
I2
F26.00000000000001
sI3
F3.9999999999999996
sI4
F9.999999999999998
sI7
F3.9999999999999996
sI8
F7.000000000000001
sI9
F6.000000000000001
sI10
F4.999999999999999
sI11
F7.000000000000001
sI12
F7.000000000000001
sI13
F19.999999999999996
sI14
F30.0
sI15
F9.999999999999998
sI16
F15.0
sI17
F9.999999999999998
sI18
F15.0
sI19
F25.933333333333334
sI20
F2.6666666666666665
sI21
F6.933333333333335
sI22
F81691.86666666664
sI24
F4.0
sI25
F6.666666666666667
sI26
F8.0
sI27
F7.066666666666666
sI28
F8.333333333333334
sI29
F7.933333333333333
sI30
F28.666666666666664
sI31
F18.0
sI32
F19.2
sI33
F15.866666666666667
sI34
F7.866666666666666
sI35
F10.4
sI36
F-0.264
sI37
F1.9999999999999998
sI38
F1.9999999999999998
sI39
F3.0000000000000004
sI40
F3.0000000000000004
sa(dp11
I1
F0.0025005492859284857
sI2
F0.1222441759046612
sI3
F0.015236482572656576
sI4
F0.1373188694696908
sI5
F4122262798.792541
sI6
F6469095.310779098
sI7
F0.11870680115849648
sI8
F0.019206069443056785
sI9
F0.020717051832616802
sI10
F0.023376067112753442
sI11
F0.011747849795266377
sI12
F0.030150939778288862
sI13
F1.6330902520873671
sI14
F0.6105407059038783
sI15
F0.5176603893112315
sI16
F0.43677239039168236
sI17
F0.3257347346792493
sI18
F0.4397832711499007
sI19
F13.495238095238095
sI20
F1.6666666666666665
sI21
F11.352380952380953
sI22
F35560484505.55238
sI23
F3852347.165052051
sI24
F5.428571428571428
sI25
F3.3809523809523805
sI26
F2.9999999999999996
sI27
F3.3523809523809525
sI28
F1.2380952380952381
sI29
F2.923809523809523
sI30
F151.66666666666666
sI31
F59.99999999999999
sI32
F74.60000000000001
sI33
F39.12380952380952
sI34
F14.695238095238096
sI35
F58.257142857142874
sI36
F0.07062571428571426
sI37
F0.07628399014614072
sI38
F0.07567927294517472
sI39
F0.02124380904823751
sI40
F0.012583111288658367
saF0.004117344312918168
aI15
aa(lp12
I1
a(dp13
I2
F26.77777777777778
sI3
F2.666666666666666
sI4
F8.38888888888889
sI5
F47917.6388888889
sI6
F30997.166666666664
sI7
F4.75
sI8
F7.222222222222224
sI9
F8.361111111111112
sI10
F7.8611111111111125
sI11
F8.416666666666668
sI12
F7.416666666666668
sI13
F18.074166666666667
sI14
F18.379722222222224
sI15
F22.407500000000006
sI16
F18.213055555555556
sI17
F11.240833333333338
sI18
F11.68527777777778
sI19
F27.0
sI20
F3.166666666666667
sI21
F5.0277777777777795
sI22
F398962.972222222
sI24
F4.0277777777777795
sI25
F6.527777777777784
sI26
F7.638888888888893
sI27
F7.055555555555555
sI28
F8.000000000000002
sI29
F6.666666666666667
sI30
F22.22222222222222
sI31
F20.000000000000007
sI32
F20.000000000000007
sI33
F16.250000000000004
sI34
F10.972222222222223
sI35
F10.555555555555554
sI36
F0.30055555555555563
sI37
F4.111111111111111
sI38
F4.666666666666666
sI39
F5.694444444444444
sI40
F2.083333333333333
sa(dp14
I1
F0.0025005492859284857
sI2
F31.949206349206346
sI3
F1.2571428571428567
sI4
F16.815873015873013
sI5
F8971075630.808731
sI6
F721722023.6285715
sI7
F9.67857142857143
sI8
F1.8920634920634927
sI9
F1.7230158730158733
sI10
F1.6087301587301588
sI11
F0.9357142857142855
sI12
F4.192857142857143
sI13
F70.44488214285714
sI14
F62.27365992063491
sI15
F42.41231071428574
sI16
F38.20385039682538
sI17
F41.058882142857136
sI18
F45.49265992063493
sI19
F0.15673887945670584
sI20
F1.9142857142857137
sI21
F5.513492063492064
sI22
F3127888641.6849213
sI23
F3852347.165052051
sI24
F5.513492063492064
sI25
F0.2563492063492063
sI26
F0.23730158730158718
sI27
F1.3682539682539678
sI28
F0.024616017177668988
sI29
F3.542857142857142
sI30
F40.63492063492063
sI31
F0.6194421226147159
sI32
F0.5292833700906121
sI33
F10.535714285714285
sI34
F49.74206349206352
sI35
F102.53968253968252
sI36
F0.05730253968253969
sI37
F10.044444444444446
sI38
F9.657142857142855
sI39
F1.532539682539682
sI40
F0.8214285714285716
saF0.009521358723623263
aI36
aa(lp15
I2
a(dp16
I1
F0.6475095785440612
sI2
F26.367816091954072
sI3
F2.7241379310344893
sI4
F7.413793103448263
sI5
F35182.17624521073
sI6
F26050.999999999993
sI7
F6.467432950191557
sI8
F7.62835249042145
sI9
F8.432950191570882
sI10
F8.164750957854405
sI11
F8.55172413793104
sI12
F7.854406130268196
sI13
F33.36816091954023
sI14
F13.544291187739477
sI15
F17.63823754789272
sI16
F20.192107279693495
sI17
F6.955977011494253
sI18
F8.435325670498086
sI19
F26.003831417624525
sI20
F2.785440613026828
sI21
F8.298850574712638
sI22
F65159.049808429176
sI23
F30424.394636015335
sI24
F6.7509578544061135
sI25
F7.279693486590048
sI26
F6.80842911877395
sI27
F7.823754789272049
sI28
F7.2145593869731846
sI29
F21.980842911877406
sI30
F32.217739463601575
sI31
F14.103869731800769
sI32
F18.27754789272032
sI33
F16.473639846743296
sI34
F9.974521072796918
sI35
F9.125210727969362
sI36
F0.1459770114942529
sI37
F3.9885057471264385
sI38
F3.2490421455938767
sI39
F4.9693486590038365
sI40
F1.8620689655172455
sa(dp17
I1
F0.22911877394635907
sI2
F9.248806366047747
sI3
F1.469761273209552
sI4
F14.512732095490684
sI5
F4122262798.792541
sI6
F776747738.8076938
sI7
F14.503743000294689
sI8
F1.7036545829649272
sI9
F1.6695254936634236
sI10
F2.3842911877394632
sI11
F1.1790450928381953
sI12
F3.224874742116125
sI13
F277.21015352785105
sI14
F77.66969151488352
sI15
F62.914733035661556
sI16
F144.88437823460026
sI17
F40.91921336870026
sI18
F50.09833575891538
sI19
F5.76536987916299
sI20
F1.8537872089596237
sI21
F12.656498673740028
sI22
F8981842245.762896
sI23
F1134050322.2552006
sI24
F8.656970232832265
sI25
F6.294547597995855
sI26
F8.463159445918071
sI27
F6.761125847332731
sI28
F6.761479516651931
sI29
F215.8727085175361
sI30
F379.9945675626291
sI31
F57.360647659888066
sI32
F101.36031627173548
sI33
F68.04786170055998
sI34
F58.518447942823286
sI35
F46.29805505157676
sI36
F0.10371875331564978
sI37
F8.265251989389908
sI38
F7.649277925139985
sI39
F2.5298261125847366
sI40
F0.8732095490716166
saF0.06742151312403499
aI261
aa(lp18
I3
a(dp19
I1
F0.48843322818085944
sI2
F26.731861198738297
sI3
F2.740799158780215
sI4
F8.02050473186138
sI5
F31184.851735015836
sI6
F22214.411671924212
sI7
F5.792849631966444
sI8
F7.094111461619492
sI9
F8.314931650893945
sI10
F7.732912723449141
sI11
F8.35015772870676
sI12
F7.66035751840184
sI13
F22.97008937960078
sI14
F17.039605678233713
sI15
F20.78251314405933
sI16
F17.510347003154834
sI17
F10.09251840168268
sI18
F11.518201892744635
sI19
F26.443217665615254
sI20
F2.7996845425867347
sI21
F7.598317560462891
sI22
F27872.042586750846
sI23
F2211.761829652994
sI24
F5.927970557308205
sI25
F7.841219768664718
sI26
F8.16456361724516
sI27
F8.151945320715157
sI28
F7.831756046267256
sI29
F12.930073606729918
sI30
F20.50609358569963
sI31
F18.23699789695093
sI32
F20.692486855941674
sI33
F18.577712933754235
sI34
F10.596645636172715
sI35
F11.326924290221035
sI36
F0.218054679284963
sI37
F3.7565720294426708
sI38
F3.6298633017875717
sI39
F4.876445846477434
sI40
F2.12302839116718
sa(dp20
I1
F0.24999764914253875
sI2
F11.75657507172872
sI3
F1.4198916282370486
sI4
F14.974329466310818
sI5
F4122262798.792541
sI6
F643944178.5484935
sI7
F12.502042480270775
sI8
F1.7128637813624943
sI9
F1.8329068601339418
sI10
F2.3778641049511333
sI11
F1.1492871923626564
sI12
F2.7883171787940517
sI13
F128.27173870847463
sI14
F46.649001895980305
sI15
F40.61989036673909
sI16
F35.94546005837915
sI17
F30.527749204027625
sI18
F43.103153209087104
sI19
F12.10066675848846
sI20
F1.6479115258945327
sI21
F15.52820337516759
sI22
F2871322034.7455645
sI23
F9798261.48401311
sI24
F6.484551271094781
sI25
F1.4718823619866912
sI26
F1.609411671647692
sI27
F1.2788468186813964
sI28
F2.013762196110162
sI29
F50.07348752745653
sI30
F44.55927421112118
sI31
F32.830897715934505
sI32
F23.507846153167872
sI33
F26.509024803399402
sI34
F26.91391804269286
sI35
F38.984486116305355
sI36
F0.08338358880239587
sI37
F7.967539636839568
sI38
F7.2821797814091
sI39
F2.15148068065344
sI40
F1.0569233858321387
saF0.4897066392177046
aI1902
aa(lp21
I4
a(dp22
I2
F26.894736842105264
sI3
F3.026315789473685
sI4
F8.026315789473681
sI5
F39435.65789473685
sI6
F23621.15789473684
sI7
F5.315789473684211
sI8
F7.131578947368419
sI9
F8.631578947368423
sI10
F7.763157894736839
sI11
F8.342105263157892
sI12
F7.736842105263156
sI13
F19.342105263157904
sI14
F17.289473684210527
sI15
F20.552631578947377
sI16
F16.78947368421053
sI17
F14.52631578947369
sI18
F11.500000000000007
sI19
F29.71052631578949
sI20
F3.7105263157894717
sI21
F7.999999999999994
sI22
F3123740.263157896
sI24
F4.973684210526314
sI25
F5.236842105263155
sI26
F6.789473684210528
sI27
F6.052631578947371
sI28
F6.789473684210528
sI29
F6.789473684210528
sI30
F49.34210526315792
sI31
F16.447368421052634
sI32
F7.236842105263163
sI33
F12.631578947368432
sI34
F3.5526315789473704
sI35
F10.78947368421053
sI36
F0.12921052631578944
sI37
F3.9210526315789473
sI38
F4.763157894736841
sI39
F5.026315789473685
sI40
F2.157894736842105
sa(dp23
I1
F0.0025005492859284857
sI2
F16.312944523470843
sI3
F2.0803698435277376
sI4
F10.783072546230441
sI5
F4122262798.792541
sI6
F477511434.7852062
sI7
F15.357041251778098
sI8
F1.7930298719772397
sI9
F2.0768136557610246
sI10
F3.5910384068278813
sI11
F1.7987197724039832
sI12
F2.3613086770981506
sI13
F93.25817923186347
sI14
F43.45448079658606
sI15
F59.010668563300136
sI16
F41.03556187766714
sI17
F35.3371266002845
sI18
F53.554054054054085
sI19
F0.2112375533428166
sI20
F0.2112375533428163
sI21
F0.14028137554512599
sI22
F19778601015309.656
sI23
F3852347.165052051
sI24
F10.350640113797999
sI25
F4.023470839260313
sI26
F3.5761024182076806
sI27
F2.267425320056898
sI28
F3.5761024182076806
sI29
F3.5761024182076806
sI30
F428.6095305832149
sI31
F207.98364153627307
sI32
F6.347795163584639
sI33
F19.91465149359886
sI34
F5.280938833570418
sI35
F18.27880512091037
sI36
F0.04600206258890469
sI37
F9.804409672830726
sI38
F8.293741109530583
sI39
F2.2965860597439542
sI40
F1.05547652916074
saF0.010036026762738034
aI38
aa(lp24
I5
a(dp25
I1
F0.49414519906323234
sI2
F26.79274004683848
sI3
F2.704918032786853
sI4
F8.081967213114725
sI5
F27681.951990632286
sI6
F23676.018735363003
sI7
F4.398126463700168
sI8
F6.911007025761076
sI9
F8.456674473067904
sI10
F7.627634660421526
sI11
F8.368852459016376
sI12
F7.579625292740024
sI13
F19.472177985948466
sI14
F18.896299765807893
sI15
F21.41996487119423
sI16
F17.37649882903976
sI17
F10.843688524590132
sI18
F12.003313817330161
sI19
F26.263466042154533
sI20
F2.7306791569086335
sI21
F8.090163934426233
sI22
F32992.86885245908
sI23
F22284.72365339575
sI24
F4.948477751756395
sI25
F6.5245901639343975
sI26
F7.647540983606562
sI27
F7.263466042154548
sI28
F8.185011709601897
sI29
F7.612412177985947
sI30
F24.009683840749314
sI31
F19.55597189695542
sI32
F20.909941451990505
sI33
F14.887271662763416
sI34
F8.689039812646337
sI35
F11.866592505854804
sI36
F0.2500819672131149
sI37
F3.844262295081938
sI38
F4.018735362997634
sI39
F5.107728337236466
sI40
F2.046838407494122
sa(dp26
I1
F0.2502587643555909
sI2
F12.722526363763649
sI3
F1.4603040378221548
sI4
F11.906520861760802
sI5
F4122262798.792541
sI6
F662802147.6151236
sI7
F9.618566239556726
sI8
F1.7740170386375733
sI9
F1.6692813077415054
sI10
F1.781462862853511
sI11
F1.0701189629657952
sI12
F3.024719202923411
sI13
F49.75124847473172
sI14
F50.186466010856144
sI15
F38.25151195656068
sI16
F22.91079581652858
sI17
F25.72766293217764
sI18
F32.25715958018424
sI19
F30.100492544566457
sI20
F1.3435594444185182
sI21
F15.955518613187772
sI22
F2871322034.7455645
sI23
F644710829.6210777
sI24
F14.276357586257008
sI25
F3.921434474275961
sI26
F5.96589664251532
sI27
F3.856647292514904
sI28
F2.9270435520315345
sI29
F7.946903201539694
sI30
F198.90891232665592
sI31
F95.7176025126912
sI32
F82.03445919938257
sI33
F28.42160110547984
sI34
F30.829202125025
sI35
F38.546766921678945
sI36
F0.0812343426287165
sI37
F7.228941248822941
sI38
F8.419343768103245
sI39
F1.922730355186658
sI40
F0.9591166045723746
saF0.2200205867215646
aI854
aa(lp27
I6
a(dp28
I2
F26.125
sI3
F2.9375
sI4
F7.0625
sI5
F29305.0
sI6
F32641.9375
sI7
F3.9375
sI8
F7.125
sI9
F8.5
sI10
F7.5625
sI11
F8.5625
sI12
F7.3125
sI13
F16.979375
sI14
F20.416875
sI15
F22.479375
sI16
F17.354375
sI17
F11.854375000000001
sI18
F10.916875000000001
sI19
F21.0
sI20
F2.0
sI21
F5.0
sI22
F630090.0
sI24
F7.0
sI25
F10.0
sI26
F7.0
sI27
F6.0
sI28
F10.0
sI29
F10.0
sI30
F25.0
sI31
F10.0
sI32
F25.0
sI33
F5.0
sI34
F10.0
sI35
F25.0
sI36
F0.35250000000000004
sI37
F3.4375
sI38
F4.625
sI39
F5.875
sI40
F2.125
sa(dp29
I1
F0.0025005492859284857
sI2
F9.18333333333333
sI3
F1.6624999999999999
sI4
F13.2625
sI5
F4122262798.792541
sI6
F641066525.9291667
sI7
F10.729166666666664
sI8
F1.8499999999999999
sI9
F2.4000000000000004
sI10
F1.5958333333333332
sI11
F0.7958333333333335
sI12
F5.029166666666667
sI13
F56.940139583333334
sI14
F83.88722291666667
sI15
F55.98213958333333
sI16
F32.27330625
sI17
F44.96463958333333
sI18
F35.53588958333334
sI19
F0.15673887945670584
sI20
F0.015556605745863412
sI21
F0.14028137554512599
sI22
F2871322034.7455645
sI23
F3852347.165052051
sI24
F0.09231935217550785
sI25
F0.02854061719764284
sI26
F0.03242741236392762
sI27
F0.0248245620693096
sI28
F0.024616017177668988
sI29
F0.9065109890475644
sI30
F1.8050538469766502
sI31
F0.6194421226147159
sI32
F0.5292833700906121
sI33
F0.4359823320832362
sI34
F0.32368593799493156
sI35
F0.43836095027957006
sI36
F0.023953333333333333
sI37
F9.995833333333334
sI38
F12.383333333333333
sI39
F0.6499999999999999
sI40
F1.85
saF0.004374678332475553
aI16
aa(lp30
I7
a(dp31
I1
F0.1832061068702292
sI2
F26.183206106870255
sI3
F2.8473282442748005
sI4
F8.225190839694665
sI5
F40473.83206106873
sI6
F27044.72519083967
sI7
F5.984732824427487
sI8
F7.0648854961832
sI9
F8.446564885496178
sI10
F7.675572519083957
sI11
F8.141221374045791
sI12
F7.305343511450378
sI13
F19.908396946564917
sI14
F18.259541984732845
sI15
F21.408396946564917
sI16
F17.248091603053464
sI17
F10.950381679389343
sI18
F12.206106870229027
sI19
F28.083969465648764
sI20
F2.7328244274809017
sI21
F7.4885496183206035
sI22
F24793.893129770964
sI23
F1804.8129770992377
sI24
F7.522900763358759
sI25
F8.011450381679381
sI26
F8.606870229007619
sI27
F8.774809160305335
sI28
F8.26717557251905
sI29
F23.51145038167941
sI30
F48.60687022900764
sI31
F5.923664122137411
sI32
F15.229007633587816
sI33
F19.500000000000043
sI34
F4.461832061068703
sI35
F6.278625954198478
sI36
F0.15561068702290082
sI37
F3.8129770992366447
sI38
F3.9732824427480993
sI39
F5.2061068702290045
sI40
F2.229007633587785
sa(dp32
I1
F0.15021496885145247
sI2
F11.184697727472143
sI3
F1.6394372788160574
sI4
F15.830320844666726
sI5
F4122262798.792541
sI6
F699050358.437601
sI7
F14.766049545201927
sI8
F1.7237430902869166
sI9
F1.5354479248925144
sI10
F2.2430025445292627
sI11
F1.3248076979322054
sI12
F3.0558334064519888
sI13
F75.76935450849658
sI14
F44.92088561317317
sI15
F44.85556140504807
sI16
F35.36733350881804
sI17
F29.12779678862859
sI18
F44.80793191190667
sI19
F3.9162937615161875
sI20
F1.606504635722846
sI21
F5.860021643122461
sI22
F2871322034.7455645
sI23
F8222880.037685373
sI24
F3.2236114767043915
sI25
F1.4443128308619193
sI26
F1.733745722558571
sI27
F1.347562223977073
sI28
F1.0011406510485241
sI29
F378.388757275306
sI30
F217.34294112485694
sI31
F17.27384399403349
sI32
F106.1389254482173
sI33
F189.33141762452067
sI34
F16.1115644467842
sI35
F26.952721476411966
sI36
F0.08258793980872156
sI37
F8.520443976485018
sI38
F8.17936006551431
sI39
F2.1029510689947615
sI40
F1.1197683600947579
saF0.06767884714359239
aI262
aa(lp33
I8
a(dp34
I1
F0.815028901734109
sI2
F26.731213872832452
sI3
F3.4768786127167752
sI4
F6.566473988439333
sI5
F615023.7514450862
sI6
F124.378612716763
sI7
F5.367052023121372
sI8
F6.716763005780355
sI9
F7.846820809248541
sI10
F7.526011560693634
sI11
F8.355491329479765
sI12
F7.482658959537571
sI13
F35.33069364161856
sI14
F19.008988439306368
sI15
F14.417369942196553
sI16
F13.98991329479771
sI17
F6.031878612716764
sI18
F11.221589595375733
sI19
F26.569364161849723
sI20
F2.7369942196531825
sI21
F8.08959537572256
sI22
F33104.35549132951
sI23
F18836.50578034683
sI24
F5.127167630057803
sI25
F7.531791907514454
sI26
F8.453757225433524
sI27
F7.835260115606943
sI28
F8.138728323699434
sI29
F9.904624277456659
sI30
F18.92780346820811
sI31
F19.144566473988455
sI32
F21.436473988439328
sI33
F17.043410404624296
sI34
F11.448034682080937
sI35
F12.028959537572266
sI36
F0.1925144508670524
sI37
F1.447976878612719
sI38
F1.6734104046242722
sI39
F5.387283236994215
sI40
F3.161849710982661
sa(dp35
I1
F0.15119376727820993
sI2
F12.660877942531604
sI3
F1.7052609533383591
sI4
F7.707162603669293
sI5
F4304052452611.1196
sI6
F6469095.310779098
sI7
F6.864882298735062
sI8
F3.4905587668593516
sI9
F4.773569573594709
sI10
F3.125408394068866
sI11
F1.3544190332579336
sI12
F4.018538996397771
sI13
F385.5355015464524
sI14
F139.9309517274019
sI15
F97.72855972941277
sI16
F57.0244797026053
sI17
F28.991557909860113
sI18
F64.80276007455818
sI19
F17.289377565552495
sI20
F1.4175839825751804
sI21
F14.168760995224881
sI22
F2871322034.7455645
sI23
F592666006.8883741
sI24
F10.72001340370278
sI25
F1.9482617072966402
sI26
F1.697855407556337
sI27
F1.8713328306944828
sI28
F1.3893943201809493
sI29
F25.90102203233643
sI30
F71.9935360308286
sI31
F61.26765850716273
sI32
F48.7929770964229
sI33
F32.83768514702185
sI34
F31.792576995895192
sI35
F34.80742963893773
sI36
F0.09086119544274117
sI37
F0.5958364748261717
sI38
F1.907522828181294
sI39
F1.8901566557761473
sI40
F2.4374968585071612
saF0.08929490478641276
aI346
aa(lp36
I9
a(dp37
I1
F0.6849315068493168
sI2
F27.19178082191781
sI3
F2.7671232876712386
sI4
F7.760273972602741
sI5
F26405.808219178092
sI6
F18105.623287671235
sI7
F5.047945205479458
sI8
F7.198630136986317
sI9
F8.376712328767132
sI10
F7.753424657534251
sI11
F8.397260273972613
sI12
F7.609589041095898
sI13
F25.25116438356164
sI14
F17.39760273972603
sI15
F20.067534246575338
sI16
F17.58575342465753
sI17
F8.693767123287662
sI18
F10.935753424657527
sI19
F26.90410958904106
sI20
F4.0000000000000115
sI21
F8.773972602739734
sI22
F99764.28082191777
sI24
F5.280821917808216
sI25
F5.924657534246582
sI26
F9.054794520547947
sI27
F7.760273972602757
sI28
F8.883561643835622
sI29
F7.390410958904124
sI30
F15.671232876712343
sI31
F20.226027397260246
sI32
F17.897260273972602
sI33
F15.931506849315076
sI34
F10.657534246575375
sI35
F19.6164383561644
sI36
F0.2112328767123288
sI37
F3.602739726027393
sI38
F3.26712328767123
sI39
F5.109589041095896
sI40
F2.109589041095892
sa(dp38
I1
F0.2172886159659892
sI2
F16.956069910250342
sI3
F1.4902220122815315
sI4
F13.728341993386875
sI5
F4122262798.792541
sI6
F621772238.7053858
sI7
F9.245961265942393
sI8
F1.8292394898441195
sI9
F1.919178082191777
sI10
F2.32498819083609
sI11
F1.1928200283419932
sI12
F2.8327350023618316
sI13
F141.65364622106742
sI14
F70.82152869626825
sI15
F48.7235428436466
sI16
F36.323150118091675
sI17
F34.18132709022203
sI18
F46.44704666981578
sI19
F11.632120925838434
sI20
F0.015556605745863412
sI21
F2.396835144071798
sI22
F31074713684.548153
sI23
F3852347.165052051
sI24
F12.175767595654229
sI25
F1.7529050543221525
sI26
F0.43835616438356034
sI27
F0.4731695795937643
sI28
F0.44841757203590094
sI29
F1.3292867264997632
sI30
F13.38082191780822
sI31
F6.410628247520078
sI32
F13.485923476617861
sI33
F7.429759093056209
sI34
F21.31639111950877
sI35
F36.48634860651872
sI36
F0.07931433160132266
sI37
F6.916957959376482
sI38
F7.121256495040146
sI39
F2.0844591402928705
sI40
F1.381010864430796
saF0.03782810087493567
aI146
aasS'K'
p39
I10
sS'S_j'
p40
(dp41
I1
F0.0025005492859284857
sI2
F0.1222441759046612
sI3
F0.015236482572656576
sI4
F0.1373188694696908
sI5
F4122262798.792541
sI6
F6469095.310779098
sI7
F0.11870680115849648
sI8
F0.019206069443056785
sI9
F0.020717051832616802
sI10
F0.023376067112753442
sI11
F0.011747849795266377
sI12
F0.030150939778288862
sI13
F1.6330902520873671
sI14
F0.6105407059038783
sI15
F0.5176603893112315
sI16
F0.43677239039168236
sI17
F0.3257347346792493
sI18
F0.4397832711499007
sI19
F0.15673887945670584
sI20
F0.015556605745863412
sI21
F0.14028137554512599
sI22
F2871322034.7455645
sI23
F3852347.165052051
sI24
F0.09231935217550785
sI25
F0.02854061719764284
sI26
F0.03242741236392762
sI27
F0.0248245620693096
sI28
F0.024616017177668988
sI29
F0.9065109890475644
sI30
F1.8050538469766502
sI31
F0.6194421226147159
sI32
F0.5292833700906121
sI33
F0.4359823320832362
sI34
F0.32368593799493156
sI35
F0.43836095027957006
sI36
F0.0008565124032091537
sI37
F0.07628399014614072
sI38
F0.07567927294517472
sI39
F0.02124380904823751
sI40
F0.012583111288658367
ssS'poss_index'
p42
(dp43
I1
I1
sI2
I1
sI3
I1
sI4
I1
sI5
I1
sI6
I1
sI7
I1
sI8
I1
sI9
I1
sI10
I1
sI11
I1
sI12
I1
sI13
I1
sI14
I1
sI15
I1
sI16
I1
sI17
I1
sI18
I1
sI19
I1
sI20
I1
sI21
I1
sI22
I1
sI23
I1
sI24
I1
sI25
I1
sI26
I1
sI27
I1
sI28
I1
sI29
I1
sI30
I1
sI31
I1
sI32
I1
sI33
I1
sI34
I1
sI35
I1
sI36
I1
sI37
I1
sI38
I1
sI39
I1
sI40
I1
ssb.