ccopy_reg
_reconstructor
p0
(cNaiveCluster
NaiveClustering
p1
c__builtin__
object
p2
Ntp3
Rp4
(dp5
S'I'
p6
I10
sS'Clusters'
p7
(lp8
(lp9
I0
a(dp10
I1
F0.4371859296482418
sI2
F26.11055276381918
sI3
F2.8693467336683427
sI4
F7.190954773869366
sI5
F37714.567839195995
sI6
F21371.025125628134
sI7
F4.155778894472355
sI8
F7.040201005025144
sI9
F8.522613065326643
sI10
F7.477386934673381
sI11
F8.175879396984941
sI12
F7.4422110552764
sI13
F19.728693467336722
sI14
F19.075427135678396
sI15
F20.929698492462357
sI16
F17.31160804020105
sI17
F10.814120603015105
sI18
F12.140753768844242
sI19
F25.31155778894479
sI20
F3.045226130653275
sI21
F5.834170854271379
sI22
F203893.61306532647
sI23
F8.979899497487438
sI24
F5.914572864321609
sI25
F5.628140703517597
sI26
F7.62311557788946
sI27
F6.316582914572862
sI28
F8.115577889447248
sI29
F6.69849246231157
sI30
F17.45728643216084
sI31
F21.59798994974882
sI32
F19.452261306532687
sI33
F13.748743718593007
sI34
F8.165829145728665
sI35
F19.502512562814122
sI36
F0.13301507537688442
sI37
F4.271356783919599
sI38
F3.9447236180904497
sI39
F5.603015075376894
sI40
F2.2613065326633155
sa(dp11
I1
F0.2472970915181969
sI2
F10.58367595553525
sI3
F1.4676919953301897
sI4
F12.064362215115995
sI5
F4879212836.264157
sI6
F665949248.095326
sI7
F7.091771991269484
sI8
F2.1902949088878763
sI9
F1.5133749555860052
sI10
F2.2002436424546987
sI11
F1.246687985381454
sI12
F3.1873001370488825
sI13
F62.35666091061368
sI14
F52.38966938734082
sI15
F32.59728879752298
sI16
F24.989918613268355
sI17
F31.755409197502708
sI18
F35.82567771179127
sI19
F10.62971422770415
sI20
F1.0332978021420212
sI21
F6.896604233287645
sI22
F57965335676.36977
sI23
F3826238.145571307
sI24
F18.482564336835694
sI25
F4.19435561646617
sI26
F2.801685193644995
sI27
F2.712400385767216
sI28
F1.526978325973297
sI29
F4.6864118572661315
sI30
F29.572661286229092
sI31
F65.86787472717124
sI32
F43.41058829501043
sI33
F18.694127201664923
sI34
F21.027917364600775
sI35
F30.746205776356526
sI36
F0.0978777320948175
sI37
F7.643165321557274
sI38
F8.446424039388864
sI39
F1.5234252068422967
sI40
F1.0323841429369072
saF0.0514668039114771
aI199
aa(lp12
I1
a(dp13
I1
F0.2857142857142857
sI2
F27.476190476190478
sI3
F2.619047619047619
sI4
F7.857142857142855
sI5
F78489.33333333331
sI6
F24001.0
sI7
F5.333333333333332
sI8
F6.761904761904762
sI9
F8.238095238095239
sI10
F7.904761904761903
sI11
F8.095238095238097
sI12
F7.428571428571427
sI13
F19.333333333333336
sI14
F18.66666666666667
sI15
F19.238095238095237
sI16
F17.047619047619044
sI17
F12.238095238095235
sI18
F13.476190476190474
sI19
F26.142857142857142
sI20
F4.000000000000002
sI21
F8.571428571428573
sI22
F445759.8571428572
sI24
F5.5714285714285685
sI25
F6.285714285714283
sI26
F7.571428571428572
sI27
F8.285714285714288
sI28
F8.000000000000004
sI29
F8.714285714285717
sI30
F17.14285714285714
sI31
F21.428571428571427
sI32
F20.0
sI33
F18.85714285714286
sI34
F20.0
sI35
F2.571428571428571
sI36
F0.22190476190476188
sI37
F3.57142857142857
sI38
F3.8095238095238093
sI39
F5.571428571428571
sI40
F2.380952380952381
sa(dp14
I1
F0.21428571428571427
sI2
F22.16190476190476
sI3
F1.4476190476190474
sI4
F14.928571428571425
sI5
F18654234041.833332
sI6
F690868289.4999998
sI7
F6.033333333333333
sI8
F2.1904761904761907
sI9
F0.9904761904761904
sI10
F1.3904761904761906
sI11
F0.8904761904761906
sI12
F3.4571428571428577
sI13
F46.93333333333333
sI14
F29.63333333333334
sI15
F22.890476190476182
sI16
F46.04761904761906
sI17
F28.69047619047619
sI18
F69.06190476190474
sI19
F1.9285714285714288
sI20
F0.014987084123972236
sI21
F0.8571428571428571
sI22
F5484411505.92857
sI23
F3826238.145571307
sI24
F5.357142857142857
sI25
F0.2142857142857143
sI26
F0.857142857142857
sI27
F0.21428571428571422
sI28
F0.024454198874796496
sI29
F0.8997555870701465
sI30
F21.428571428571427
sI31
F5.357142857142858
sI32
F0.540730813734869
sI33
F3.4285714285714293
sI34
F0.3250928215902754
sI35
F17.357142857142854
sI36
F0.07070619047619046
sI37
F8.15714285714286
sI38
F7.461904761904759
sI39
F2.4571428571428577
sI40
F1.547619047619048
saF0.005661348430262481
aI21
aa(lp15
I2
a(dp16
I1
F0.33600000000000024
sI2
F26.65599999999998
sI3
F2.792000000000002
sI4
F7.640000000000005
sI5
F39985.584
sI6
F23177.184
sI7
F5.704000000000004
sI8
F7.336000000000006
sI9
F8.464000000000002
sI10
F7.552000000000006
sI11
F8.200000000000003
sI12
F7.464000000000006
sI13
F23.21599999999999
sI14
F16.319999999999993
sI15
F20.88
sI16
F17.303999999999995
sI17
F10.279999999999998
sI18
F12.000000000000002
sI19
F26.936
sI20
F3.3360000000000025
sI21
F7.024000000000005
sI22
F928718.4399999995
sI23
F5967.335999999999
sI24
F6.472000000000004
sI25
F6.880000000000005
sI26
F7.960000000000005
sI27
F7.632000000000005
sI28
F7.496000000000005
sI29
F37.25599999999996
sI30
F60.29599999999991
sI31
F7.624000000000005
sI32
F7.256000000000005
sI33
F15.375999999999992
sI34
F4.624000000000002
sI35
F4.824000000000003
sI36
F0.11536000000000002
sI37
F3.8480000000000025
sI38
F3.6000000000000028
sI39
F5.016000000000004
sI40
F2.1200000000000014
sa(dp17
I1
F0.2249032258064516
sI2
F12.485548387096761
sI3
F1.7144516129032223
sI4
F14.941935483870974
sI5
F4879212836.264157
sI6
F630808685.4416782
sI7
F13.306838709677423
sI8
F1.4829677419354828
sI9
F1.4926451612903238
sI10
F3.3460645161290374
sI11
F1.3548387096774197
sI12
F2.4926451612903224
sI13
F151.96103225806456
sI14
F55.316129032258104
sI15
F55.39677419354841
sI16
F43.95522580645164
sI17
F39.86451612903229
sI18
F49.62903225806451
sI19
F3.850709677419351
sI20
F2.289419354838708
sI21
F13.152645161290343
sI22
F7997200329812.362
sI23
F53546817.85393551
sI24
F13.557677419354818
sI25
F9.880645161290332
sI26
F10.925806451612907
sI27
F10.266709677419382
sI28
F9.993935483870926
sI29
F503.70812903225834
sI30
F339.4358709677418
sI31
F57.68812903225807
sI32
F15.562967741935509
sI33
F239.1881290322582
sI34
F17.76877419354839
sI35
F25.581677419354833
sI36
F0.10081539354838712
sI37
F9.081548387096776
sI38
F6.709677419354835
sI39
F2.515870967741935
sI40
F0.977419354838712
saF0.03242408646423057
aI125
aa(lp18
I3
a(dp19
I2
F26.90506329113911
sI3
F3.1670886075949514
sI4
F8.743037974683535
sI5
F35105.33164556968
sI6
F25268.83417721518
sI7
F5.45443037974686
sI8
F6.884810126582312
sI9
F8.506329113924089
sI10
F7.469620253164594
sI11
F8.073417721519016
sI12
F7.175949367088641
sI13
F17.92873417721506
sI14
F20.36670886075939
sI15
F20.83632911392393
sI16
F16.527468354430315
sI17
F11.066708860759418
sI18
F13.141392405063272
sI19
F27.287341772151702
sI20
F2.736708860759507
sI21
F7.6113924050633255
sI22
F19974.860759493666
sI23
F44.012658227848114
sI24
F5.779746835443065
sI25
F7.015189873417755
sI26
F7.779746835443073
sI27
F7.73924050632915
sI28
F8.317721518987367
sI29
F7.889873417721555
sI30
F32.77505063291126
sI31
F14.746620253164522
sI32
F19.07135443037967
sI33
F17.530772151898674
sI34
F6.582911392405092
sI35
F9.192139240506343
sI36
F0.2297215189873418
sI37
F3.4696202531645737
sI38
F3.898734177215206
sI39
F5.405063291139266
sI40
F2.3911392405063405
sa(dp20
I1
F0.002500351542994249
sI2
F15.323041504227398
sI3
F1.6222361264860188
sI4
F14.743772761547135
sI5
F4879212836.264157
sI6
F710253870.0193597
sI7
F13.969403667516898
sI8
F2.0107955912788182
sI9
F1.7103527939548684
sI10
F2.3127641141646893
sI11
F1.2873786719288958
sI12
F3.2453016957853795
sI13
F94.04395023343143
sI14
F65.14784973769035
sI15
F39.56188384591928
sI16
F35.07819130127873
sI17
F28.106430219312546
sI18
F38.843973977635656
sI19
F9.262070237923322
sI20
F1.4134796489708292
sI21
F13.33548475076605
sI22
F2873393194.770515
sI23
F3826238.145571307
sI24
F10.716953041022936
sI25
F1.6753076318364726
sI26
F3.459665335066006
sI27
F1.9319183071024155
sI28
F1.1397362468113719
sI29
F2.3870963084179713
sI30
F226.94732490237595
sI31
F71.00064496334095
sI32
F74.9025369464638
sI33
F57.43296150695457
sI34
F25.900763629654527
sI35
F41.90652254079042
sI36
F0.08254212767322844
sI37
F7.471192504532307
sI38
F8.47642425117514
sI39
F1.8940174231120857
sI40
F1.0394651136673572
saF0.20355120946989191
aI790
aa(lp21
I4
a(dp22
I1
F0.6909090909090917
sI2
F26.17575757575761
sI3
F3.351515151515155
sI4
F6.448484848484846
sI5
F1445739.9575757585
sI6
F417.30909090909097
sI7
F6.31515151515151
sI8
F6.74545454545455
sI9
F7.303030303030304
sI10
F7.569696969696978
sI11
F8.230303030303046
sI12
F7.503030303030305
sI13
F34.03478787878786
sI14
F16.16721212121212
sI15
F13.050727272727281
sI16
F14.916060606060618
sI17
F7.573272727272721
sI18
F14.258121212121221
sI19
F26.890909090909087
sI20
F2.8666666666666716
sI21
F7.23030303030303
sI22
F26687.690909090907
sI23
F14331.442424242428
sI24
F5.896969696969686
sI25
F7.527272727272728
sI26
F8.442424242424245
sI27
F7.872727272727276
sI28
F8.054545454545458
sI29
F12.169696969696977
sI30
F24.16569696969699
sI31
F18.18993939393943
sI32
F20.94145454545458
sI33
F16.765696969696982
sI34
F9.55963636363637
sI35
F10.377818181818183
sI36
F0.16727272727272718
sI37
F1.6848484848484877
sI38
F1.6666666666666712
sI39
F5.236363636363621
sI40
F2.915151515151511
sa(dp23
I1
F0.21485587583148563
sI2
F12.157945306725779
sI3
F0.9610495195861026
sI4
F5.4439763488543855
sI5
F9564984179625.555
sI6
F6384787.888543947
sI7
F6.4854397634885395
sI8
F5.325055432372506
sI9
F4.041759053954174
sI10
F3.490539541759054
sI11
F1.6905395417590505
sI12
F3.9344419807834474
sI13
F531.3193263266802
sI14
F103.93383730229107
sI15
F57.71297385809315
sI16
F57.9307618255728
sI17
F40.482663614190585
sI18
F94.08615437546186
sI19
F17.268514412416863
sI20
F1.616260162601623
sI21
F13.690539541759076
sI22
F2873393194.770515
sI23
F591283489.5286776
sI24
F10.836881005173677
sI25
F2.4093126385809316
sI26
F2.0286770140428674
sI27
F1.8556541019955641
sI28
F2.1006651884700647
sI29
F70.51980783444203
sI30
F159.00565637102733
sI31
F129.22917743532867
sI32
F60.902025920177344
sI33
F39.82414417590539
sI34
F43.859640110864675
sI35
F42.441613503325904
sI36
F0.08860776053215075
sI37
F0.7781226903178109
sI38
F1.686991869918706
sI39
F1.9986696230598702
sI40
F1.517147080561711
saF0.04271744724652599
aI165
aa(lp24
I5
a(dp25
I1
F1.0000000000000104
sI2
F27.182228915662545
sI3
F2.8298192771084065
sI4
F7.752259036144623
sI5
F24788.71987951797
sI6
F15800.58659638552
sI7
F5.699548192771052
sI8
F6.943524096385506
sI9
F8.095632530120541
sI10
F7.6393072289156745
sI11
F8.49397590361449
sI12
F7.716867469879549
sI13
F29.691280120481874
sI14
F15.889796686746816
sI15
F19.231649096385368
sI16
F18.31693524096372
sI17
F7.204796686746932
sI18
F9.658079819277022
sI19
F26.192771084337423
sI20
F2.716114457831308
sI21
F8.550451807228974
sI22
F39351.218373493815
sI23
F14859.694277108452
sI24
F5.6784638554217155
sI25
F7.839608433735019
sI26
F8.127259036144586
sI27
F8.138554216867501
sI28
F7.836596385542201
sI29
F11.72515060240959
sI30
F16.395617469879365
sI31
F19.086129518072195
sI32
F21.758569277108414
sI33
F17.607966867469777
sI34
F12.646370481927574
sI35
F12.471671686746848
sI36
F0.2269352409638554
sI37
F3.2100903614457432
sI38
F2.7989457831324867
sI39
F4.692018072289121
sI40
F2.1754518072288933
sa(dp26
I1
F0.002500351542994249
sI2
F10.337528713194963
sI3
F1.8112578422204022
sI4
F13.743401072261753
sI5
F4879212836.264157
sI6
F591859619.0957274
sI7
F10.07770891402846
sI8
F1.9267251750029597
sI9
F2.4723848294458515
sI10
F2.675379173059963
sI11
F1.1393758909034681
sI12
F2.9325864119628897
sI13
F170.97883694332802
sI14
F61.973771096537625
sI15
F59.432085221160214
sI16
F62.653171082464546
sI17
F24.985629800380963
sI18
F42.74598975398631
sI19
F12.306443558710942
sI20
F1.3172382446137267
sI21
F15.783436118248426
sI22
F2873393194.770515
sI23
F493227752.88762486
sI24
F8.00429846741901
sI25
F1.8378572693184438
sI26
F2.1126550285543138
sI27
F1.4578040874878724
sI28
F1.5520281956764392
sI29
F32.009555365395315
sI30
F36.343960130877726
sI31
F36.584139491878354
sI32
F43.73045748427
sI33
F29.36146519257162
sI34
F25.77806564108738
sI35
F36.08506321692178
sI36
F0.08042684734794489
sI37
F6.19471348090176
sI38
F5.30468615229564
sI39
F2.1997252385578427
sI40
F1.6037074068693926
saF0.3419969119917653
aI1328
aa(lp27
I6
a(dp28
I2
F27.0
sI3
F4.0
sI4
F9.0
sI5
F92843.0
sI7
F7.0
sI8
F7.0
sI9
F10.0
sI10
F7.0
sI11
F9.0
sI12
F10.0
sI13
F15.0
sI14
F15.0
sI15
F25.0
sI16
F15.0
sI17
F15.0
sI18
F15.0
sI19
F27.0
sI20
F4.0
sI21
F1.0
sI22
F210009.0
sI24
F1.0
sI25
F5.0
sI26
F6.0
sI27
F7.0
sI28
F8.0
sI29
F5.0
sI30
F30.0
sI31
F30.0
sI32
F30.0
sI33
F5.0
sI35
F5.0
sI36
F0.19
sI37
F5.0
sI38
F8.0
sI39
F7.0
sI40
F3.0
sa(dp29
I1
F0.002500351542994249
sI2
F0.12122605612703413
sI3
F0.015344347681346949
sI4
F0.14172978061853478
sI5
F4879212836.264157
sI6
F6384787.888543947
sI7
F0.11960914810745868
sI8
F0.0191669469689405
sI9
F0.020384515463231192
sI10
F0.023714122973468393
sI11
F0.011843197842804638
sI12
F0.029453206165319518
sI13
F1.6461583744915018
sI14
F0.6138374040868988
sI15
F0.5297574528310506
sI16
F0.4423279937934001
sI17
F0.3242398380135144
sI18
F0.4433089594567149
sI19
F0.14800719797596545
sI20
F0.014987084123972236
sI21
F0.14363155098372313
sI22
F2873393194.770515
sI23
F3826238.145571307
sI24
F0.0925546682645891
sI25
F0.028233016411997103
sI26
F0.03242457538533166
sI27
F0.024741363560703996
sI28
F0.024454198874796496
sI29
F0.8997555870701465
sI30
F1.8066424546641406
sI31
F0.623576285848391
sI32
F0.540730813734869
sI33
F0.43724202619707636
sI34
F0.3250928215902754
sI35
F0.4413063738507201
sI36
F0.0008573406385032775
sI37
F0.07747341789007611
sI38
F0.07625304437564724
sI39
F0.021344369652785324
sI40
F0.012286281167814805
saF0.000514668039114771
aI1
aa(lp30
I7
a(dp31
I1
F0.38704028021015674
sI2
F26.00525394045529
sI3
F2.06830122591943
sI4
F7.5166374781085485
sI5
F27606.148861646234
sI6
F24496.551663747832
sI7
F5.374781085814372
sI8
F7.523642732048988
sI9
F8.492119089316974
sI10
F8.1943957968476
sI11
F8.605954465849367
sI12
F8.143607705779289
sI13
F21.70350262697014
sI14
F15.841085814360687
sI15
F22.52367775831853
sI16
F17.797302977232814
sI17
F11.819824868651398
sI18
F10.332154115586624
sI19
F27.070052539404493
sI20
F3.0437828371278477
sI21
F7.374781085814329
sI22
F12368.907180385293
sI23
F10.430823117338004
sI24
F4.733800350262712
sI25
F7.164623467600656
sI26
F8.807355516637452
sI27
F7.7565674255691235
sI28
F8.444833625218894
sI29
F7.844133099824828
sI30
F22.836024518388687
sI31
F19.018056042031414
sI32
F20.37982486865136
sI33
F16.630087565674177
sI34
F9.617180385288904
sI35
F11.308721541155805
sI36
F0.23418563922942187
sI37
F4.388791593695275
sI38
F4.4255691768826715
sI39
F4.75306479859895
sI40
F1.7600700525394102
sa(dp32
I1
F0.2376563124097447
sI2
F10.306989891541498
sI3
F0.1725197406827032
sI4
F15.551915691154342
sI5
F4879212836.264157
sI6
F554495874.7881166
sI7
F14.006661136203014
sI8
F0.8288260054690201
sI9
F1.3310781331612744
sI10
F1.1112667834208947
sI11
F0.783052201431774
sI12
F1.902147663379123
sI13
F68.90048911358939
sI14
F33.559845485605535
sI15
F50.38164294159168
sI16
F26.91550464313169
sI17
F27.313896109626054
sI18
F32.398592018312016
sI19
F10.826662979690928
sI20
F1.740184963283861
sI21
F12.827713767781916
sI22
F2873393194.770515
sI23
F3826238.145571307
sI24
F8.518487110947252
sI25
F1.3517989369219845
sI26
F1.1137001874212693
sI27
F1.6687067932528392
sI28
F1.022828524902452
sI29
F2.5423295541831954
sI30
F80.0550731151872
sI31
F63.27155814422186
sI32
F36.39896453067846
sI33
F31.974798764248607
sI34
F22.485369755123408
sI35
F39.596275029342195
sI36
F0.08016473038989765
sI37
F9.581909238946775
sI38
F8.251906473714966
sI39
F1.9301440993025432
sI40
F0.6388238547331474
saF0.1471950591868245
aI571
aa(lp33
I8
a(dp34
I1
F0.16114457831325296
sI2
F26.27861445783133
sI3
F2.820783132530133
sI4
F8.34638554216866
sI5
F35995.6234939759
sI6
F27688.2876506024
sI7
F5.3734939759036076
sI8
F7.195783132530148
sI9
F8.638554216867478
sI10
F7.783132530120503
sI11
F8.338855421686771
sI12
F7.605421686747012
sI13
F19.554006024096253
sI14
F18.785030120481782
sI15
F21.128509036144404
sI16
F16.99441265060228
sI17
F11.517996987951724
sI18
F12.065346385542092
sI19
F26.65361445783135
sI20
F2.6897590361445887
sI21
F7.759036144578297
sI22
F37802.26656626514
sI23
F21688.1837349398
sI24
F6.5527108433735295
sI25
F7.647590361445785
sI26
F7.477409638554227
sI27
F8.09186746987952
sI28
F7.480421686747001
sI29
F20.618975903614356
sI30
F25.423192771084157
sI31
F16.40963855421675
sI32
F20.789156626505857
sI33
F17.947289156626386
sI34
F8.650602409638507
sI35
F10.900602409638491
sI36
F0.20430722891566266
sI37
F4.076807228915634
sI38
F4.265060240963826
sI39
F5.1716867469879535
sI40
F2.0481927710843473
sa(dp35
I1
F0.135380890076143
sI2
F12.433569118101387
sI3
F1.5017695215250082
sI4
F14.02161587526579
sI5
F4879212836.264157
sI6
F636946468.1690156
sI7
F13.576732268440262
sI8
F1.5905704265023863
sI9
F1.458903487252182
sI10
F2.2334405495284297
sI11
F1.123314525068595
sI12
F2.782233004415837
sI13
F100.39250066964662
sI14
F54.21721598702492
sI15
F44.182886310627225
sI16
F32.12273509944759
sI17
F30.17715691703478
sI18
F39.60104482704558
sI19
F31.451480128659405
sI20
F1.5808301077613718
sI21
F14.614548692507645
sI22
F2873393194.770515
sI23
F662530096.8892698
sI24
F5.378816169656029
sI25
F4.2436442602991145
sI26
F4.922565828926555
sI27
F3.5646999763760876
sI28
F5.441546729906054
sI29
F105.94359110650817
sI30
F58.15095449671934
sI31
F47.23767468062281
sI32
F36.462265350996425
sI33
F31.8569458830797
sI34
F28.149230405786124
sI35
F37.57381562448903
sI36
F0.0935871513202128
sI37
F9.021241072888857
sI38
F8.81349833724039
sI39
F2.0096948881498835
sI40
F0.8905849642915575
saF0.17112712300566135
aI664
aa(lp36
I9
a(dp37
I1
F1.0
sI2
F25.416666666666664
sI3
F2.25
sI4
F7.166666666666667
sI5
F32541.5
sI6
F19112.666666666664
sI7
F5.0
sI8
F7.333333333333332
sI9
F8.416666666666668
sI10
F7.5
sI11
F8.25
sI12
F7.666666666666667
sI13
F29.416666666666664
sI14
F14.583333333333332
sI15
F20.0
sI16
F17.583333333333332
sI17
F6.916666666666666
sI18
F11.499999999999998
sI19
F23.000000000000004
sI20
F4.0
sI21
F5.0
sI22
F395001.0
sI24
F6.999999999999999
sI25
F8.0
sI26
F4.0
sI27
F10.0
sI28
F8.0
sI29
F8.0
sI30
F20.0
sI31
F10.0
sI32
F10.0
sI33
F30.0
sI34
F15.0
sI35
F15.0
sI36
F0.25916666666666666
sI37
F4.500000000000001
sI38
F3.0
sI39
F5.416666666666667
sI40
F1.833333333333333
sa(dp38
I1
F0.002500351542994249
sI2
F7.901515151515151
sI3
F0.7500000000000002
sI4
F17.24242424242424
sI5
F4879212836.264157
sI6
F666198340.7878788
sI7
F16.0
sI8
F1.515151515151515
sI9
F1.1742424242424243
sI10
F3.727272727272727
sI11
F2.022727272727272
sI12
F3.1515151515151514
sI13
F217.71969696969694
sI14
F52.26515151515151
sI15
F8.363636363636365
sI16
F16.265151515151516
sI17
F45.53787878787878
sI18
F62.45454545454545
sI19
F0.14800719797596545
sI20
F0.014987084123972236
sI21
F0.14363155098372313
sI22
F2873393194.770515
sI23
F3826238.145571307
sI24
F0.0925546682645891
sI25
F0.028233016411997103
sI26
F0.03242457538533166
sI27
F0.024741363560703996
sI28
F0.024454198874796496
sI29
F0.8997555870701465
sI30
F1.8066424546641406
sI31
F0.623576285848391
sI32
F0.540730813734869
sI33
F0.43724202619707636
sI34
F0.3250928215902754
sI35
F0.4413063738507201
sI36
F0.10709924242424243
sI37
F8.818181818181817
sI38
F7.272727272727273
sI39
F2.8106060606060606
sI40
F1.0606060606060606
saF0.0033453422542460112
aI12
aasS'K'
p39
I10
sS'S_j'
p40
g29
sS'poss_index'
p41
(dp42
I1
I1
sI2
I1
sI3
I1
sI4
I1
sI5
I1
sI6
I1
sI7
I1
sI8
I1
sI9
I1
sI10
I1
sI11
I1
sI12
I1
sI13
I1
sI14
I1
sI15
I1
sI16
I1
sI17
I1
sI18
I1
sI19
I1
sI20
I1
sI21
I1
sI22
I1
sI23
I1
sI24
I1
sI25
I1
sI26
I1
sI27
I1
sI28
I1
sI29
I1
sI30
I1
sI31
I1
sI32
I1
sI33
I1
sI34
I1
sI35
I1
sI36
I1
sI37
I1
sI38
I1
sI39
I1
sI40
I1
ssb.