ccopy_reg
_reconstructor
p0
(cNaiveCluster
NaiveClustering
p1
c__builtin__
object
p2
Ntp3
Rp4
(dp5
S'I'
p6
I10
sS'Clusters'
p7
(lp8
(lp9
I0
a(dp10
I1
F0.9999999999999937
sI2
F27.028683181225638
sI3
F2.792698826597146
sI4
F7.430247718383319
sI5
F27402.11864406786
sI6
F14098.783572359844
sI7
F5.559322033898285
sI8
F6.993481095175991
sI9
F8.088657105606238
sI10
F7.632333767926967
sI11
F8.414602346805712
sI12
F7.7535853976531826
sI13
F28.64131681877449
sI14
F16.015840938722373
sI15
F19.62749674054773
sI16
F17.899752281616806
sI17
F7.839973924380749
sI18
F9.923533246414653
sI19
F27.13298565840946
sI20
F3.0143415906127866
sI21
F8.135593220338967
sI22
F35886.69361147325
sI23
F338.3624511082139
sI24
F5.136897001303807
sI25
F7.082138200782225
sI26
F8.44067796610163
sI27
F7.83311603650583
sI28
F8.114732724902153
sI29
F7.573663624511119
sI30
F17.27509778357246
sI31
F20.156453715775843
sI32
F20.509778357236055
sI33
F16.07692307692327
sI34
F11.633637548891876
sI35
F14.05475880052164
sI36
F0.22065189048239872
sI37
F3.3011734028683244
sI38
F2.99999999999999
sI39
F4.701434159061293
sI40
F2.1720990873533257
sa(dp11
I1
F0.002500229035587162
sI2
F9.787687950408666
sI3
F1.6188500175312677
sI4
F13.430833228372702
sI5
F4876213765.497533
sI6
F536952869.0732003
sI7
F11.205027216002069
sI8
F1.8002185450076666
sI9
F2.388996497152442
sI10
F2.4808330581663243
sI11
F1.1699170414044116
sI12
F2.7342397391076503
sI13
F158.62486967364646
sI14
F54.840092731846426
sI15
F47.54737858190817
sI16
F42.78479145291576
sI17
F26.971781722556713
sI18
F41.88942131188275
sI19
F14.321717314415546
sI20
F1.2073658518319308
sI21
F13.428065672434316
sI22
F7627273297.578335
sI23
F3946325.4790852615
sI24
F12.084367904521006
sI25
F2.2634794952359214
sI26
F2.082311811302407
sI27
F2.251486752836477
sI28
F0.8406051177658012
sI29
F3.6965900851372617
sI30
F76.57565844342852
sI31
F63.7405033343432
sI32
F37.370335068304065
sI33
F33.69773046796541
sI34
F25.9556816595806
sI35
F50.104047167595944
sI36
F0.08504631077644753
sI37
F6.41700906519241
sI38
F5.819843342036581
sI39
F2.1809770527741943
sI40
F1.4559829248947367
saF0.19763252702007206
aI767
aa(lp12
I1
a(dp13
I1
F0.6514806378132137
sI2
F26.880030372057885
sI3
F2.7312072892938932
sI4
F7.809415337889207
sI5
F28649.227031131468
sI6
F21551.816249050913
sI7
F5.282460136674253
sI8
F7.007593014426784
sI9
F8.340926347760043
sI10
F7.679574791192108
sI11
F8.47228549734243
sI12
F7.721336370539133
sI13
F22.830106302202154
sI14
F17.602270311313667
sI15
F21.06813211845125
sI16
F17.479643128322014
sI17
F9.753401670463285
sI18
F11.2703796507214
sI19
F26.038724373576546
sI20
F2.6864085041762014
sI21
F8.290812452543692
sI22
F43290.793470007906
sI23
F24216.651480637818
sI24
F6.181473044798818
sI25
F8.004555808656006
sI26
F7.893697798025819
sI27
F8.23993925588461
sI28
F7.782080485952959
sI29
F15.649202733485195
sI30
F19.693530751708604
sI31
F18.21365223993942
sI32
F20.875763097950067
sI33
F17.98586180713744
sI34
F11.373864844343327
sI35
F12.024586180713817
sI36
F0.2126727410782077
sI37
F3.8739559605162897
sI38
F3.706909643128292
sI39
F4.8003037205771255
sI40
F2.0782080485953207
sa(dp14
I1
F0.22722614951083953
sI2
F10.935444375976456
sI3
F1.486966094536502
sI4
F12.525200037849613
sI5
F4876213765.497533
sI6
F655169593.2762349
sI7
F11.157237712125468
sI8
F1.7035897187353521
sI9
F2.1124043084010347
sI10
F2.2771888768108126
sI11
F1.120241960982515
sI12
F2.734597604853978
sI13
F94.67485485191285
sI14
F45.43652044967265
sI15
F38.83673435031227
sI16
F31.244947516922785
sI17
F27.793216991273937
sI18
F39.715748639950114
sI19
F11.04637162382045
sI20
F1.4464184743349138
sI21
F15.580257470118424
sI22
F3891266161.3607936
sI23
F667224037.3442451
sI24
F5.963243117244112
sI25
F2.0273348519362298
sI26
F2.227293078817336
sI27
F1.238737990228317
sI28
F2.497307826343837
sI29
F58.30085992619279
sI30
F52.36059839058141
sI31
F38.28924554158475
sI32
F35.66653264292288
sI33
F24.00342047632904
sI34
F29.971885279592
sI35
F30.794474543669576
sI36
F0.08601701516064181
sI37
F7.759176815688178
sI38
F7.497619393805203
sI39
F2.0900303028204967
sI40
F1.2195627439169212
saF0.33916623777663407
aI1317
aa(lp15
I2
a(dp16
I2
F38.0
sI3
F2.0
sI4
F8.0
sI5
F95695.0
sI6
F31809.0
sI7
F7.0
sI8
F6.0
sI9
F9.0
sI10
F6.0
sI11
F8.0
sI12
F9.0
sI13
F15.0
sI14
F15.0
sI15
F20.0
sI16
F15.0
sI17
F15.0
sI18
F20.0
sI19
F27.0
sI20
F4.0
sI21
F8.0
sI22
F400051.0
sI24
F7.0
sI25
F6.0
sI26
F7.0
sI27
F8.0
sI28
F8.0
sI29
F9.0
sI30
F20.0
sI31
F20.0
sI32
F20.0
sI33
F20.0
sI34
F20.0
sI36
F0.61
sI37
F4.0
sI38
F6.0
sI39
F7.0
sI40
F2.0
sa(dp17
I1
F0.002500229035587162
sI2
F0.12178486567462427
sI3
F0.015251466426978683
sI4
F0.13532026165984432
sI5
F4876213765.497533
sI6
F6420116.508544534
sI7
F0.11921218416059275
sI8
F0.019014408602150326
sI9
F0.020480982056659682
sI10
F0.023186111388526873
sI11
F0.01164532241419528
sI12
F0.02915525749858499
sI13
F1.6483100378138016
sI14
F0.6206346484838949
sI15
F0.5235358541032585
sI16
F0.4338293753168783
sI17
F0.32226463091174723
sI18
F0.43739800685002855
sI19
F0.15733778288225478
sI20
F0.01536408002929548
sI21
F0.14306803488798125
sI22
F3891266161.3607936
sI23
F3946325.4790852615
sI24
F0.09322114051732568
sI25
F0.02843933486467626
sI26
F0.03241519025267222
sI27
F0.024901915509836656
sI28
F0.024826735244182666
sI29
F0.8804375451912632
sI30
F1.7621643846381125
sI31
F0.6132070698393328
sI32
F0.5371535814385213
sI33
F0.44771057530252245
sI34
F0.3268836793871236
sI35
F0.44460088429654226
sI36
F0.000847414572455814
sI37
F0.07783951463097806
sI38
F0.07621580678451371
sI39
F0.021354113652251275
sI40
F0.01242922334298825
saF0.000514668039114771
aI1
aa(lp18
I3
a(dp19
I1
F0.7692307692307696
sI2
F26.000000000000018
sI3
F2.948717948717948
sI4
F7.230769230769227
sI5
F61198.5641025641
sI6
F21839.923076923074
sI7
F6.333333333333333
sI8
F7.282051282051285
sI9
F8.53846153846154
sI10
F7.923076923076925
sI11
F8.307692307692308
sI12
F7.641025641025641
sI13
F26.871794871794883
sI14
F16.820512820512825
sI15
F19.692307692307683
sI16
F16.846153846153843
sI17
F9.384615384615387
sI18
F10.897435897435896
sI19
F18.461538461538463
sI20
F2.897435897435895
sI21
F2.6153846153846145
sI22
F161984.4615384616
sI23
F107.05128205128204
sI24
F2.5128205128205123
sI25
F1.2307692307692308
sI26
F1.8205128205128205
sI27
F1.9487179487179482
sI28
F1.3076923076923073
sI29
F4.128205128205128
sI30
F19.74358974358973
sI31
F22.05128205128203
sI32
F18.974358974358964
sI33
F20.64102564102562
sI34
F4.358974358974358
sI35
F14.230769230769239
sI36
F0.20179487179487177
sI37
F3.46153846153846
sI38
F3.3846153846153837
sI39
F5.0769230769230775
sI40
F2.179487179487179
sa(dp20
I1
F0.18218623481781374
sI2
F9.789473684210524
sI3
F1.7341430499325226
sI4
F13.340080971659916
sI5
F10831729605.462881
sI6
F829605442.6518217
sI7
F15.85964912280702
sI8
F1.260458839406208
sI9
F1.0971659919028343
sI10
F1.283400809716599
sI11
F1.008097165991903
sI12
F3.3414304993252357
sI13
F174.79892037786774
sI14
F66.09851551956814
sI15
F59.90283400809721
sI16
F34.23886639676116
sI17
F38.82186234817813
sI18
F57.14709851551957
sI19
F376.5182186234819
sI20
F0.8313090418353583
sI21
F12.874493927125506
sI22
F74340431969.14973
sI23
F3946325.4790852615
sI24
F11.572199730094475
sI25
F4.129554655870442
sI26
F6.835357624831311
sI27
F8.313090418353577
sI28
F3.2186234817813766
sI29
F68.5357624831309
sI30
F7.82726045883941
sI31
F143.04993252361666
sI32
F73.9203778677464
sI33
F2.8677462887989185
sI34
F2.8677462887989216
sI35
F23.076923076923038
sI36
F0.08208353576248312
sI37
F7.465587044534414
sI38
F6.821862348178137
sI39
F3.1255060728744946
sI40
F1.5195681511470984
saF0.010293360782295419
aI39
aa(lp21
I4
a(dp22
I2
F26.505514705882298
sI3
F2.8226102941177103
sI4
F8.318014705882309
sI5
F35627.40900735293
sI6
F26697.844669117658
sI7
F5.346507352941175
sI8
F7.197610294117765
sI9
F8.616727941176482
sI10
F7.798713235294172
sI11
F8.28676470588241
sI12
F7.527573529411867
sI13
F18.858795955882165
sI14
F19.0940900735294
sI15
F21.582141544117693
sI16
F16.79353860294109
sI17
F11.534347426470532
sI18
F12.10052389705876
sI19
F26.851102941176613
sI20
F2.773897058823592
sI21
F7.395220588235394
sI22
F27619.63143382368
sI23
F27.69669117647058
sI24
F5.304227941176526
sI25
F6.97334558823538
sI26
F7.983455882352968
sI27
F7.637867647058894
sI28
F8.227022058823566
sI29
F7.6957720588235805
sI30
F29.988005514705865
sI31
F15.681957720588187
sI32
F19.46712316176476
sI33
F17.389898897058714
sI34
F7.276378676470567
sI35
F10.196773897058819
sI36
F0.21803308823529402
sI37
F3.958639705882382
sI38
F4.201286764705911
sI39
F5.284007352941258
sI40
F2.1562500000000315
sa(dp23
I1
F0.002500229035587162
sI2
F14.831616294171729
sI3
F1.4818434100871298
sI4
F14.68074232913033
sI5
F4876213765.497533
sI6
F635300013.4818331
sI7
F14.475038388170349
sI8
F1.761282232534231
sI9
F1.5834181706261121
sI10
F2.0689219857676213
sI11
F1.1265219979436043
sI12
F3.139993370853382
sI13
F98.15641648822667
sI14
F69.3708241942714
sI15
F50.41446817865905
sI16
F34.98235554404682
sI17
F29.23641613309379
sI18
F37.16734461948384
sI19
F9.249198414416334
sI20
F1.599244412576474
sI21
F13.878615590670375
sI22
F4581615589.092196
sI23
F3946325.4790852615
sI24
F11.146550645327075
sI25
F1.757338566751444
sI26
F2.899450051409668
sI27
F2.1668075924022094
sI28
F1.148965548730974
sI29
F2.8356030832296137
sI30
F197.19322352526635
sI31
F65.69310389149493
sI32
F62.58773513845085
sI33
F46.60032298884896
sI34
F25.15871364488071
sI35
F42.59045554404685
sI36
F0.08457018473672853
sI37
F8.9633291506575
sI38
F8.78465335651277
sI39
F1.8889068334325532
sI40
F1.0077621895124154
saF0.2802367472979928
aI1088
aa(lp24
I5
a(dp25
I1
F0.5483870967741933
sI2
F25.741935483870964
sI3
F2.419354838709676
sI4
F6.580645161290319
sI5
F36153.16129032259
sI6
F26181.516129032258
sI7
F5.064516129032256
sI8
F7.612903225806448
sI9
F8.419354838709674
sI10
F7.9032258064516085
sI11
F8.290322580645158
sI12
F7.6129032258064475
sI13
F25.51612903225806
sI14
F16.096774193548388
sI15
F19.709677419354836
sI16
F18.741935483870968
sI17
F8.483870967741934
sI18
F11.451612903225804
sI19
F24.806451612903228
sI20
F3.9999999999999973
sI21
F6.3548387096774155
sI22
F397281.6451612901
sI24
F6.999999999999996
sI25
F7.0967741935483835
sI26
F5.354838709677416
sI27
F9.096774193548383
sI28
F7.999999999999995
sI29
F8.451612903225804
sI30
F19.999999999999993
sI31
F14.51612903225806
sI32
F14.51612903225806
sI33
F25.48387096774195
sI34
F17.25806451612904
sI35
F8.225806451612907
sI36
F0.20193548387096774
sI37
F4.193548387096773
sI38
F3.9999999999999982
sI39
F5.096774193548384
sI40
F1.9032258064516119
sa(dp26
I1
F0.25591397849462344
sI2
F9.664516129032258
sI3
F0.78494623655914
sI4
F11.851612903225803
sI5
F4876213765.497533
sI6
F779622111.924731
sI7
F8.995698924731181
sI8
F1.2451612903225804
sI9
F0.918279569892473
sI10
F2.423655913978495
sI11
F0.9462365591397851
sI12
F1.978494623655914
sI13
F158.92473118279574
sI14
F72.6236559139785
sI15
F41.01290322580647
sI16
F44.9978494623656
sI17
F35.72473118279571
sI18
F53.98924731182796
sI19
F4.0946236559139795
sI20
F0.01536408002929548
sI21
F2.303225806451613
sI22
F3891266161.3607936
sI23
F3946325.4790852615
sI24
F0.09322114051732568
sI25
F1.0236559139784942
sI26
F2.303225806451611
sI27
F1.0236559139784953
sI28
F0.024826735244182666
sI29
F0.8804375451912632
sI30
F1.7621643846381125
sI31
F25.591397849462357
sI32
F25.591397849462357
sI33
F25.59139784946235
sI34
F6.397849462365594
sI35
F57.58064516129033
sI36
F0.07419612903225808
sI37
F8.227956989247314
sI38
F7.666666666666669
sI39
F2.423655913978495
sI40
F0.6236559139784946
saF0.008234688625836336
aI31
aa(lp27
I6
a(dp28
I1
F0.8429752066115679
sI2
F26.066115702479358
sI3
F3.2438016528925626
sI4
F7.425619834710749
sI5
F967337.9793388448
sI6
F6863.119834710746
sI7
F6.71074380165289
sI8
F7.099173553719003
sI9
F7.834710743801652
sI10
F7.847107438016515
sI11
F8.400826446280975
sI12
F7.809917355371893
sI13
F41.38429752066123
sI14
F15.12809917355373
sI15
F10.520661157024824
sI16
F17.5123966942149
sI17
F5.50413223140496
sI18
F9.950413223140503
sI19
F26.404958677685972
sI20
F2.7892561983471125
sI21
F8.082644628099176
sI22
F38590.909090909096
sI23
F20107.553719008276
sI24
F5.404958677685948
sI25
F7.698347107438003
sI26
F8.438016528925619
sI27
F8.061983471074369
sI28
F7.9999999999999964
sI29
F12.070247933884298
sI30
F19.451859504132248
sI31
F18.7080578512397
sI32
F21.989049586776922
sI33
F17.431198347107454
sI34
F11.33615702479341
sI35
F11.208057851239674
sI36
F0.1372727272727272
sI37
F1.5247933884297546
sI38
F1.3305785123966953
sI39
F5.462809917355371
sI40
F2.5537190082644714
sa(dp29
I1
F0.13291725249477074
sI2
F10.302664517677718
sI3
F1.2971605912005735
sI4
F9.556685298858016
sI5
F6988403059899.193
sI6
F382735983.09346056
sI7
F7.4263571208120425
sI8
F4.429957820376529
sI9
F3.1343918246973606
sI10
F3.192294502931976
sI11
F1.4029868660196803
sI12
F4.055004972394637
sI13
F451.0840677617385
sI14
F142.41920716024867
sI15
F53.51201947807007
sI16
F154.5413394602379
sI17
F34.94811563389464
sI18
F78.91869277459621
sI19
F12.507527176708656
sI20
F1.693991975583827
sI21
F13.968245259078891
sI22
F3891266161.3607936
sI23
F596515586.6381814
sI24
F9.287610164260467
sI25
F1.871283563663799
sI26
F1.8156441822982812
sI27
F1.7430300744144607
sI28
F1.8340248962655594
sI29
F56.2315592743733
sI30
F81.9947454905524
sI31
F57.97310700078848
sI32
F56.19923436267633
sI33
F35.82385457460304
sI34
F36.06804201673473
sI35
F38.3745592829464
sI36
F0.07424398340248965
sI37
F0.7483453928191743
sI38
F0.9691025684990254
sI39
F1.884503274921986
sI40
F1.7502143273550281
saF0.06253216675244468
aI242
aa(lp30
I7
a(dp31
I1
F0.35510204081632607
sI2
F26.269387755102088
sI3
F2.8448979591836863
sI4
F7.897959183673464
sI5
F40234.489795918395
sI6
F22311.636734693882
sI7
F5.697959183673469
sI8
F7.195918367346942
sI9
F8.48163265306123
sI10
F7.832653061224491
sI11
F8.28571428571429
sI12
F7.59591836734694
sI13
F22.008163265306123
sI14
F17.424489795918365
sI15
F20.840816326530604
sI16
F17.444897959183667
sI17
F10.65306122448979
sI18
F11.608163265306102
sI19
F28.27346938775512
sI20
F2.8326530612244967
sI21
F7.616326530612243
sI22
F30778.555102040766
sI23
F5470.20816326531
sI24
F7.767346938775501
sI25
F7.689795918367336
sI26
F7.702040816326511
sI27
F8.065306122448975
sI28
F7.338775510204067
sI29
F35.08571428571429
sI30
F43.50204081632655
sI31
F10.714285714285696
sI32
F18.465306122449007
sI33
F17.28163265306123
sI34
F5.285714285714279
sI35
F4.751020408163261
sI36
F0.19146938775510208
sI37
F3.78775510204082
sI38
F3.926530612244902
sI39
F5.0693877551020385
sI40
F2.159183673469394
sa(dp32
I1
F0.22994312479089976
sI2
F11.369755771160923
sI3
F1.6725660756105738
sI4
F15.329708932753459
sI5
F4876213765.497533
sI6
F619668736.5273345
sI7
F11.998561391769828
sI8
F1.5270324523251952
sI9
F1.447407159585148
sI10
F2.4022080963532955
sI11
F1.319672131147539
sI12
F2.3073603211776557
sI13
F124.6884576781533
sI14
F52.67152893944476
sI15
F58.650786216125574
sI16
F45.74797591167629
sI17
F38.08815657410513
sI18
F53.460588825694224
sI19
F8.10933422549348
sI20
F2.541552358648377
sI21
F12.606289729006315
sI22
F3891266161.3607936
sI23
F36529110.36222818
sI24
F5.285814653730343
sI25
F5.362395449983296
sI26
F8.095282703245221
sI27
F5.618668450986929
sI28
F6.536400133823999
sI29
F227.70983606557422
sI30
F333.111676145869
sI31
F76.29508196721301
sI32
F157.98752091000318
sI33
F188.58019404483062
sI34
F19.196721311475397
sI35
F22.605787888926034
sI36
F0.09170684844429576
sI37
F8.405587152893949
sI38
F7.822448979591827
sI39
F2.3107393777182987
sI40
F1.1753763800602226
saF0.06330416881111683
aI245
aa(lp33
I8
a(dp34
I2
F26.824427480916047
sI3
F2.9389312977099245
sI4
F8.458015267175579
sI5
F40345.34351145037
sI6
F27111.14503816794
sI7
F4.839694656488549
sI8
F6.984732824427486
sI9
F8.465648854961842
sI10
F7.580152671755727
sI11
F8.061068702290084
sI12
F7.244274809160304
sI13
F16.641297709923677
sI14
F19.679465648854972
sI15
F20.587862595419864
sI16
F17.40465648854962
sI17
F11.740534351145048
sI18
F13.984809160305343
sI19
F26.419847328244252
sI20
F3.0916030534351124
sI21
F6.236641221374046
sI22
F138485.95419847322
sI24
F6.999999999999993
sI25
F6.732824427480915
sI26
F8.572519083969473
sI27
F7.305343511450383
sI28
F9.351145038167942
sI29
F9.106870229007647
sI30
F21.24427480916031
sI31
F18.236641221374043
sI32
F20.51908396946566
sI33
F16.63358778625954
sI34
F8.984732824427477
sI35
F13.770992366412212
sI36
F0.17335877862595414
sI37
F3.549618320610685
sI38
F3.778625954198469
sI39
F5.572519083969465
sI40
F2.3893129770992347
sa(dp35
I1
F0.002500229035587162
sI2
F19.407398708162063
sI3
F1.5193188490898417
sI4
F16.388608338226657
sI5
F4876213765.497533
sI6
F715862077.2941861
sI7
F7.351027598355842
sI8
F1.876688197298884
sI9
F1.4507339988256012
sI10
F2.106987668819727
sI11
F1.0577803875513816
sI12
F2.92448620082208
sI13
F36.85747137991784
sI14
F33.70621125073398
sI15
F23.930733857897778
sI16
F28.960583534938305
sI17
F27.743134327657078
sI18
F35.1488959248385
sI19
F13.953141514973575
sI20
F1.6684674104521422
sI21
F3.997416324133872
sI22
F57456520982.04397
sI23
F3946325.4790852615
sI24
F0.09322114051732568
sI25
F3.1972988843217838
sI26
F1.1081620669406926
sI27
F0.6752789195537271
sI28
F0.4142102172636518
sI29
F0.8804375451912632
sI30
F16.32448620082208
sI31
F26.320493247210802
sI32
F12.097709923664091
sI33
F36.71086318261897
sI34
F26.815149735760418
sI35
F71.3471520845566
sI36
F0.075971708749266
sI37
F7.249442160892542
sI38
F7.235231943628896
sI39
F1.9389312977099242
sI40
F1.1165002935995307
saF0.033968090581574885
aI131
aa(lp36
I9
a(dp37
I2
F27.13333333333334
sI3
F3.266666666666666
sI4
F6.866666666666667
sI5
F37665.53333333333
sI6
F19410.666666666664
sI7
F3.933333333333334
sI8
F7.2666666666666675
sI9
F9.133333333333333
sI10
F7.6000000000000005
sI11
F8.399999999999999
sI12
F7.733333333333333
sI13
F20.066666666666666
sI14
F18.8
sI15
F20.33333333333334
sI16
F15.733333333333334
sI17
F13.266666666666666
sI18
F11.799999999999999
sI19
F29.0
sI20
F3.0000000000000004
sI21
F7.999999999999999
sI22
F9991200.0
sI25
F7.000000000000001
sI26
F8.999999999999998
sI27
F7.999999999999999
sI28
F8.999999999999998
sI29
F8.999999999999998
sI30
F75.0
sI31
F4.999999999999999
sI32
F4.999999999999999
sI33
F9.999999999999998
sI35
F4.999999999999999
sI36
F0.12133333333333332
sI37
F5.133333333333333
sI38
F4.799999999999999
sI39
F5.2666666666666675
sI40
F2.466666666666667
sa(dp38
I1
F0.002500229035587162
sI2
F17.838095238095242
sI3
F2.066666666666667
sI4
F8.838095238095237
sI5
F4876213765.497533
sI6
F386861765.09523803
sI7
F5.0666666666666655
sI8
F1.3523809523809522
sI9
F1.9809523809523815
sI10
F4.114285714285715
sI11
F1.1142857142857143
sI12
F1.638095238095238
sI13
F123.92380952380951
sI14
F36.6
sI15
F41.523809523809526
sI16
F46.780952380952385
sI17
F27.209523809523805
sI18
F47.88571428571429
sI19
F0.15733778288225478
sI20
F0.01536408002929548
sI21
F0.14306803488798125
sI22
F3891266161.3607936
sI23
F3946325.4790852615
sI24
F0.09322114051732568
sI25
F0.02843933486467626
sI26
F0.03241519025267222
sI27
F0.024901915509836656
sI28
F0.024826735244182666
sI29
F0.8804375451912632
sI30
F1.7621643846381125
sI31
F0.6132070698393328
sI32
F0.5371535814385213
sI33
F0.44771057530252245
sI34
F0.3268836793871236
sI35
F0.44460088429654226
sI36
F0.045583809523809526
sI37
F13.266666666666666
sI38
F6.742857142857143
sI39
F2.066666666666667
sI40
F0.9809523809523809
saF0.004117344312918168
aI15
aasS'K'
p39
I10
sS'S_j'
p40
g17
sS'poss_index'
p41
(dp42
I1
I1
sI2
I1
sI3
I1
sI4
I1
sI5
I1
sI6
I1
sI7
I1
sI8
I1
sI9
I1
sI10
I1
sI11
I1
sI12
I1
sI13
I1
sI14
I1
sI15
I1
sI16
I1
sI17
I1
sI18
I1
sI19
I1
sI20
I1
sI21
I1
sI22
I1
sI23
I1
sI24
I1
sI25
I1
sI26
I1
sI27
I1
sI28
I1
sI29
I1
sI30
I1
sI31
I1
sI32
I1
sI33
I1
sI34
I1
sI35
I1
sI36
I1
sI37
I1
sI38
I1
sI39
I1
sI40
I1
ssb.