ccopy_reg
_reconstructor
p0
(cPegasos
Pegasos
p1
c__builtin__
object
p2
Ntp3
Rp4
(dp5
S'I'
p6
I25
sS'lamb'
p7
F0.0001
sS'weights'
p8
(dp9
I1
F27.24458204334345
sI2
F-527.1413828689383
sI3
F-23.32301341589291
sI4
F-481.52734778121123
sI5
F-3373.993808048938
sI6
F-9740.763673890595
sI7
F305.36635706914586
sI8
F35.91331269349807
sI9
F14.447884416924966
sI10
F309.28792569659925
sI11
F-45.71723426212542
sI12
F40.55727554179546
sI13
F452.33746130030363
sI14
F-20.004127966976093
sI15
F-322.86584107326865
sI16
F373.13209494323775
sI17
F721.350877192971
sI18
F-795.918472652225
sI19
F-139.93808049535343
sI20
F-96.07843137254713
sI21
F-444.0660474716214
sI22
F-27737.87409700914
sI23
F-4909.081527347485
sI24
F26.418988648090156
sI25
F49.948400412796154
sI26
F-124.66460268317545
sI27
F2.7863777089783763
sI28
F-202.27038183694694
sI29
F268.31785345717185
sI30
F513.3137254901934
sI31
F141.33746130030877
sI32
F130.78018575851416
sI33
F670.3880288957564
sI34
F-87.2229102167182
sI35
F-754.7512899896764
sI36
F7.565531475748024
sI37
F224.87100103198802
sI38
F-54.798761609907174
sI39
F16.408668730650223
sI40
F-104.54076367388974
ssb.