ccopy_reg
_reconstructor
p0
(cPegasos
Pegasos
p1
c__builtin__
object
p2
Ntp3
Rp4
(dp5
S'I'
p6
I25
sS'lamb'
p7
F0.0001
sS'weights'
p8
(dp9
I1
F35.81011351909123
sI2
F-514.9638802889641
sI3
F-45.71723426212531
sI4
F-293.9112487100047
sI5
F-7766.46026831855
sI6
F-10206.398348813398
sI7
F67.18266253869932
sI8
F-2.27038183694543
sI9
F-73.06501547987537
sI10
F244.78844169246273
sI11
F-79.97936016511973
sI12
F1.3415892672855965
sI13
F702.6264189886474
sI14
F-807.0454076367309
sI15
F-148.02167182662265
sI16
F928.4489164086564
sI17
F71.7781217750263
sI18
F-1073.9865841073067
sI19
F-514.860681114547
sI20
F31.166150670794487
sI21
F-326.7285861713085
sI22
F-33988.028895769894
sI23
F-9061.197110423145
sI24
F164.29308565531122
sI25
F67.69865841073293
sI26
F-131.78534571723094
sI27
F-26.934984520123937
sI28
F-324.35500515995363
sI29
F380.7017543859621
sI30
F835.3374613002951
sI31
F-469.7461300309561
sI32
F-317.45717234262145
sI33
F730.2476780185772
sI34
F236.77089783281556
sI35
F-1191.7667698658206
sI36
F6.372549019607739
sI37
F-42.930856553147414
sI38
F-249.94840041279537
sI39
F-183.79772961816266
sI40
F-128.1733746129986
ssb.